     1 00000000                                 [FORMAT "WCOFF"]
     2 00000000                                 [INSTRSET "i486p"]
     3 00000000                                 [OPTIMIZE 1]
     4 00000000                                 [OPTION 1]
     5 00000000                                 [BITS 32]
     6 00000000                                 	EXTERN	_init_gdtidt
     7 00000000                                 	EXTERN	_init_pic
     8 00000000                                 	EXTERN	_io_sti
     9 00000000                                 	EXTERN	_fifo32_init
    10 00000000                                 	EXTERN	_init_pit
    11 00000000                                 	EXTERN	_init_keyboard
    12 00000000                                 	EXTERN	_enable_mouse
    13 00000000                                 	EXTERN	_io_out8
    14 00000000                                 	EXTERN	_memtest
    15 00000000                                 	EXTERN	_memman_init
    16 00000000                                 	EXTERN	_memman_free
    17 00000000                                 	EXTERN	_init_palette
    18 00000000                                 	EXTERN	_shtctl_init
    19 00000000                                 	EXTERN	_task_init
    20 00000000                                 	EXTERN	_task_run
    21 00000000                                 	EXTERN	_sheet_alloc
    22 00000000                                 	EXTERN	_memman_alloc_4k
    23 00000000                                 	EXTERN	_sheet_setbuf
    24 00000000                                 	EXTERN	_init_screen8
    25 00000000                                 	EXTERN	_init_mouse_cursor8
    26 00000000                                 	EXTERN	_sheet_slide
    27 00000000                                 	EXTERN	_sheet_updown
    28 00000000                                 	EXTERN	_io_cli
    29 00000000                                 	EXTERN	_LDevs
    30 00000000                                 	EXTERN	_initAcpi
    31 00000000                                 	EXTERN	_timer_alloc
    32 00000000                                 	EXTERN	_timer_init
    33 00000000                                 	EXTERN	_timer_settime
    34 00000000                                 	EXTERN	_fifo32_put
    35 00000000                                 	EXTERN	_file_readfat
    36 00000000                                 	EXTERN	_file_search
    37 00000000                                 	EXTERN	_file_loadfile2
    38 00000000                                 	EXTERN	_memman_free_4k
    39 00000000                                 	EXTERN	_fifo32_status
    40 00000000                                 	EXTERN	_fifo32_get
    41 00000000                                 	EXTERN	_sheet_free
    42 00000000                                 	EXTERN	_taskctl
    43 00000000                                 	EXTERN	_mouse_decode
    44 00000000                                 	EXTERN	_acpiPowerOff
    45 00000000                                 	EXTERN	_cons_putstr0
    46 00000000                                 	EXTERN	_asm_end_app
    47 00000000                                 	EXTERN	_keytable0.0
    48 00000000                                 	EXTERN	_wait_KBC_sendready
    49 00000000                                 	EXTERN	_keytable1.1
    50 00000000                                 	EXTERN	_task_sleep
    51 00000000                                 	EXTERN	_hankaku
    52 00000000                                 	EXTERN	_change_wtitle8
    53 00000000                                 	EXTERN	_task_alloc
    54 00000000                                 	EXTERN	_console_task
    55 00000000                                 	EXTERN	_make_window8
    56 00000000                                 	EXTERN	_make_textbox8
    57 00000000                                 	EXTERN	_task_now
    58 00000000                                 	EXTERN	_readrtc
    59 00000000                                 	EXTERN	_sprintf
    60 00000000                                 	EXTERN	_boxfill8
    61 00000000                                 	EXTERN	_putfonts8_asc
    62 00000000                                 	EXTERN	_sheet_refresh
    63 00000000                                 [FILE "bootpack.c"]
    64                                          [SECTION .data]
    65 00000000                                 _keytable0.0:
    66 00000000 00                              	DB	0
    67 00000001 00                              	DB	0
    68 00000002 31                              	DB	49
    69 00000003 32                              	DB	50
    70 00000004 33                              	DB	51
    71 00000005 34                              	DB	52
    72 00000006 35                              	DB	53
    73 00000007 36                              	DB	54
    74 00000008 37                              	DB	55
    75 00000009 38                              	DB	56
    76 0000000A 39                              	DB	57
    77 0000000B 30                              	DB	48
    78 0000000C 2D                              	DB	45
    79 0000000D 5E                              	DB	94
    80 0000000E 08                              	DB	8
    81 0000000F 00                              	DB	0
    82 00000010 51                              	DB	81
    83 00000011 57                              	DB	87
    84 00000012 45                              	DB	69
    85 00000013 52                              	DB	82
    86 00000014 54                              	DB	84
    87 00000015 59                              	DB	89
    88 00000016 55                              	DB	85
    89 00000017 49                              	DB	73
    90 00000018 4F                              	DB	79
    91 00000019 50                              	DB	80
    92 0000001A 40                              	DB	64
    93 0000001B 5B                              	DB	91
    94 0000001C 0A                              	DB	10
    95 0000001D 00                              	DB	0
    96 0000001E 41                              	DB	65
    97 0000001F 53                              	DB	83
    98 00000020 44                              	DB	68
    99 00000021 46                              	DB	70
   100 00000022 47                              	DB	71
   101 00000023 48                              	DB	72
   102 00000024 4A                              	DB	74
   103 00000025 4B                              	DB	75
   104 00000026 4C                              	DB	76
   105 00000027 3B                              	DB	59
   106 00000028 3A                              	DB	58
   107 00000029 00                              	DB	0
   108 0000002A 00                              	DB	0
   109 0000002B 5D                              	DB	93
   110 0000002C 5A                              	DB	90
   111 0000002D 58                              	DB	88
   112 0000002E 43                              	DB	67
   113 0000002F 56                              	DB	86
   114 00000030 42                              	DB	66
   115 00000031 4E                              	DB	78
   116 00000032 4D                              	DB	77
   117 00000033 2C                              	DB	44
   118 00000034 2E                              	DB	46
   119 00000035 2F                              	DB	47
   120 00000036 00                              	DB	0
   121 00000037 2A                              	DB	42
   122 00000038 00                              	DB	0
   123 00000039 20                              	DB	32
   124 0000003A 00                              	DB	0
   125 0000003B 00                              	DB	0
   126 0000003C 00                              	DB	0
   127 0000003D 00                              	DB	0
   128 0000003E 00                              	DB	0
   129 0000003F 00                              	DB	0
   130 00000040 00                              	DB	0
   131 00000041 00                              	DB	0
   132 00000042 00                              	DB	0
   133 00000043 00                              	DB	0
   134 00000044 00                              	DB	0
   135 00000045 00                              	DB	0
   136 00000046 00                              	DB	0
   137 00000047 37                              	DB	55
   138 00000048 38                              	DB	56
   139 00000049 39                              	DB	57
   140 0000004A 2D                              	DB	45
   141 0000004B 34                              	DB	52
   142 0000004C 35                              	DB	53
   143 0000004D 36                              	DB	54
   144 0000004E 2B                              	DB	43
   145 0000004F 31                              	DB	49
   146 00000050 32                              	DB	50
   147 00000051 33                              	DB	51
   148 00000052 30                              	DB	48
   149 00000053 2E                              	DB	46
   150 00000054 00                              	DB	0
   151 00000055 00                              	DB	0
   152 00000056 00                              	DB	0
   153 00000057 00                              	DB	0
   154 00000058 00                              	DB	0
   155 00000059 00                              	DB	0
   156 0000005A 00                              	DB	0
   157 0000005B 00                              	DB	0
   158 0000005C 00                              	DB	0
   159 0000005D 00                              	DB	0
   160 0000005E 00                              	DB	0
   161 0000005F 00                              	DB	0
   162 00000060 00                              	DB	0
   163 00000061 00                              	DB	0
   164 00000062 00                              	DB	0
   165 00000063 00                              	DB	0
   166 00000064 00                              	DB	0
   167 00000065 00                              	DB	0
   168 00000066 00                              	DB	0
   169 00000067 00                              	DB	0
   170 00000068 00                              	DB	0
   171 00000069 00                              	DB	0
   172 0000006A 00                              	DB	0
   173 0000006B 00                              	DB	0
   174 0000006C 00                              	DB	0
   175 0000006D 00                              	DB	0
   176 0000006E 00                              	DB	0
   177 0000006F 00                              	DB	0
   178 00000070 00                              	DB	0
   179 00000071 00                              	DB	0
   180 00000072 00                              	DB	0
   181 00000073 5C                              	DB	92
   182 00000074 00                              	DB	0
   183 00000075 00                              	DB	0
   184 00000076 00                              	DB	0
   185 00000077 00                              	DB	0
   186 00000078 00                              	DB	0
   187 00000079 00                              	DB	0
   188 0000007A 00                              	DB	0
   189 0000007B 00                              	DB	0
   190 0000007C 00                              	DB	0
   191 0000007D 5C                              	DB	92
   192 0000007E 00                              	DB	0
   193 0000007F 00                              	DB	0
   194 00000080                                 _keytable1.1:
   195 00000080 00                              	DB	0
   196 00000081 00                              	DB	0
   197 00000082 21                              	DB	33
   198 00000083 22                              	DB	34
   199 00000084 23                              	DB	35
   200 00000085 24                              	DB	36
   201 00000086 25                              	DB	37
   202 00000087 26                              	DB	38
   203 00000088 27                              	DB	39
   204 00000089 28                              	DB	40
   205 0000008A 29                              	DB	41
   206 0000008B 7E                              	DB	126
   207 0000008C 3D                              	DB	61
   208 0000008D 7E                              	DB	126
   209 0000008E 08                              	DB	8
   210 0000008F 00                              	DB	0
   211 00000090 51                              	DB	81
   212 00000091 57                              	DB	87
   213 00000092 45                              	DB	69
   214 00000093 52                              	DB	82
   215 00000094 54                              	DB	84
   216 00000095 59                              	DB	89
   217 00000096 55                              	DB	85
   218 00000097 49                              	DB	73
   219 00000098 4F                              	DB	79
   220 00000099 50                              	DB	80
   221 0000009A 60                              	DB	96
   222 0000009B 7B                              	DB	123
   223 0000009C 0A                              	DB	10
   224 0000009D 00                              	DB	0
   225 0000009E 41                              	DB	65
   226 0000009F 53                              	DB	83
   227 000000A0 44                              	DB	68
   228 000000A1 46                              	DB	70
   229 000000A2 47                              	DB	71
   230 000000A3 48                              	DB	72
   231 000000A4 4A                              	DB	74
   232 000000A5 4B                              	DB	75
   233 000000A6 4C                              	DB	76
   234 000000A7 2B                              	DB	43
   235 000000A8 2A                              	DB	42
   236 000000A9 00                              	DB	0
   237 000000AA 00                              	DB	0
   238 000000AB 7D                              	DB	125
   239 000000AC 5A                              	DB	90
   240 000000AD 58                              	DB	88
   241 000000AE 43                              	DB	67
   242 000000AF 56                              	DB	86
   243 000000B0 42                              	DB	66
   244 000000B1 4E                              	DB	78
   245 000000B2 4D                              	DB	77
   246 000000B3 3C                              	DB	60
   247 000000B4 3E                              	DB	62
   248 000000B5 3F                              	DB	63
   249 000000B6 00                              	DB	0
   250 000000B7 2A                              	DB	42
   251 000000B8 00                              	DB	0
   252 000000B9 20                              	DB	32
   253 000000BA 00                              	DB	0
   254 000000BB 00                              	DB	0
   255 000000BC 00                              	DB	0
   256 000000BD 00                              	DB	0
   257 000000BE 00                              	DB	0
   258 000000BF 00                              	DB	0
   259 000000C0 00                              	DB	0
   260 000000C1 00                              	DB	0
   261 000000C2 00                              	DB	0
   262 000000C3 00                              	DB	0
   263 000000C4 00                              	DB	0
   264 000000C5 00                              	DB	0
   265 000000C6 00                              	DB	0
   266 000000C7 37                              	DB	55
   267 000000C8 38                              	DB	56
   268 000000C9 39                              	DB	57
   269 000000CA 2D                              	DB	45
   270 000000CB 34                              	DB	52
   271 000000CC 35                              	DB	53
   272 000000CD 36                              	DB	54
   273 000000CE 2B                              	DB	43
   274 000000CF 31                              	DB	49
   275 000000D0 32                              	DB	50
   276 000000D1 33                              	DB	51
   277 000000D2 30                              	DB	48
   278 000000D3 2E                              	DB	46
   279 000000D4 00                              	DB	0
   280 000000D5 00                              	DB	0
   281 000000D6 00                              	DB	0
   282 000000D7 00                              	DB	0
   283 000000D8 00                              	DB	0
   284 000000D9 00                              	DB	0
   285 000000DA 00                              	DB	0
   286 000000DB 00                              	DB	0
   287 000000DC 00                              	DB	0
   288 000000DD 00                              	DB	0
   289 000000DE 00                              	DB	0
   290 000000DF 00                              	DB	0
   291 000000E0 00                              	DB	0
   292 000000E1 00                              	DB	0
   293 000000E2 00                              	DB	0
   294 000000E3 00                              	DB	0
   295 000000E4 00                              	DB	0
   296 000000E5 00                              	DB	0
   297 000000E6 00                              	DB	0
   298 000000E7 00                              	DB	0
   299 000000E8 00                              	DB	0
   300 000000E9 00                              	DB	0
   301 000000EA 00                              	DB	0
   302 000000EB 00                              	DB	0
   303 000000EC 00                              	DB	0
   304 000000ED 00                              	DB	0
   305 000000EE 00                              	DB	0
   306 000000EF 00                              	DB	0
   307 000000F0 00                              	DB	0
   308 000000F1 00                              	DB	0
   309 000000F2 00                              	DB	0
   310 000000F3 5F                              	DB	95
   311 000000F4 00                              	DB	0
   312 000000F5 00                              	DB	0
   313 000000F6 00                              	DB	0
   314 000000F7 00                              	DB	0
   315 000000F8 00                              	DB	0
   316 000000F9 00                              	DB	0
   317 000000FA 00                              	DB	0
   318 000000FB 00                              	DB	0
   319 000000FC 00                              	DB	0
   320 000000FD 7C                              	DB	124
   321 000000FE 00                              	DB	0
   322 000000FF 00                              	DB	0
   323 00000100                                 LC0:
   324 00000100 6E 69 68 6F 6E 67 6F 2E 66 6E   	DB	"nihongo.fnt",0x00
       0000010A 74 00 
   325 0000010C                                 LC2:
   326 0000010C 0A 42 72 65 61 6B 28 6D 6F 75   	DB	0x0A,"Break(mouse) :",0x0A,0x00
       00000116 73 65 29 20 3A 0A 00 
   327 0000011D                                 LC1:
   328 0000011D 0A 42 72 65 61 6B 28 6B 65 79   	DB	0x0A,"Break(key) :",0x0A,0x00
       00000127 29 20 3A 0A 00 
   329                                          [SECTION .text]
   330 00000000                                 	GLOBAL	_HariMain
   331 00000000                                 _HariMain:
   332 00000000 55                              	PUSH	EBP
   333 00000001 89 E5                           	MOV	EBP,ESP
   334 00000003 57                              	PUSH	EDI
   335 00000004 56                              	PUSH	ESI
   336 00000005 53                              	PUSH	EBX
   337 00000006 8D 7D A4                        	LEA	EDI,DWORD [-92+EBP]
   338 00000009 81 EC 00000460                  	SUB	ESP,1120
   339 0000000F C7 85 FFFFFBE0 FFFFFFFF         	MOV	DWORD [-1056+EBP],-1
   340 00000019 C7 85 FFFFFBDC 00000000         	MOV	DWORD [-1060+EBP],0
   341 00000023 C7 85 FFFFFBD8 7FFFFFFF         	MOV	DWORD [-1064+EBP],2147483647
   342 0000002D C7 85 FFFFFBD4 00000000         	MOV	DWORD [-1068+EBP],0
   343 00000037 C7 85 FFFFFBC4 00000000         	MOV	DWORD [-1084+EBP],0
   344 00000041 A0 00000FF1                     	MOV	AL,BYTE [4081]
   345 00000046 C0 F8 04                        	SAR	AL,4
   346 00000049 89 C2                           	MOV	EDX,EAX
   347 0000004B 83 E2 07                        	AND	EDX,7
   348 0000004E 89 95 FFFFFBC0                  	MOV	DWORD [-1088+EBP],EDX
   349 00000054 C7 85 FFFFFBBC FFFFFFFF         	MOV	DWORD [-1092+EBP],-1
   350 0000005E C7 85 FFFFFBB8 00000000         	MOV	DWORD [-1096+EBP],0
   351 00000068 C7 85 FFFFFBB4 FFFFFFFF         	MOV	DWORD [-1100+EBP],-1
   352 00000072 C7 85 FFFFFBB0 FFFFFFFF         	MOV	DWORD [-1104+EBP],-1
   353 0000007C C7 85 FFFFFBAC 00000000         	MOV	DWORD [-1108+EBP],0
   354 00000086 C7 85 FFFFFBA8 00000000         	MOV	DWORD [-1112+EBP],0
   355 00000090 E8 [00000000]                   	CALL	_init_gdtidt
   356 00000095 E8 [00000000]                   	CALL	_init_pic
   357 0000009A E8 [00000000]                   	CALL	_io_sti
   358 0000009F 8D 85 FFFFFD84                  	LEA	EAX,DWORD [-636+EBP]
   359 000000A5 6A 00                           	PUSH	0
   360 000000A7 50                              	PUSH	EAX
   361 000000A8 68 00000080                     	PUSH	128
   362 000000AD 57                              	PUSH	EDI
   363 000000AE E8 [00000000]                   	CALL	_fifo32_init
   364 000000B3 89 3D 00000FEC                  	MOV	DWORD [4076],EDI
   365 000000B9 E8 [00000000]                   	CALL	_init_pit
   366 000000BE 68 00000100                     	PUSH	256
   367 000000C3 57                              	PUSH	EDI
   368 000000C4 E8 [00000000]                   	CALL	_init_keyboard
   369 000000C9 8D 85 FFFFFCF4                  	LEA	EAX,DWORD [-780+EBP]
   370 000000CF 50                              	PUSH	EAX
   371 000000D0 68 00000200                     	PUSH	512
   372 000000D5 57                              	PUSH	EDI
   373 000000D6 E8 [00000000]                   	CALL	_enable_mouse
   374 000000DB 83 C4 24                        	ADD	ESP,36
   375 000000DE 68 000000F8                     	PUSH	248
   376 000000E3 6A 21                           	PUSH	33
   377 000000E5 E8 [00000000]                   	CALL	_io_out8
   378 000000EA 68 000000EF                     	PUSH	239
   379 000000EF 68 000000A1                     	PUSH	161
   380 000000F4 E8 [00000000]                   	CALL	_io_out8
   381 000000F9 8D 85 FFFFFD04                  	LEA	EAX,DWORD [-764+EBP]
   382 000000FF 6A 00                           	PUSH	0
   383 00000101 50                              	PUSH	EAX
   384 00000102 8D 45 84                        	LEA	EAX,DWORD [-124+EBP]
   385 00000105 6A 20                           	PUSH	32
   386 00000107 50                              	PUSH	EAX
   387 00000108 E8 [00000000]                   	CALL	_fifo32_init
   388 0000010D 83 C4 20                        	ADD	ESP,32
   389 00000110 68 BFFFFFFF                     	PUSH	-1073741825
   390 00000115 68 00400000                     	PUSH	4194304
   391 0000011A E8 [00000000]                   	CALL	_memtest
   392 0000011F 68 003C0000                     	PUSH	3932160
   393 00000124 89 85 FFFFFBD0                  	MOV	DWORD [-1072+EBP],EAX
   394 0000012A E8 [00000000]                   	CALL	_memman_init
   395 0000012F 68 0009E000                     	PUSH	647168
   396 00000134 68 00001000                     	PUSH	4096
   397 00000139 68 003C0000                     	PUSH	3932160
   398 0000013E E8 [00000000]                   	CALL	_memman_free
   399 00000143 8B 85 FFFFFBD0                  	MOV	EAX,DWORD [-1072+EBP]
   400 00000149 2D 00400000                     	SUB	EAX,4194304
   401 0000014E 50                              	PUSH	EAX
   402 0000014F 68 00400000                     	PUSH	4194304
   403 00000154 68 003C0000                     	PUSH	3932160
   404 00000159 E8 [00000000]                   	CALL	_memman_free
   405 0000015E 83 C4 24                        	ADD	ESP,36
   406 00000161 C7 05 00000EF0 003C0000         	MOV	DWORD [3824],3932160
   407 0000016B E8 [00000000]                   	CALL	_init_palette
   408 00000170 0F BF 05 00000FF6               	MOVSX	EAX,WORD [4086]
   409 00000177 50                              	PUSH	EAX
   410 00000178 0F BF 05 00000FF4               	MOVSX	EAX,WORD [4084]
   411 0000017F 50                              	PUSH	EAX
   412 00000180 FF 35 00000FF8                  	PUSH	DWORD [4088]
   413 00000186 68 003C0000                     	PUSH	3932160
   414 0000018B E8 [00000000]                   	CALL	_shtctl_init
   415 00000190 68 003C0000                     	PUSH	3932160
   416 00000195 89 85 FFFFFBEC                  	MOV	DWORD [-1044+EBP],EAX
   417 0000019B E8 [00000000]                   	CALL	_task_init
   418 000001A0 6A 02                           	PUSH	2
   419 000001A2 6A 01                           	PUSH	1
   420 000001A4 89 85 FFFFFBC8                  	MOV	DWORD [-1080+EBP],EAX
   421 000001AA 50                              	PUSH	EAX
   422 000001AB 89 45 BC                        	MOV	DWORD [-68+EBP],EAX
   423 000001AE E8 [00000000]                   	CALL	_task_run
   424 000001B3 83 C4 20                        	ADD	ESP,32
   425 000001B6 8B 85 FFFFFBC8                  	MOV	EAX,DWORD [-1080+EBP]
   426 000001BC 8B 95 FFFFFBEC                  	MOV	EDX,DWORD [-1044+EBP]
   427 000001C2 89 15 00000FE4                  	MOV	DWORD [4068],EDX
   428 000001C8 C6 80 00000128 00               	MOV	BYTE [296+EAX],0
   429 000001CF 52                              	PUSH	EDX
   430 000001D0 E8 [00000000]                   	CALL	_sheet_alloc
   431 000001D5 89 C6                           	MOV	ESI,EAX
   432 000001D7 0F BF 15 00000FF6               	MOVSX	EDX,WORD [4086]
   433 000001DE 0F BF 05 00000FF4               	MOVSX	EAX,WORD [4084]
   434 000001E5 0F AF C2                        	IMUL	EAX,EDX
   435 000001E8 50                              	PUSH	EAX
   436 000001E9 68 003C0000                     	PUSH	3932160
   437 000001EE E8 [00000000]                   	CALL	_memman_alloc_4k
   438 000001F3 6A FF                           	PUSH	-1
   439 000001F5 89 C3                           	MOV	EBX,EAX
   440 000001F7 0F BF 05 00000FF6               	MOVSX	EAX,WORD [4086]
   441 000001FE 50                              	PUSH	EAX
   442 000001FF 0F BF 05 00000FF4               	MOVSX	EAX,WORD [4084]
   443 00000206 50                              	PUSH	EAX
   444 00000207 53                              	PUSH	EBX
   445 00000208 56                              	PUSH	ESI
   446 00000209 E8 [00000000]                   	CALL	_sheet_setbuf
   447 0000020E 83 C4 20                        	ADD	ESP,32
   448 00000211 68 003C0000                     	PUSH	3932160
   449 00000216 FF B5 FFFFFBA0                  	PUSH	DWORD [-1120+EBP]
   450 0000021C 0F BF 05 00000FF6               	MOVSX	EAX,WORD [4086]
   451 00000223 50                              	PUSH	EAX
   452 00000224 0F BF 05 00000FF4               	MOVSX	EAX,WORD [4084]
   453 0000022B 50                              	PUSH	EAX
   454 0000022C 53                              	PUSH	EBX
   455 0000022D 8D 9D FFFFFBF4                  	LEA	EBX,DWORD [-1036+EBP]
   456 00000233 E8 [00000000]                   	CALL	_init_screen8
   457 00000238 FF B5 FFFFFBEC                  	PUSH	DWORD [-1044+EBP]
   458 0000023E E8 [00000000]                   	CALL	_sheet_alloc
   459 00000243 6A 63                           	PUSH	99
   460 00000245 6A 10                           	PUSH	16
   461 00000247 6A 10                           	PUSH	16
   462 00000249 89 85 FFFFFBCC                  	MOV	DWORD [-1076+EBP],EAX
   463 0000024F 53                              	PUSH	EBX
   464 00000250 50                              	PUSH	EAX
   465 00000251 E8 [00000000]                   	CALL	_sheet_setbuf
   466 00000256 83 C4 2C                        	ADD	ESP,44
   467 00000259 6A 63                           	PUSH	99
   468 0000025B 53                              	PUSH	EBX
   469 0000025C BB 00000002                     	MOV	EBX,2
   470 00000261 E8 [00000000]                   	CALL	_init_mouse_cursor8
   471 00000266 0F BF 05 00000FF4               	MOVSX	EAX,WORD [4084]
   472 0000026D 8D 48 F0                        	LEA	ECX,DWORD [-16+EAX]
   473 00000270 89 C8                           	MOV	EAX,ECX
   474 00000272 99                              	CDQ
   475 00000273 F7 FB                           	IDIV	EBX
   476 00000275 89 85 FFFFFBE8                  	MOV	DWORD [-1048+EBP],EAX
   477 0000027B 0F BF 05 00000FF6               	MOVSX	EAX,WORD [4086]
   478 00000282 6A 00                           	PUSH	0
   479 00000284 8D 48 D4                        	LEA	ECX,DWORD [-44+EAX]
   480 00000287 6A 00                           	PUSH	0
   481 00000289 89 C8                           	MOV	EAX,ECX
   482 0000028B 56                              	PUSH	ESI
   483 0000028C 99                              	CDQ
   484 0000028D F7 FB                           	IDIV	EBX
   485 0000028F 89 85 FFFFFBE4                  	MOV	DWORD [-1052+EBP],EAX
   486 00000295 E8 [00000000]                   	CALL	_sheet_slide
   487 0000029A FF B5 FFFFFBE4                  	PUSH	DWORD [-1052+EBP]
   488 000002A0 FF B5 FFFFFBE8                  	PUSH	DWORD [-1048+EBP]
   489 000002A6 FF B5 FFFFFBCC                  	PUSH	DWORD [-1076+EBP]
   490 000002AC E8 [00000000]                   	CALL	_sheet_slide
   491 000002B1 83 C4 20                        	ADD	ESP,32
   492 000002B4 6A 00                           	PUSH	0
   493 000002B6 56                              	PUSH	ESI
   494 000002B7 E8 [00000000]                   	CALL	_sheet_updown
   495 000002BC 6A 01                           	PUSH	1
   496 000002BE FF B5 FFFFFBCC                  	PUSH	DWORD [-1076+EBP]
   497 000002C4 E8 [00000000]                   	CALL	_sheet_updown
   498 000002C9 E8 [00000000]                   	CALL	_io_cli
   499 000002CE 68 003C0000                     	PUSH	3932160
   500 000002D3 E8 [00000000]                   	CALL	_LDevs
   501 000002D8 E8 [00000000]                   	CALL	_initAcpi
   502 000002DD E8 [00000000]                   	CALL	_io_sti
   503 000002E2 E8 [00000000]                   	CALL	_timer_alloc
   504 000002E7 68 000008E8                     	PUSH	2280
   505 000002EC 57                              	PUSH	EDI
   506 000002ED 50                              	PUSH	EAX
   507 000002EE 89 85 FFFFFB9C                  	MOV	DWORD [-1124+EBP],EAX
   508 000002F4 E8 [00000000]                   	CALL	_timer_init
   509 000002F9 83 C4 20                        	ADD	ESP,32
   510 000002FC 6A 64                           	PUSH	100
   511 000002FE FF B5 FFFFFB9C                  	PUSH	DWORD [-1124+EBP]
   512 00000304 E8 [00000000]                   	CALL	_timer_settime
   513 00000309 8D 55 84                        	LEA	EDX,DWORD [-124+EBP]
   514 0000030C 68 000000ED                     	PUSH	237
   515 00000311 52                              	PUSH	EDX
   516 00000312 E8 [00000000]                   	CALL	_fifo32_put
   517 00000317 8D 45 84                        	LEA	EAX,DWORD [-124+EBP]
   518 0000031A FF B5 FFFFFBC0                  	PUSH	DWORD [-1088+EBP]
   519 00000320 50                              	PUSH	EAX
   520 00000321 E8 [00000000]                   	CALL	_fifo32_put
   521 00000326 68 00002D00                     	PUSH	11520
   522 0000032B 68 003C0000                     	PUSH	3932160
   523 00000330 E8 [00000000]                   	CALL	_memman_alloc_4k
   524 00000335 83 C4 20                        	ADD	ESP,32
   525 00000338 68 00100200                     	PUSH	1049088
   526 0000033D 89 85 FFFFFBA0                  	MOV	DWORD [-1120+EBP],EAX
   527 00000343 50                              	PUSH	EAX
   528 00000344 E8 [00000000]                   	CALL	_file_readfat
   529 00000349 68 000000E0                     	PUSH	224
   530 0000034E 68 00102600                     	PUSH	1058304
   531 00000353 68 [00000100]                   	PUSH	LC0
   532 00000358 E8 [00000000]                   	CALL	_file_search
   533 0000035D 83 C4 14                        	ADD	ESP,20
   534 00000360 89 C2                           	MOV	EDX,EAX
   535 00000362 85 C0                           	TEST	EAX,EAX
   536 00000364 0F 84 00000973                  	JE	L2
   537 0000036A 8B 40 1C                        	MOV	EAX,DWORD [28+EAX]
   538 0000036D 89 85 FFFFFBF0                  	MOV	DWORD [-1040+EBP],EAX
   539 00000373 8D 85 FFFFFBF0                  	LEA	EAX,DWORD [-1040+EBP]
   540 00000379 FF B5 FFFFFBA0                  	PUSH	DWORD [-1120+EBP]
   541 0000037F 50                              	PUSH	EAX
   542 00000380 0F B7 42 1A                     	MOVZX	EAX,WORD [26+EDX]
   543 00000384 50                              	PUSH	EAX
   544 00000385 E8 [00000000]                   	CALL	_file_loadfile2
   545 0000038A 83 C4 0C                        	ADD	ESP,12
   546 0000038D 89 C1                           	MOV	ECX,EAX
   547 0000038F                                 L3:
   548 0000038F 89 0D 00000FE8                  	MOV	DWORD [4072],ECX
   549 00000395 68 00002D00                     	PUSH	11520
   550 0000039A FF B5 FFFFFBA0                  	PUSH	DWORD [-1120+EBP]
   551 000003A0 68 003C0000                     	PUSH	3932160
   552 000003A5 E8 [00000000]                   	CALL	_memman_free_4k
   553 000003AA                                 L97:
   554 000003AA 83 C4 0C                        	ADD	ESP,12
   555 000003AD                                 L14:
   556 000003AD 8D 5D 84                        	LEA	EBX,DWORD [-124+EBP]
   557 000003B0 53                              	PUSH	EBX
   558 000003B1 E8 [00000000]                   	CALL	_fifo32_status
   559 000003B6 5F                              	POP	EDI
   560 000003B7 85 C0                           	TEST	EAX,EAX
   561 000003B9 7E 0D                           	JLE	L17
   562 000003BB 83 BD FFFFFBBC 00               	CMP	DWORD [-1092+EBP],0
   563 000003C2 0F 88 000008EF                  	JS	L101
   564 000003C8                                 L17:
   565 000003C8 8D 5D A4                        	LEA	EBX,DWORD [-92+EBP]
   566 000003CB E8 [00000000]                   	CALL	_io_cli
   567 000003D0 53                              	PUSH	EBX
   568 000003D1 E8 [00000000]                   	CALL	_fifo32_status
   569 000003D6 5E                              	POP	ESI
   570 000003D7 85 C0                           	TEST	EAX,EAX
   571 000003D9 0F 84 00000879                  	JE	L102
   572 000003DF 53                              	PUSH	EBX
   573 000003E0 E8 [00000000]                   	CALL	_fifo32_get
   574 000003E5 89 85 FFFFFBF0                  	MOV	DWORD [-1040+EBP],EAX
   575 000003EB E8 [00000000]                   	CALL	_io_sti
   576 000003F0 5B                              	POP	EBX
   577 000003F1 83 BD FFFFFBA4 00               	CMP	DWORD [-1116+EBP],0
   578 000003F8 74 3B                           	JE	L24
   579 000003FA 8B 95 FFFFFBA4                  	MOV	EDX,DWORD [-1116+EBP]
   580 00000400 83 7A 1C 00                     	CMP	DWORD [28+EDX],0
   581 00000404 75 2F                           	JNE	L24
   582 00000406 8B 95 FFFFFBEC                  	MOV	EDX,DWORD [-1044+EBP]
   583 0000040C C7 85 FFFFFBA4 00000000         	MOV	DWORD [-1116+EBP],0
   584 00000416 8B 42 10                        	MOV	EAX,DWORD [16+EDX]
   585 00000419 83 F8 01                        	CMP	EAX,1
   586 0000041C 74 17                           	JE	L24
   587 0000041E 8B 95 FFFFFBEC                  	MOV	EDX,DWORD [-1044+EBP]
   588 00000424 8B 44 82 10                     	MOV	EAX,DWORD [16+EDX+EAX*4]
   589 00000428 50                              	PUSH	EAX
   590 00000429 89 85 FFFFFBA4                  	MOV	DWORD [-1116+EBP],EAX
   591 0000042F E8 00000941                     	CALL	_keywin_on
   592 00000434 59                              	POP	ECX
   593 00000435                                 L24:
   594 00000435 8B 95 FFFFFBF0                  	MOV	EDX,DWORD [-1040+EBP]
   595 0000043B 8D 82 FFFFFF00                  	LEA	EAX,DWORD [-256+EDX]
   596 00000441 3D 000000FF                     	CMP	EAX,255
   597 00000446 0F 86 00000405                  	JBE	L103
   598 0000044C 8D 82 FFFFFE00                  	LEA	EAX,DWORD [-512+EDX]
   599 00000452 3D 000000FF                     	CMP	EAX,255
   600 00000457 0F 86 000000B8                  	JBE	L104
   601 0000045D 8D 82 FFFFFD00                  	LEA	EAX,DWORD [-768+EDX]
   602 00000463 3D 000000FF                     	CMP	EAX,255
   603 00000468 0F 86 0000008F                  	JBE	L105
   604 0000046E 8D 82 FFFFFC00                  	LEA	EAX,DWORD [-1024+EDX]
   605 00000474 3D 000003E7                     	CMP	EAX,999
   606 00000479 76 64                           	JBE	L106
   607 0000047B 8D 82 FFFFF818                  	LEA	EAX,DWORD [-2024+EDX]
   608 00000481 3D 000000FF                     	CMP	EAX,255
   609 00000486 76 25                           	JBE	L107
   610 00000488 81 FA 000008E8                  	CMP	EDX,2280
   611 0000048E 0F 85 FFFFFF19                  	JNE	L14
   612 00000494 E8 00000AC4                     	CALL	_printtime2
   613 00000499 6A 64                           	PUSH	100
   614 0000049B FF B5 FFFFFB9C                  	PUSH	DWORD [-1124+EBP]
   615 000004A1 E8 [00000000]                   	CALL	_timer_settime
   616 000004A6                                 L98:
   617 000004A6 58                              	POP	EAX
   618 000004A7 5A                              	POP	EDX
   619 000004A8 E9 FFFFFF00                     	JMP	L14
   620 000004AD                                 L107:
   621 000004AD 6B C2 28                        	IMUL	EAX,EDX,40
   622 000004B0 03 85 FFFFFBEC                  	ADD	EAX,DWORD [-1044+EBP]
   623 000004B6 68 0000A500                     	PUSH	42240
   624 000004BB FF B0 FFFEC7D4                  	PUSH	DWORD [-79916+EAX]
   625 000004C1 68 003C0000                     	PUSH	3932160
   626 000004C6 8D 98 FFFEC7D4                  	LEA	EBX,DWORD [-79916+EAX]
   627 000004CC E8 [00000000]                   	CALL	_memman_free_4k
   628 000004D1 53                              	PUSH	EBX
   629 000004D2 E8 [00000000]                   	CALL	_sheet_free
   630 000004D7 83 C4 10                        	ADD	ESP,16
   631 000004DA E9 FFFFFECE                     	JMP	L14
   632 000004DF                                 L106:
   633 000004DF 69 D2 00000140                  	IMUL	EDX,EDX,320
   634 000004E5 03 15 [00000000]                	ADD	EDX,DWORD [_taskctl]
   635 000004EB 8D 82 FFFB0FFC                  	LEA	EAX,DWORD [-323588+EDX]
   636 000004F1 50                              	PUSH	EAX
   637 000004F2 E8 000009D1                     	CALL	_close_constask
   638 000004F7                                 L96:
   639 000004F7 59                              	POP	ECX
   640 000004F8 E9 FFFFFEB0                     	JMP	L14
   641 000004FD                                 L105:
   642 000004FD 6B C2 28                        	IMUL	EAX,EDX,40
   643 00000500 8B 95 FFFFFBEC                  	MOV	EDX,DWORD [-1044+EBP]
   644 00000506 8D 84 10 FFFF8C14               	LEA	EAX,DWORD [-29676+EAX+EDX*1]
   645 0000050D 50                              	PUSH	EAX
   646 0000050E E8 000009F5                     	CALL	_close_console
   647 00000513 EB E2                           	JMP	L96
   648 00000515                                 L104:
   649 00000515 0F B6 85 FFFFFBF0               	MOVZX	EAX,BYTE [-1040+EBP]
   650 0000051C 50                              	PUSH	EAX
   651 0000051D 8D 85 FFFFFCF4                  	LEA	EAX,DWORD [-780+EBP]
   652 00000523 50                              	PUSH	EAX
   653 00000524 E8 [00000000]                   	CALL	_mouse_decode
   654 00000529 59                              	POP	ECX
   655 0000052A 5B                              	POP	EBX
   656 0000052B 85 C0                           	TEST	EAX,EAX
   657 0000052D 0F 84 FFFFFE7A                  	JE	L14
   658 00000533 8B 95 FFFFFCFC                  	MOV	EDX,DWORD [-772+EBP]
   659 00000539 8B 85 FFFFFCF8                  	MOV	EAX,DWORD [-776+EBP]
   660 0000053F 01 95 FFFFFBE4                  	ADD	DWORD [-1052+EBP],EDX
   661 00000545 01 85 FFFFFBE8                  	ADD	DWORD [-1048+EBP],EAX
   662 0000054B 0F 88 000002F1                  	JS	L108
   663 00000551                                 L60:
   664 00000551 83 BD FFFFFBE4 00               	CMP	DWORD [-1052+EBP],0
   665 00000558 0F 88 000002D5                  	JS	L109
   666 0000055E                                 L61:
   667 0000055E 0F BF 05 00000FF4               	MOVSX	EAX,WORD [4084]
   668 00000565 48                              	DEC	EAX
   669 00000566 39 85 FFFFFBE8                  	CMP	DWORD [-1048+EBP],EAX
   670 0000056C 7E 06                           	JLE	L62
   671 0000056E 89 85 FFFFFBE8                  	MOV	DWORD [-1048+EBP],EAX
   672 00000574                                 L62:
   673 00000574 0F BF 05 00000FF6               	MOVSX	EAX,WORD [4086]
   674 0000057B 48                              	DEC	EAX
   675 0000057C 39 85 FFFFFBE4                  	CMP	DWORD [-1052+EBP],EAX
   676 00000582 7E 06                           	JLE	L63
   677 00000584 89 85 FFFFFBE4                  	MOV	DWORD [-1052+EBP],EAX
   678 0000058A                                 L63:
   679 0000058A 8B 95 FFFFFBE8                  	MOV	EDX,DWORD [-1048+EBP]
   680 00000590 8B 85 FFFFFBE4                  	MOV	EAX,DWORD [-1052+EBP]
   681 00000596 89 95 FFFFFBE0                  	MOV	DWORD [-1056+EBP],EDX
   682 0000059C 89 85 FFFFFBDC                  	MOV	DWORD [-1060+EBP],EAX
   683 000005A2 F7 85 FFFFFD00 00000001         	TEST	DWORD [-768+EBP],1
   684 000005AC 75 40                           	JNE	L110
   685 000005AE C7 85 FFFFFBB4 FFFFFFFF         	MOV	DWORD [-1100+EBP],-1
   686 000005B8 81 BD FFFFFBD8 7FFFFFFF         	CMP	DWORD [-1064+EBP],2147483647
   687 000005C2 0F 84 FFFFFDE5                  	JE	L14
   688 000005C8                                 L99:
   689 000005C8 FF B5 FFFFFBD4                  	PUSH	DWORD [-1068+EBP]
   690 000005CE FF B5 FFFFFBD8                  	PUSH	DWORD [-1064+EBP]
   691 000005D4 FF B5 FFFFFBA8                  	PUSH	DWORD [-1112+EBP]
   692 000005DA E8 [00000000]                   	CALL	_sheet_slide
   693 000005DF C7 85 FFFFFBD8 7FFFFFFF         	MOV	DWORD [-1064+EBP],2147483647
   694 000005E9 E9 FFFFFDBC                     	JMP	L97
   695 000005EE                                 L110:
   696 000005EE 83 BD FFFFFBB4 00               	CMP	DWORD [-1100+EBP],0
   697 000005F5 78 46                           	JS	L111
   698 000005F7 8B 9D FFFFFBE8                  	MOV	EBX,DWORD [-1048+EBP]
   699 000005FD 8B 85 FFFFFBAC                  	MOV	EAX,DWORD [-1108+EBP]
   700 00000603 2B 9D FFFFFBB4                  	SUB	EBX,DWORD [-1100+EBP]
   701 00000609 8B B5 FFFFFBE4                  	MOV	ESI,DWORD [-1052+EBP]
   702 0000060F 2B B5 FFFFFBB0                  	SUB	ESI,DWORD [-1104+EBP]
   703 00000615 8B 95 FFFFFBE4                  	MOV	EDX,DWORD [-1052+EBP]
   704 0000061B 8D 5C 03 02                     	LEA	EBX,DWORD [2+EBX+EAX*1]
   705 0000061F 89 95 FFFFFBB0                  	MOV	DWORD [-1104+EBP],EDX
   706 00000625 89 9D FFFFFBD8                  	MOV	DWORD [-1064+EBP],EBX
   707 0000062B 01 B5 FFFFFBD4                  	ADD	DWORD [-1068+EBP],ESI
   708 00000631 83 A5 FFFFFBD8 FC               	AND	DWORD [-1064+EBP],-4
   709 00000638 E9 FFFFFD70                     	JMP	L14
   710 0000063D                                 L111:
   711 0000063D 8B 95 FFFFFBEC                  	MOV	EDX,DWORD [-1044+EBP]
   712 00000643 8B 7A 10                        	MOV	EDI,DWORD [16+EDX]
   713 00000646 8D 4F FF                        	LEA	ECX,DWORD [-1+EDI]
   714 00000649 85 C9                           	TEST	ECX,ECX
   715 0000064B 7E 61                           	JLE	L67
   716 0000064D                                 L77:
   717 0000064D 8B 85 FFFFFBEC                  	MOV	EAX,DWORD [-1044+EBP]
   718 00000653 8B B5 FFFFFBE4                  	MOV	ESI,DWORD [-1052+EBP]
   719 00000659 8B 9D FFFFFBE8                  	MOV	EBX,DWORD [-1048+EBP]
   720 0000065F 8B 44 88 14                     	MOV	EAX,DWORD [20+EAX+ECX*4]
   721 00000663 89 85 FFFFFBA8                  	MOV	DWORD [-1112+EBP],EAX
   722 00000669 2B 70 10                        	SUB	ESI,DWORD [16+EAX]
   723 0000066C 2B 58 0C                        	SUB	EBX,DWORD [12+EAX]
   724 0000066F 78 38                           	JS	L68
   725 00000671 8B 40 04                        	MOV	EAX,DWORD [4+EAX]
   726 00000674 39 C3                           	CMP	EBX,EAX
   727 00000676 7D 31                           	JGE	L68
   728 00000678 85 F6                           	TEST	ESI,ESI
   729 0000067A 78 2D                           	JS	L68
   730 0000067C 8B 95 FFFFFBA8                  	MOV	EDX,DWORD [-1112+EBP]
   731 00000682 3B 72 08                        	CMP	ESI,DWORD [8+EDX]
   732 00000685 7D 22                           	JGE	L68
   733 00000687 0F AF C6                        	IMUL	EAX,ESI
   734 0000068A 89 85 FFFFFB94                  	MOV	DWORD [-1132+EBP],EAX
   735 00000690 8B 12                           	MOV	EDX,DWORD [EDX]
   736 00000692 8B 85 FFFFFB94                  	MOV	EAX,DWORD [-1132+EBP]
   737 00000698 01 D8                           	ADD	EAX,EBX
   738 0000069A 0F B6 04 10                     	MOVZX	EAX,BYTE [EAX+EDX*1]
   739 0000069E 8B 95 FFFFFBA8                  	MOV	EDX,DWORD [-1112+EBP]
   740 000006A4 3B 42 14                        	CMP	EAX,DWORD [20+EDX]
   741 000006A7 75 36                           	JNE	L112
   742 000006A9                                 L68:
   743 000006A9 49                              	DEC	ECX
   744 000006AA 85 C9                           	TEST	ECX,ECX
   745 000006AC 7F 9F                           	JG	L77
   746 000006AE                                 L67:
   747 000006AE 83 BD FFFFFBE8 0F               	CMP	DWORD [-1048+EBP],15
   748 000006B5 0F 87 FFFFFCF2                  	JA	L14
   749 000006BB 83 BD FFFFFBE4 00               	CMP	DWORD [-1052+EBP],0
   750 000006C2 0F 88 FFFFFCE5                  	JS	L14
   751 000006C8 83 BD FFFFFBE4 0F               	CMP	DWORD [-1052+EBP],15
   752 000006CF 0F 8F FFFFFCD8                  	JG	L14
   753 000006D5 E8 [00000000]                   	CALL	_acpiPowerOff
   754 000006DA E9 FFFFFCCE                     	JMP	L14
   755 000006DF                                 L112:
   756 000006DF 8D 47 FF                        	LEA	EAX,DWORD [-1+EDI]
   757 000006E2 50                              	PUSH	EAX
   758 000006E3 52                              	PUSH	EDX
   759 000006E4 E8 [00000000]                   	CALL	_sheet_updown
   760 000006E9 58                              	POP	EAX
   761 000006EA 8B 85 FFFFFBA4                  	MOV	EAX,DWORD [-1116+EBP]
   762 000006F0 5A                              	POP	EDX
   763 000006F1 39 85 FFFFFBA8                  	CMP	DWORD [-1112+EBP],EAX
   764 000006F7 74 1A                           	JE	L72
   765 000006F9 50                              	PUSH	EAX
   766 000006FA E8 00000648                     	CALL	_keywin_off
   767 000006FF 8B 95 FFFFFBA8                  	MOV	EDX,DWORD [-1112+EBP]
   768 00000705 52                              	PUSH	EDX
   769 00000706 89 95 FFFFFBA4                  	MOV	DWORD [-1116+EBP],EDX
   770 0000070C E8 00000664                     	CALL	_keywin_on
   771 00000711 5F                              	POP	EDI
   772 00000712 58                              	POP	EAX
   773 00000713                                 L72:
   774 00000713 83 FB 02                        	CMP	EBX,2
   775 00000716 7E 50                           	JLE	L73
   776 00000718 8B 95 FFFFFBA8                  	MOV	EDX,DWORD [-1112+EBP]
   777 0000071E 8B 42 04                        	MOV	EAX,DWORD [4+EDX]
   778 00000721 83 E8 03                        	SUB	EAX,3
   779 00000724 39 C3                           	CMP	EBX,EAX
   780 00000726 7D 40                           	JGE	L73
   781 00000728 83 FE 02                        	CMP	ESI,2
   782 0000072B 7E 3B                           	JLE	L73
   783 0000072D 83 FE 14                        	CMP	ESI,20
   784 00000730 7F 36                           	JG	L73
   785 00000732 8B 85 FFFFFBE8                  	MOV	EAX,DWORD [-1048+EBP]
   786 00000738 8B 95 FFFFFBE4                  	MOV	EDX,DWORD [-1052+EBP]
   787 0000073E 89 85 FFFFFBB4                  	MOV	DWORD [-1100+EBP],EAX
   788 00000744 89 95 FFFFFBB0                  	MOV	DWORD [-1104+EBP],EDX
   789 0000074A 8B 85 FFFFFBA8                  	MOV	EAX,DWORD [-1112+EBP]
   790 00000750 8B 95 FFFFFBA8                  	MOV	EDX,DWORD [-1112+EBP]
   791 00000756 8B 40 0C                        	MOV	EAX,DWORD [12+EAX]
   792 00000759 8B 52 10                        	MOV	EDX,DWORD [16+EDX]
   793 0000075C 89 85 FFFFFBAC                  	MOV	DWORD [-1108+EBP],EAX
   794 00000762 89 95 FFFFFBD4                  	MOV	DWORD [-1068+EBP],EDX
   795 00000768                                 L73:
   796 00000768 8B 85 FFFFFBA8                  	MOV	EAX,DWORD [-1112+EBP]
   797 0000076E 8B 50 04                        	MOV	EDX,DWORD [4+EAX]
   798 00000771 8D 42 EB                        	LEA	EAX,DWORD [-21+EDX]
   799 00000774 39 D8                           	CMP	EAX,EBX
   800 00000776 0F 8F FFFFFF32                  	JG	L67
   801 0000077C 8D 42 FB                        	LEA	EAX,DWORD [-5+EDX]
   802 0000077F 39 C3                           	CMP	EBX,EAX
   803 00000781 0F 8D FFFFFF27                  	JGE	L67
   804 00000787 83 FE 04                        	CMP	ESI,4
   805 0000078A 0F 8E FFFFFF1E                  	JLE	L67
   806 00000790 83 FE 12                        	CMP	ESI,18
   807 00000793 0F 8F FFFFFF15                  	JG	L67
   808 00000799 8B 95 FFFFFBA8                  	MOV	EDX,DWORD [-1112+EBP]
   809 0000079F F6 42 1C 10                     	TEST	BYTE [28+EDX],16
   810 000007A3 75 4C                           	JNE	L95
   811 000007A5 8B 5A 24                        	MOV	EBX,DWORD [36+EDX]
   812 000007A8 6A FF                           	PUSH	-1
   813 000007AA 52                              	PUSH	EDX
   814 000007AB E8 [00000000]                   	CALL	_sheet_updown
   815 000007B0 FF B5 FFFFFBA4                  	PUSH	DWORD [-1116+EBP]
   816 000007B6 E8 0000058C                     	CALL	_keywin_off
   817 000007BB 8B 95 FFFFFBEC                  	MOV	EDX,DWORD [-1044+EBP]
   818 000007C1 8B 42 10                        	MOV	EAX,DWORD [16+EDX]
   819 000007C4 8B 44 82 10                     	MOV	EAX,DWORD [16+EDX+EAX*4]
   820 000007C8 50                              	PUSH	EAX
   821 000007C9 89 85 FFFFFBA4                  	MOV	DWORD [-1116+EBP],EAX
   822 000007CF E8 000005A1                     	CALL	_keywin_on
   823 000007D4 E8 [00000000]                   	CALL	_io_cli
   824 000007D9 8D 43 10                        	LEA	EAX,DWORD [16+EBX]
   825 000007DC 6A 04                           	PUSH	4
   826 000007DE 50                              	PUSH	EAX
   827 000007DF E8 [00000000]                   	CALL	_fifo32_put
   828 000007E4 E8 [00000000]                   	CALL	_io_sti
   829 000007E9 83 C4 18                        	ADD	ESP,24
   830 000007EC E9 FFFFFEBD                     	JMP	L67
   831 000007F1                                 L95:
   832 000007F1 8B 85 FFFFFBA8                  	MOV	EAX,DWORD [-1112+EBP]
   833 000007F7 8B 58 24                        	MOV	EBX,DWORD [36+EAX]
   834 000007FA 68 [0000010C]                   	PUSH	LC2
   835 000007FF FF B3 00000110                  	PUSH	DWORD [272+EBX]
   836 00000805 E8 [00000000]                   	CALL	_cons_putstr0
   837 0000080A E8 [00000000]                   	CALL	_io_cli
   838 0000080F 8D 43 30                        	LEA	EAX,DWORD [48+EBX]
   839 00000812 89 43 54                        	MOV	DWORD [84+EBX],EAX
   840 00000815 C7 43 4C [00000000]             	MOV	DWORD [76+EBX],_asm_end_app
   841 0000081C E8 [00000000]                   	CALL	_io_sti
   842 00000821 6A 00                           	PUSH	0
   843 00000823 6A FF                           	PUSH	-1
   844 00000825 53                              	PUSH	EBX
   845 00000826 E8 [00000000]                   	CALL	_task_run
   846 0000082B 83 C4 14                        	ADD	ESP,20
   847 0000082E E9 FFFFFE7B                     	JMP	L67
   848 00000833                                 L109:
   849 00000833 C7 85 FFFFFBE4 00000000         	MOV	DWORD [-1052+EBP],0
   850 0000083D E9 FFFFFD1C                     	JMP	L61
   851 00000842                                 L108:
   852 00000842 C7 85 FFFFFBE8 00000000         	MOV	DWORD [-1048+EBP],0
   853 0000084C E9 FFFFFD00                     	JMP	L60
   854 00000851                                 L103:
   855 00000851 81 FA 0000017F                  	CMP	EDX,383
   856 00000857 0F 8F 000003F2                  	JG	L28
   857 0000085D 83 BD FFFFFBC4 00               	CMP	DWORD [-1084+EBP],0
   858 00000864 0F 85 000003DA                  	JNE	L29
   859 0000086A 8A 82 [FFFFFF00]                	MOV	AL,BYTE [_keytable0.0-256+EDX]
   860 00000870                                 L100:
   861 00000870 88 45 C4                        	MOV	BYTE [-60+EBP],AL
   862 00000873                                 L31:
   863 00000873 8A 55 C4                        	MOV	DL,BYTE [-60+EBP]
   864 00000876 8D 42 BF                        	LEA	EAX,DWORD [-65+EDX]
   865 00000879 3C 19                           	CMP	AL,25
   866 0000087B 77 1D                           	JA	L32
   867 0000087D F7 85 FFFFFBC0 00000004         	TEST	DWORD [-1088+EBP],4
   868 00000887 0F 85 000003A8                  	JNE	L94
   869 0000088D 83 BD FFFFFBC4 00               	CMP	DWORD [-1084+EBP],0
   870 00000894 0F 84 00000390                  	JE	L34
   871 0000089A                                 L32:
   872 0000089A 8A 45 C4                        	MOV	AL,BYTE [-60+EBP]
   873 0000089D 84 C0                           	TEST	AL,AL
   874 0000089F 74 26                           	JE	L36
   875 000008A1 83 BD FFFFFBA4 00               	CMP	DWORD [-1116+EBP],0
   876 000008A8 74 1D                           	JE	L36
   877 000008AA 0F BE C0                        	MOVSX	EAX,AL
   878 000008AD 8B 95 FFFFFBA4                  	MOV	EDX,DWORD [-1116+EBP]
   879 000008B3 05 00000100                     	ADD	EAX,256
   880 000008B8 50                              	PUSH	EAX
   881 000008B9 8B 42 24                        	MOV	EAX,DWORD [36+EDX]
   882 000008BC 83 C0 10                        	ADD	EAX,16
   883 000008BF 50                              	PUSH	EAX
   884 000008C0 E8 [00000000]                   	CALL	_fifo32_put
   885 000008C5 58                              	POP	EAX
   886 000008C6 5A                              	POP	EDX
   887 000008C7                                 L36:
   888 000008C7 81 BD FFFFFBF0 0000010F         	CMP	DWORD [-1040+EBP],271
   889 000008D1 0F 84 00000308                  	JE	L113
   890 000008D7                                 L37:
   891 000008D7 8B 85 FFFFFBF0                  	MOV	EAX,DWORD [-1040+EBP]
   892 000008DD 3D 0000012A                     	CMP	EAX,298
   893 000008E2 0F 84 000002EB                  	JE	L114
   894 000008E8                                 L39:
   895 000008E8 3D 00000136                     	CMP	EAX,310
   896 000008ED 0F 84 000002D4                  	JE	L115
   897 000008F3                                 L40:
   898 000008F3 3D 0000011D                     	CMP	EAX,285
   899 000008F8 0F 84 000002BA                  	JE	L116
   900 000008FE                                 L41:
   901 000008FE 3D 0000019D                     	CMP	EAX,413
   902 00000903 0F 84 000002A0                  	JE	L117
   903 00000909                                 L42:
   904 00000909 3D 000001AA                     	CMP	EAX,426
   905 0000090E 0F 84 00000289                  	JE	L118
   906 00000914                                 L43:
   907 00000914 3D 000001B6                     	CMP	EAX,438
   908 00000919 0F 84 00000272                  	JE	L119
   909 0000091F                                 L44:
   910 0000091F 3D 0000013A                     	CMP	EAX,314
   911 00000924 0F 84 0000023E                  	JE	L120
   912 0000092A                                 L45:
   913 0000092A 81 BD FFFFFBF0 00000145         	CMP	DWORD [-1040+EBP],325
   914 00000934 0F 84 00000205                  	JE	L121
   915 0000093A                                 L46:
   916 0000093A 81 BD FFFFFBF0 00000146         	CMP	DWORD [-1040+EBP],326
   917 00000944 0F 84 000001CC                  	JE	L122
   918 0000094A                                 L47:
   919 0000094A 81 BD FFFFFBF0 0000013B         	CMP	DWORD [-1040+EBP],315
   920 00000954 0F 84 0000014E                  	JE	L123
   921 0000095A                                 L48:
   922 0000095A 81 BD FFFFFBF0 0000012E         	CMP	DWORD [-1040+EBP],302
   923 00000964 0F 84 000000D0                  	JE	L124
   924 0000096A                                 L50:
   925 0000096A 81 BD FFFFFBF0 0000013C         	CMP	DWORD [-1040+EBP],316
   926 00000974 74 5E                           	JE	L125
   927 00000976                                 L52:
   928 00000976 81 BD FFFFFBF0 00000157         	CMP	DWORD [-1040+EBP],343
   929 00000980 74 3B                           	JE	L126
   930 00000982                                 L54:
   931 00000982 8B 85 FFFFFBF0                  	MOV	EAX,DWORD [-1040+EBP]
   932 00000988 3D 000001FA                     	CMP	EAX,506
   933 0000098D 74 22                           	JE	L127
   934 0000098F                                 L55:
   935 0000098F 3D 000001FE                     	CMP	EAX,510
   936 00000994 0F 85 FFFFFA13                  	JNE	L14
   937 0000099A E8 [00000000]                   	CALL	_wait_KBC_sendready
   938 0000099F FF B5 FFFFFBBC                  	PUSH	DWORD [-1092+EBP]
   939 000009A5 6A 60                           	PUSH	96
   940 000009A7 E8 [00000000]                   	CALL	_io_out8
   941 000009AC E9 FFFFFAF5                     	JMP	L98
   942 000009B1                                 L127:
   943 000009B1 C7 85 FFFFFBBC FFFFFFFF         	MOV	DWORD [-1092+EBP],-1
   944 000009BB EB D2                           	JMP	L55
   945 000009BD                                 L126:
   946 000009BD 8B 95 FFFFFBEC                  	MOV	EDX,DWORD [-1044+EBP]
   947 000009C3 8B 42 10                        	MOV	EAX,DWORD [16+EDX]
   948 000009C6 48                              	DEC	EAX
   949 000009C7 50                              	PUSH	EAX
   950 000009C8 FF 72 18                        	PUSH	DWORD [24+EDX]
   951 000009CB E8 [00000000]                   	CALL	_sheet_updown
   952 000009D0 5E                              	POP	ESI
   953 000009D1 5F                              	POP	EDI
   954 000009D2 EB AE                           	JMP	L54
   955 000009D4                                 L125:
   956 000009D4 83 BD FFFFFBC4 00               	CMP	DWORD [-1084+EBP],0
   957 000009DB 74 99                           	JE	L52
   958 000009DD 83 BD FFFFFBA4 00               	CMP	DWORD [-1116+EBP],0
   959 000009E4 74 0C                           	JE	L53
   960 000009E6 FF B5 FFFFFBA4                  	PUSH	DWORD [-1116+EBP]
   961 000009EC E8 00000356                     	CALL	_keywin_off
   962 000009F1 58                              	POP	EAX
   963 000009F2                                 L53:
   964 000009F2 FF B5 FFFFFBD0                  	PUSH	DWORD [-1072+EBP]
   965 000009F8 FF B5 FFFFFBEC                  	PUSH	DWORD [-1044+EBP]
   966 000009FE E8 00000446                     	CALL	_open_console
   967 00000A03 6A 04                           	PUSH	4
   968 00000A05 6A 20                           	PUSH	32
   969 00000A07 50                              	PUSH	EAX
   970 00000A08 89 85 FFFFFBA4                  	MOV	DWORD [-1116+EBP],EAX
   971 00000A0E E8 [00000000]                   	CALL	_sheet_slide
   972 00000A13 8B 95 FFFFFBEC                  	MOV	EDX,DWORD [-1044+EBP]
   973 00000A19 FF 72 10                        	PUSH	DWORD [16+EDX]
   974 00000A1C FF B5 FFFFFBA4                  	PUSH	DWORD [-1116+EBP]
   975 00000A22 E8 [00000000]                   	CALL	_sheet_updown
   976 00000A27 FF B5 FFFFFBA4                  	PUSH	DWORD [-1116+EBP]
   977 00000A2D E8 00000343                     	CALL	_keywin_on
   978 00000A32 83 C4 20                        	ADD	ESP,32
   979 00000A35 E9 FFFFFF3C                     	JMP	L52
   980 00000A3A                                 L124:
   981 00000A3A 83 BD FFFFFBB8 00               	CMP	DWORD [-1096+EBP],0
   982 00000A41 0F 84 FFFFFF23                  	JE	L50
   983 00000A47 83 BD FFFFFBA4 00               	CMP	DWORD [-1116+EBP],0
   984 00000A4E 0F 84 FFFFFF16                  	JE	L50
   985 00000A54 8B 85 FFFFFBA4                  	MOV	EAX,DWORD [-1116+EBP]
   986 00000A5A 8B 58 24                        	MOV	EBX,DWORD [36+EAX]
   987 00000A5D 85 DB                           	TEST	EBX,EBX
   988 00000A5F 0F 84 FFFFFF05                  	JE	L50
   989 00000A65 83 7B 34 00                     	CMP	DWORD [52+EBX],0
   990 00000A69 0F 84 FFFFFEFB                  	JE	L50
   991 00000A6F 68 [0000011D]                   	PUSH	LC1
   992 00000A74 FF B3 00000110                  	PUSH	DWORD [272+EBX]
   993 00000A7A E8 [00000000]                   	CALL	_cons_putstr0
   994 00000A7F E8 [00000000]                   	CALL	_io_cli
   995 00000A84 8D 43 30                        	LEA	EAX,DWORD [48+EBX]
   996 00000A87 89 43 54                        	MOV	DWORD [84+EBX],EAX
   997 00000A8A C7 43 4C [00000000]             	MOV	DWORD [76+EBX],_asm_end_app
   998 00000A91 E8 [00000000]                   	CALL	_io_sti
   999 00000A96 6A 00                           	PUSH	0
  1000 00000A98 6A FF                           	PUSH	-1
  1001 00000A9A 53                              	PUSH	EBX
  1002 00000A9B E8 [00000000]                   	CALL	_task_run
  1003 00000AA0 83 C4 14                        	ADD	ESP,20
  1004 00000AA3 E9 FFFFFEC2                     	JMP	L50
  1005 00000AA8                                 L123:
  1006 00000AA8 83 BD FFFFFBC4 00               	CMP	DWORD [-1084+EBP],0
  1007 00000AAF 0F 84 FFFFFEA5                  	JE	L48
  1008 00000AB5 83 BD FFFFFBA4 00               	CMP	DWORD [-1116+EBP],0
  1009 00000ABC 0F 84 FFFFFE98                  	JE	L48
  1010 00000AC2 8B 95 FFFFFBA4                  	MOV	EDX,DWORD [-1116+EBP]
  1011 00000AC8 8B 5A 24                        	MOV	EBX,DWORD [36+EDX]
  1012 00000ACB 85 DB                           	TEST	EBX,EBX
  1013 00000ACD 0F 84 FFFFFE87                  	JE	L48
  1014 00000AD3 83 7B 34 00                     	CMP	DWORD [52+EBX],0
  1015 00000AD7 0F 84 FFFFFE7D                  	JE	L48
  1016 00000ADD 68 [0000011D]                   	PUSH	LC1
  1017 00000AE2 FF B3 00000110                  	PUSH	DWORD [272+EBX]
  1018 00000AE8 E8 [00000000]                   	CALL	_cons_putstr0
  1019 00000AED E8 [00000000]                   	CALL	_io_cli
  1020 00000AF2 8D 43 30                        	LEA	EAX,DWORD [48+EBX]
  1021 00000AF5 89 43 54                        	MOV	DWORD [84+EBX],EAX
  1022 00000AF8 C7 43 4C [00000000]             	MOV	DWORD [76+EBX],_asm_end_app
  1023 00000AFF E8 [00000000]                   	CALL	_io_sti
  1024 00000B04 6A 00                           	PUSH	0
  1025 00000B06 6A FF                           	PUSH	-1
  1026 00000B08 53                              	PUSH	EBX
  1027 00000B09 E8 [00000000]                   	CALL	_task_run
  1028 00000B0E 83 C4 14                        	ADD	ESP,20
  1029 00000B11 E9 FFFFFE44                     	JMP	L48
  1030 00000B16                                 L122:
  1031 00000B16 68 000000ED                     	PUSH	237
  1032 00000B1B 8D 5D 84                        	LEA	EBX,DWORD [-124+EBP]
  1033 00000B1E 53                              	PUSH	EBX
  1034 00000B1F 83 B5 FFFFFBC0 01               	XOR	DWORD [-1088+EBP],1
  1035 00000B26 E8 [00000000]                   	CALL	_fifo32_put
  1036 00000B2B FF B5 FFFFFBC0                  	PUSH	DWORD [-1088+EBP]
  1037 00000B31 53                              	PUSH	EBX
  1038 00000B32 E8 [00000000]                   	CALL	_fifo32_put
  1039 00000B37 83 C4 10                        	ADD	ESP,16
  1040 00000B3A E9 FFFFFE0B                     	JMP	L47
  1041 00000B3F                                 L121:
  1042 00000B3F 68 000000ED                     	PUSH	237
  1043 00000B44 8D 5D 84                        	LEA	EBX,DWORD [-124+EBP]
  1044 00000B47 53                              	PUSH	EBX
  1045 00000B48 83 B5 FFFFFBC0 02               	XOR	DWORD [-1088+EBP],2
  1046 00000B4F E8 [00000000]                   	CALL	_fifo32_put
  1047 00000B54 FF B5 FFFFFBC0                  	PUSH	DWORD [-1088+EBP]
  1048 00000B5A 53                              	PUSH	EBX
  1049 00000B5B E8 [00000000]                   	CALL	_fifo32_put
  1050 00000B60 83 C4 10                        	ADD	ESP,16
  1051 00000B63 E9 FFFFFDD2                     	JMP	L46
  1052 00000B68                                 L120:
  1053 00000B68 68 000000ED                     	PUSH	237
  1054 00000B6D 8D 5D 84                        	LEA	EBX,DWORD [-124+EBP]
  1055 00000B70 53                              	PUSH	EBX
  1056 00000B71 83 B5 FFFFFBC0 04               	XOR	DWORD [-1088+EBP],4
  1057 00000B78 E8 [00000000]                   	CALL	_fifo32_put
  1058 00000B7D FF B5 FFFFFBC0                  	PUSH	DWORD [-1088+EBP]
  1059 00000B83 53                              	PUSH	EBX
  1060 00000B84 E8 [00000000]                   	CALL	_fifo32_put
  1061 00000B89 83 C4 10                        	ADD	ESP,16
  1062 00000B8C E9 FFFFFD99                     	JMP	L45
  1063 00000B91                                 L119:
  1064 00000B91 83 A5 FFFFFBC4 FD               	AND	DWORD [-1084+EBP],-3
  1065 00000B98 E9 FFFFFD82                     	JMP	L44
  1066 00000B9D                                 L118:
  1067 00000B9D 83 A5 FFFFFBC4 FE               	AND	DWORD [-1084+EBP],-2
  1068 00000BA4 E9 FFFFFD6B                     	JMP	L43
  1069 00000BA9                                 L117:
  1070 00000BA9 C7 85 FFFFFBB8 00000000         	MOV	DWORD [-1096+EBP],0
  1071 00000BB3 E9 FFFFFD51                     	JMP	L42
  1072 00000BB8                                 L116:
  1073 00000BB8 C7 85 FFFFFBB8 00000001         	MOV	DWORD [-1096+EBP],1
  1074 00000BC2 E9 FFFFFD37                     	JMP	L41
  1075 00000BC7                                 L115:
  1076 00000BC7 83 8D FFFFFBC4 02               	OR	DWORD [-1084+EBP],2
  1077 00000BCE E9 FFFFFD20                     	JMP	L40
  1078 00000BD3                                 L114:
  1079 00000BD3 83 8D FFFFFBC4 01               	OR	DWORD [-1084+EBP],1
  1080 00000BDA E9 FFFFFD09                     	JMP	L39
  1081 00000BDF                                 L113:
  1082 00000BDF 83 BD FFFFFBA4 00               	CMP	DWORD [-1116+EBP],0
  1083 00000BE6 0F 84 FFFFFCEB                  	JE	L37
  1084 00000BEC FF B5 FFFFFBA4                  	PUSH	DWORD [-1116+EBP]
  1085 00000BF2 E8 00000150                     	CALL	_keywin_off
  1086 00000BF7 58                              	POP	EAX
  1087 00000BF8 8B 85 FFFFFBA4                  	MOV	EAX,DWORD [-1116+EBP]
  1088 00000BFE 8B 48 18                        	MOV	ECX,DWORD [24+EAX]
  1089 00000C01 49                              	DEC	ECX
  1090 00000C02 75 0A                           	JNE	L38
  1091 00000C04 8B 95 FFFFFBEC                  	MOV	EDX,DWORD [-1044+EBP]
  1092 00000C0A 8B 4A 10                        	MOV	ECX,DWORD [16+EDX]
  1093 00000C0D 49                              	DEC	ECX
  1094 00000C0E                                 L38:
  1095 00000C0E 8B 85 FFFFFBEC                  	MOV	EAX,DWORD [-1044+EBP]
  1096 00000C14 8B 4C 88 14                     	MOV	ECX,DWORD [20+EAX+ECX*4]
  1097 00000C18 51                              	PUSH	ECX
  1098 00000C19 89 8D FFFFFBA4                  	MOV	DWORD [-1116+EBP],ECX
  1099 00000C1F E8 00000151                     	CALL	_keywin_on
  1100 00000C24 58                              	POP	EAX
  1101 00000C25 E9 FFFFFCAD                     	JMP	L37
  1102 00000C2A                                 L34:
  1103 00000C2A 8D 42 20                        	LEA	EAX,DWORD [32+EDX]
  1104 00000C2D 88 45 C4                        	MOV	BYTE [-60+EBP],AL
  1105 00000C30 E9 FFFFFC65                     	JMP	L32
  1106 00000C35                                 L94:
  1107 00000C35 83 BD FFFFFBC4 00               	CMP	DWORD [-1084+EBP],0
  1108 00000C3C 0F 84 FFFFFC58                  	JE	L32
  1109 00000C42 EB E6                           	JMP	L34
  1110 00000C44                                 L29:
  1111 00000C44 8A 82 [FFFFFF80]                	MOV	AL,BYTE [_keytable1.1-256+EDX]
  1112 00000C4A E9 FFFFFC21                     	JMP	L100
  1113 00000C4F                                 L28:
  1114 00000C4F C6 45 C4 00                     	MOV	BYTE [-60+EBP],0
  1115 00000C53 E9 FFFFFC1B                     	JMP	L31
  1116 00000C58                                 L102:
  1117 00000C58 83 BD FFFFFBE0 00               	CMP	DWORD [-1056+EBP],0
  1118 00000C5F 79 2B                           	JNS	L128
  1119 00000C61 81 BD FFFFFBD8 7FFFFFFF         	CMP	DWORD [-1064+EBP],2147483647
  1120 00000C6B 75 15                           	JNE	L129
  1121 00000C6D FF B5 FFFFFBC8                  	PUSH	DWORD [-1080+EBP]
  1122 00000C73 E8 [00000000]                   	CALL	_task_sleep
  1123 00000C78 E8 [00000000]                   	CALL	_io_sti
  1124 00000C7D E9 FFFFF875                     	JMP	L96
  1125 00000C82                                 L129:
  1126 00000C82 E8 [00000000]                   	CALL	_io_sti
  1127 00000C87 E9 FFFFF93C                     	JMP	L99
  1128 00000C8C                                 L128:
  1129 00000C8C E8 [00000000]                   	CALL	_io_sti
  1130 00000C91 FF B5 FFFFFBDC                  	PUSH	DWORD [-1060+EBP]
  1131 00000C97 FF B5 FFFFFBE0                  	PUSH	DWORD [-1056+EBP]
  1132 00000C9D FF B5 FFFFFBCC                  	PUSH	DWORD [-1076+EBP]
  1133 00000CA3 E8 [00000000]                   	CALL	_sheet_slide
  1134 00000CA8 C7 85 FFFFFBE0 FFFFFFFF         	MOV	DWORD [-1056+EBP],-1
  1135 00000CB2 E9 FFFFF6F3                     	JMP	L97
  1136 00000CB7                                 L101:
  1137 00000CB7 53                              	PUSH	EBX
  1138 00000CB8 E8 [00000000]                   	CALL	_fifo32_get
  1139 00000CBD 89 85 FFFFFBBC                  	MOV	DWORD [-1092+EBP],EAX
  1140 00000CC3 E8 [00000000]                   	CALL	_wait_KBC_sendready
  1141 00000CC8 FF B5 FFFFFBBC                  	PUSH	DWORD [-1092+EBP]
  1142 00000CCE 6A 60                           	PUSH	96
  1143 00000CD0 E8 [00000000]                   	CALL	_io_out8
  1144 00000CD5 83 C4 0C                        	ADD	ESP,12
  1145 00000CD8 E9 FFFFF6EB                     	JMP	L17
  1146 00000CDD                                 L2:
  1147 00000CDD 68 00023840                     	PUSH	145472
  1148 00000CE2 68 003C0000                     	PUSH	3932160
  1149 00000CE7 E8 [00000000]                   	CALL	_memman_alloc_4k
  1150 00000CEC 89 C1                           	MOV	ECX,EAX
  1151 00000CEE 58                              	POP	EAX
  1152 00000CEF 5A                              	POP	EDX
  1153 00000CF0 31 D2                           	XOR	EDX,EDX
  1154 00000CF2 C7 85 FFFFFBF0 00000000         	MOV	DWORD [-1040+EBP],0
  1155 00000CFC                                 L8:
  1156 00000CFC 8A 82 [00000000]                	MOV	AL,BYTE [_hankaku+EDX]
  1157 00000D02 88 04 0A                        	MOV	BYTE [EDX+ECX*1],AL
  1158 00000D05 8B 85 FFFFFBF0                  	MOV	EAX,DWORD [-1040+EBP]
  1159 00000D0B 40                              	INC	EAX
  1160 00000D0C 89 85 FFFFFBF0                  	MOV	DWORD [-1040+EBP],EAX
  1161 00000D12 89 C2                           	MOV	EDX,EAX
  1162 00000D14 3D 00000FFF                     	CMP	EAX,4095
  1163 00000D19 7E E1                           	JLE	L8
  1164 00000D1B C7 85 FFFFFBF0 00001000         	MOV	DWORD [-1040+EBP],4096
  1165 00000D25 B8 00001000                     	MOV	EAX,4096
  1166 00000D2A                                 L13:
  1167 00000D2A C6 04 08 FF                     	MOV	BYTE [EAX+ECX*1],-1
  1168 00000D2E 8B 85 FFFFFBF0                  	MOV	EAX,DWORD [-1040+EBP]
  1169 00000D34 40                              	INC	EAX
  1170 00000D35 89 85 FFFFFBF0                  	MOV	DWORD [-1040+EBP],EAX
  1171 00000D3B 3D 0002383F                     	CMP	EAX,145471
  1172 00000D40 7E E8                           	JLE	L13
  1173 00000D42 E9 FFFFF648                     	JMP	L3
  1174 00000D47                                 	GLOBAL	_keywin_off
  1175 00000D47                                 _keywin_off:
  1176 00000D47 55                              	PUSH	EBP
  1177 00000D48 89 E5                           	MOV	EBP,ESP
  1178 00000D4A 53                              	PUSH	EBX
  1179 00000D4B 6A 00                           	PUSH	0
  1180 00000D4D 8B 5D 08                        	MOV	EBX,DWORD [8+EBP]
  1181 00000D50 53                              	PUSH	EBX
  1182 00000D51 E8 [00000000]                   	CALL	_change_wtitle8
  1183 00000D56 F6 43 1C 20                     	TEST	BYTE [28+EBX],32
  1184 00000D5A 58                              	POP	EAX
  1185 00000D5B 5A                              	POP	EDX
  1186 00000D5C 75 05                           	JNE	L132
  1187 00000D5E                                 L130:
  1188 00000D5E 8B 5D FC                        	MOV	EBX,DWORD [-4+EBP]
  1189 00000D61 C9                              	LEAVE
  1190 00000D62 C3                              	RET
  1191 00000D63                                 L132:
  1192 00000D63 6A 03                           	PUSH	3
  1193 00000D65 8B 43 24                        	MOV	EAX,DWORD [36+EBX]
  1194 00000D68 83 C0 10                        	ADD	EAX,16
  1195 00000D6B 50                              	PUSH	EAX
  1196 00000D6C E8 [00000000]                   	CALL	_fifo32_put
  1197 00000D71 59                              	POP	ECX
  1198 00000D72 5B                              	POP	EBX
  1199 00000D73 EB E9                           	JMP	L130
  1200 00000D75                                 	GLOBAL	_keywin_on
  1201 00000D75                                 _keywin_on:
  1202 00000D75 55                              	PUSH	EBP
  1203 00000D76 89 E5                           	MOV	EBP,ESP
  1204 00000D78 53                              	PUSH	EBX
  1205 00000D79 6A 01                           	PUSH	1
  1206 00000D7B 8B 5D 08                        	MOV	EBX,DWORD [8+EBP]
  1207 00000D7E 53                              	PUSH	EBX
  1208 00000D7F E8 [00000000]                   	CALL	_change_wtitle8
  1209 00000D84 F6 43 1C 20                     	TEST	BYTE [28+EBX],32
  1210 00000D88 58                              	POP	EAX
  1211 00000D89 5A                              	POP	EDX
  1212 00000D8A 75 05                           	JNE	L135
  1213 00000D8C                                 L133:
  1214 00000D8C 8B 5D FC                        	MOV	EBX,DWORD [-4+EBP]
  1215 00000D8F C9                              	LEAVE
  1216 00000D90 C3                              	RET
  1217 00000D91                                 L135:
  1218 00000D91 6A 02                           	PUSH	2
  1219 00000D93 8B 43 24                        	MOV	EAX,DWORD [36+EBX]
  1220 00000D96 83 C0 10                        	ADD	EAX,16
  1221 00000D99 50                              	PUSH	EAX
  1222 00000D9A E8 [00000000]                   	CALL	_fifo32_put
  1223 00000D9F 59                              	POP	ECX
  1224 00000DA0 5B                              	POP	EBX
  1225 00000DA1 EB E9                           	JMP	L133
  1226 00000DA3                                 	GLOBAL	_open_constask
  1227 00000DA3                                 _open_constask:
  1228 00000DA3 55                              	PUSH	EBP
  1229 00000DA4 89 E5                           	MOV	EBP,ESP
  1230 00000DA6 56                              	PUSH	ESI
  1231 00000DA7 53                              	PUSH	EBX
  1232 00000DA8 E8 [00000000]                   	CALL	_task_alloc
  1233 00000DAD 68 00000200                     	PUSH	512
  1234 00000DB2 68 003C0000                     	PUSH	3932160
  1235 00000DB7 89 C3                           	MOV	EBX,EAX
  1236 00000DB9 E8 [00000000]                   	CALL	_memman_alloc_4k
  1237 00000DBE 68 00010000                     	PUSH	65536
  1238 00000DC3 68 003C0000                     	PUSH	3932160
  1239 00000DC8 89 C6                           	MOV	ESI,EAX
  1240 00000DCA E8 [00000000]                   	CALL	_memman_alloc_4k
  1241 00000DCF 8B 55 08                        	MOV	EDX,DWORD [8+EBP]
  1242 00000DD2 C7 43 4C [00000000]             	MOV	DWORD [76+EBX],_console_task
  1243 00000DD9 89 83 00000118                  	MOV	DWORD [280+EBX],EAX
  1244 00000DDF 05 0000FFF4                     	ADD	EAX,65524
  1245 00000DE4 89 43 64                        	MOV	DWORD [100+EBX],EAX
  1246 00000DE7 C7 43 74 00000008               	MOV	DWORD [116+EBX],8
  1247 00000DEE C7 43 78 00000010               	MOV	DWORD [120+EBX],16
  1248 00000DF5 C7 43 7C 00000008               	MOV	DWORD [124+EBX],8
  1249 00000DFC C7 83 00000080 00000008         	MOV	DWORD [128+EBX],8
  1250 00000E06 C7 83 00000084 00000008         	MOV	DWORD [132+EBX],8
  1251 00000E10 C7 83 00000088 00000008         	MOV	DWORD [136+EBX],8
  1252 00000E1A 89 50 04                        	MOV	DWORD [4+EAX],EDX
  1253 00000E1D 8B 53 64                        	MOV	EDX,DWORD [100+EBX]
  1254 00000E20 8B 45 0C                        	MOV	EAX,DWORD [12+EBP]
  1255 00000E23 89 42 08                        	MOV	DWORD [8+EDX],EAX
  1256 00000E26 6A 02                           	PUSH	2
  1257 00000E28 6A 02                           	PUSH	2
  1258 00000E2A 53                              	PUSH	EBX
  1259 00000E2B E8 [00000000]                   	CALL	_task_run
  1260 00000E30 8D 43 10                        	LEA	EAX,DWORD [16+EBX]
  1261 00000E33 53                              	PUSH	EBX
  1262 00000E34 56                              	PUSH	ESI
  1263 00000E35 68 00000080                     	PUSH	128
  1264 00000E3A 50                              	PUSH	EAX
  1265 00000E3B E8 [00000000]                   	CALL	_fifo32_init
  1266 00000E40 8D 65 F8                        	LEA	ESP,DWORD [-8+EBP]
  1267 00000E43 89 D8                           	MOV	EAX,EBX
  1268 00000E45 5B                              	POP	EBX
  1269 00000E46 5E                              	POP	ESI
  1270 00000E47 5D                              	POP	EBP
  1271 00000E48 C3                              	RET
  1272                                          [SECTION .data]
  1273 0000012C                                 LC3:
  1274 0000012C 63 6F 6E 73 6F 6C 65 00         	DB	"console",0x00
  1275                                          [SECTION .text]
  1276 00000E49                                 	GLOBAL	_open_console
  1277 00000E49                                 _open_console:
  1278 00000E49 55                              	PUSH	EBP
  1279 00000E4A 89 E5                           	MOV	EBP,ESP
  1280 00000E4C 56                              	PUSH	ESI
  1281 00000E4D 53                              	PUSH	EBX
  1282 00000E4E FF 75 08                        	PUSH	DWORD [8+EBP]
  1283 00000E51 E8 [00000000]                   	CALL	_sheet_alloc
  1284 00000E56 68 0000A500                     	PUSH	42240
  1285 00000E5B 68 003C0000                     	PUSH	3932160
  1286 00000E60 89 C3                           	MOV	EBX,EAX
  1287 00000E62 E8 [00000000]                   	CALL	_memman_alloc_4k
  1288 00000E67 6A FF                           	PUSH	-1
  1289 00000E69 68 000000A5                     	PUSH	165
  1290 00000E6E 89 C6                           	MOV	ESI,EAX
  1291 00000E70 68 00000100                     	PUSH	256
  1292 00000E75 50                              	PUSH	EAX
  1293 00000E76 53                              	PUSH	EBX
  1294 00000E77 E8 [00000000]                   	CALL	_sheet_setbuf
  1295 00000E7C 83 C4 20                        	ADD	ESP,32
  1296 00000E7F 6A 00                           	PUSH	0
  1297 00000E81 68 [0000012C]                   	PUSH	LC3
  1298 00000E86 68 000000A5                     	PUSH	165
  1299 00000E8B 68 00000100                     	PUSH	256
  1300 00000E90 56                              	PUSH	ESI
  1301 00000E91 E8 [00000000]                   	CALL	_make_window8
  1302 00000E96 6A 00                           	PUSH	0
  1303 00000E98 68 00000080                     	PUSH	128
  1304 00000E9D 68 000000F0                     	PUSH	240
  1305 00000EA2 6A 1C                           	PUSH	28
  1306 00000EA4 6A 08                           	PUSH	8
  1307 00000EA6 53                              	PUSH	EBX
  1308 00000EA7 E8 [00000000]                   	CALL	_make_textbox8
  1309 00000EAC 83 C4 2C                        	ADD	ESP,44
  1310 00000EAF FF 75 0C                        	PUSH	DWORD [12+EBP]
  1311 00000EB2 53                              	PUSH	EBX
  1312 00000EB3 E8 FFFFFEEB                     	CALL	_open_constask
  1313 00000EB8 83 4B 1C 20                     	OR	DWORD [28+EBX],32
  1314 00000EBC 89 43 24                        	MOV	DWORD [36+EBX],EAX
  1315 00000EBF 8D 65 F8                        	LEA	ESP,DWORD [-8+EBP]
  1316 00000EC2 89 D8                           	MOV	EAX,EBX
  1317 00000EC4 5B                              	POP	EBX
  1318 00000EC5 5E                              	POP	ESI
  1319 00000EC6 5D                              	POP	EBP
  1320 00000EC7 C3                              	RET
  1321 00000EC8                                 	GLOBAL	_close_constask
  1322 00000EC8                                 _close_constask:
  1323 00000EC8 55                              	PUSH	EBP
  1324 00000EC9 89 E5                           	MOV	EBP,ESP
  1325 00000ECB 53                              	PUSH	EBX
  1326 00000ECC 8B 5D 08                        	MOV	EBX,DWORD [8+EBP]
  1327 00000ECF 53                              	PUSH	EBX
  1328 00000ED0 E8 [00000000]                   	CALL	_task_sleep
  1329 00000ED5 68 00010000                     	PUSH	65536
  1330 00000EDA FF B3 00000118                  	PUSH	DWORD [280+EBX]
  1331 00000EE0 68 003C0000                     	PUSH	3932160
  1332 00000EE5 E8 [00000000]                   	CALL	_memman_free_4k
  1333 00000EEA 68 00000200                     	PUSH	512
  1334 00000EEF FF 73 10                        	PUSH	DWORD [16+EBX]
  1335 00000EF2 68 003C0000                     	PUSH	3932160
  1336 00000EF7 E8 [00000000]                   	CALL	_memman_free_4k
  1337 00000EFC C7 43 04 00000000               	MOV	DWORD [4+EBX],0
  1338 00000F03 8B 5D FC                        	MOV	EBX,DWORD [-4+EBP]
  1339 00000F06 C9                              	LEAVE
  1340 00000F07 C3                              	RET
  1341 00000F08                                 	GLOBAL	_close_console
  1342 00000F08                                 _close_console:
  1343 00000F08 55                              	PUSH	EBP
  1344 00000F09 89 E5                           	MOV	EBP,ESP
  1345 00000F0B 56                              	PUSH	ESI
  1346 00000F0C 53                              	PUSH	EBX
  1347 00000F0D 8B 5D 08                        	MOV	EBX,DWORD [8+EBP]
  1348 00000F10 8B 73 24                        	MOV	ESI,DWORD [36+EBX]
  1349 00000F13 68 0000A500                     	PUSH	42240
  1350 00000F18 FF 33                           	PUSH	DWORD [EBX]
  1351 00000F1A 68 003C0000                     	PUSH	3932160
  1352 00000F1F E8 [00000000]                   	CALL	_memman_free_4k
  1353 00000F24 53                              	PUSH	EBX
  1354 00000F25 E8 [00000000]                   	CALL	_sheet_free
  1355 00000F2A 56                              	PUSH	ESI
  1356 00000F2B E8 FFFFFF98                     	CALL	_close_constask
  1357 00000F30 E8 [00000000]                   	CALL	_io_cli
  1358 00000F35 83 C4 14                        	ADD	ESP,20
  1359 00000F38 A1 [00000000]                   	MOV	EAX,DWORD [_taskctl]
  1360 00000F3D C7 46 04 00000000               	MOV	DWORD [4+ESI],0
  1361 00000F44 39 70 04                        	CMP	DWORD [4+EAX],ESI
  1362 00000F47 74 0B                           	JE	L141
  1363 00000F49                                 L140:
  1364 00000F49 8D 65 F8                        	LEA	ESP,DWORD [-8+EBP]
  1365 00000F4C 5B                              	POP	EBX
  1366 00000F4D 5E                              	POP	ESI
  1367 00000F4E 5D                              	POP	EBP
  1368 00000F4F E9 [00000000]                   	JMP	_io_sti
  1369 00000F54                                 L141:
  1370 00000F54 C7 40 04 00000000               	MOV	DWORD [4+EAX],0
  1371 00000F5B EB EC                           	JMP	L140
  1372                                          [SECTION .data]
  1373 00000134                                 LC4:
  1374 00000134 25 30 32 58 3A 25 30 32 58 00   	DB	"%02X:%02X",0x00
  1375                                          [SECTION .text]
  1376 00000F5D                                 	GLOBAL	_printtime2
  1377 00000F5D                                 _printtime2:
  1378 00000F5D 55                              	PUSH	EBP
  1379 00000F5E 89 E5                           	MOV	EBP,ESP
  1380 00000F60 57                              	PUSH	EDI
  1381 00000F61 56                              	PUSH	ESI
  1382 00000F62 53                              	PUSH	EBX
  1383 00000F63 83 EC 58                        	SUB	ESP,88
  1384 00000F66 E8 [00000000]                   	CALL	_task_now
  1385 00000F6B 0F BF 15 00000FF4               	MOVSX	EDX,WORD [4084]
  1386 00000F72 89 45 C0                        	MOV	DWORD [-64+EBP],EAX
  1387 00000F75 89 55 B8                        	MOV	DWORD [-72+EBP],EDX
  1388 00000F78 A1 00000FF8                     	MOV	EAX,DWORD [4088]
  1389 00000F7D 89 45 BC                        	MOV	DWORD [-68+EBP],EAX
  1390 00000F80 0F BF 05 00000FF6               	MOVSX	EAX,WORD [4086]
  1391 00000F87 89 45 B4                        	MOV	DWORD [-76+EBP],EAX
  1392 00000F8A 8D 45 C4                        	LEA	EAX,DWORD [-60+EBP]
  1393 00000F8D 50                              	PUSH	EAX
  1394 00000F8E E8 [00000000]                   	CALL	_readrtc
  1395 00000F93 8D 55 D4                        	LEA	EDX,DWORD [-44+EBP]
  1396 00000F96 0F B6 45 C5                     	MOVZX	EAX,BYTE [-59+EBP]
  1397 00000F9A 50                              	PUSH	EAX
  1398 00000F9B 0F B6 45 C6                     	MOVZX	EAX,BYTE [-58+EBP]
  1399 00000F9F 50                              	PUSH	EAX
  1400 00000FA0 68 [00000134]                   	PUSH	LC4
  1401 00000FA5 52                              	PUSH	EDX
  1402 00000FA6 E8 [00000000]                   	CALL	_sprintf
  1403 00000FAB 8B 55 B8                        	MOV	EDX,DWORD [-72+EBP]
  1404 00000FAE 8B 45 B4                        	MOV	EAX,DWORD [-76+EBP]
  1405 00000FB1 4A                              	DEC	EDX
  1406 00000FB2 83 E8 1C                        	SUB	EAX,28
  1407 00000FB5 89 55 B0                        	MOV	DWORD [-80+EBP],EDX
  1408 00000FB8 50                              	PUSH	EAX
  1409 00000FB9 52                              	PUSH	EDX
  1410 00000FBA 50                              	PUSH	EAX
  1411 00000FBB 6A 00                           	PUSH	0
  1412 00000FBD 6A 08                           	PUSH	8
  1413 00000FBF FF 75 B8                        	PUSH	DWORD [-72+EBP]
  1414 00000FC2 FF 75 BC                        	PUSH	DWORD [-68+EBP]
  1415 00000FC5 E8 [00000000]                   	CALL	_boxfill8
  1416 00000FCA 8B 45 B4                        	MOV	EAX,DWORD [-76+EBP]
  1417 00000FCD 83 C4 30                        	ADD	ESP,48
  1418 00000FD0 83 E8 1B                        	SUB	EAX,27
  1419 00000FD3 50                              	PUSH	EAX
  1420 00000FD4 FF 75 B0                        	PUSH	DWORD [-80+EBP]
  1421 00000FD7 50                              	PUSH	EAX
  1422 00000FD8 6A 00                           	PUSH	0
  1423 00000FDA 6A 07                           	PUSH	7
  1424 00000FDC FF 75 B8                        	PUSH	DWORD [-72+EBP]
  1425 00000FDF FF 75 BC                        	PUSH	DWORD [-68+EBP]
  1426 00000FE2 E8 [00000000]                   	CALL	_boxfill8
  1427 00000FE7 8B 45 B4                        	MOV	EAX,DWORD [-76+EBP]
  1428 00000FEA 48                              	DEC	EAX
  1429 00000FEB 50                              	PUSH	EAX
  1430 00000FEC 89 45 AC                        	MOV	DWORD [-84+EBP],EAX
  1431 00000FEF 8B 45 B4                        	MOV	EAX,DWORD [-76+EBP]
  1432 00000FF2 FF 75 B0                        	PUSH	DWORD [-80+EBP]
  1433 00000FF5 83 E8 1A                        	SUB	EAX,26
  1434 00000FF8 50                              	PUSH	EAX
  1435 00000FF9 6A 00                           	PUSH	0
  1436 00000FFB 6A 08                           	PUSH	8
  1437 00000FFD FF 75 B8                        	PUSH	DWORD [-72+EBP]
  1438 00001000 FF 75 BC                        	PUSH	DWORD [-68+EBP]
  1439 00001003 E8 [00000000]                   	CALL	_boxfill8
  1440 00001008 8B 7D B4                        	MOV	EDI,DWORD [-76+EBP]
  1441 0000100B 83 C4 38                        	ADD	ESP,56
  1442 0000100E 83 EF 18                        	SUB	EDI,24
  1443 00001011 57                              	PUSH	EDI
  1444 00001012 6A 3B                           	PUSH	59
  1445 00001014 57                              	PUSH	EDI
  1446 00001015 6A 03                           	PUSH	3
  1447 00001017 6A 07                           	PUSH	7
  1448 00001019 FF 75 B8                        	PUSH	DWORD [-72+EBP]
  1449 0000101C FF 75 BC                        	PUSH	DWORD [-68+EBP]
  1450 0000101F E8 [00000000]                   	CALL	_boxfill8
  1451 00001024 8B 55 B4                        	MOV	EDX,DWORD [-76+EBP]
  1452 00001027 83 EA 04                        	SUB	EDX,4
  1453 0000102A 52                              	PUSH	EDX
  1454 0000102B 89 55 A8                        	MOV	DWORD [-88+EBP],EDX
  1455 0000102E 6A 02                           	PUSH	2
  1456 00001030 57                              	PUSH	EDI
  1457 00001031 6A 02                           	PUSH	2
  1458 00001033 6A 07                           	PUSH	7
  1459 00001035 FF 75 B8                        	PUSH	DWORD [-72+EBP]
  1460 00001038 FF 75 BC                        	PUSH	DWORD [-68+EBP]
  1461 0000103B E8 [00000000]                   	CALL	_boxfill8
  1462 00001040 83 C4 38                        	ADD	ESP,56
  1463 00001043 FF 75 A8                        	PUSH	DWORD [-88+EBP]
  1464 00001046 6A 3B                           	PUSH	59
  1465 00001048 FF 75 A8                        	PUSH	DWORD [-88+EBP]
  1466 0000104B 6A 03                           	PUSH	3
  1467 0000104D 6A 0F                           	PUSH	15
  1468 0000104F FF 75 B8                        	PUSH	DWORD [-72+EBP]
  1469 00001052 FF 75 BC                        	PUSH	DWORD [-68+EBP]
  1470 00001055 E8 [00000000]                   	CALL	_boxfill8
  1471 0000105A 8B 45 B4                        	MOV	EAX,DWORD [-76+EBP]
  1472 0000105D 83 E8 05                        	SUB	EAX,5
  1473 00001060 50                              	PUSH	EAX
  1474 00001061 8B 45 B4                        	MOV	EAX,DWORD [-76+EBP]
  1475 00001064 83 E8 17                        	SUB	EAX,23
  1476 00001067 6A 3B                           	PUSH	59
  1477 00001069 50                              	PUSH	EAX
  1478 0000106A 89 45 A4                        	MOV	DWORD [-92+EBP],EAX
  1479 0000106D 6A 3B                           	PUSH	59
  1480 0000106F 6A 0F                           	PUSH	15
  1481 00001071 FF 75 B8                        	PUSH	DWORD [-72+EBP]
  1482 00001074 FF 75 BC                        	PUSH	DWORD [-68+EBP]
  1483 00001077 E8 [00000000]                   	CALL	_boxfill8
  1484 0000107C 8B 55 B4                        	MOV	EDX,DWORD [-76+EBP]
  1485 0000107F 83 C4 38                        	ADD	ESP,56
  1486 00001082 83 EA 03                        	SUB	EDX,3
  1487 00001085 89 55 A0                        	MOV	DWORD [-96+EBP],EDX
  1488 00001088 52                              	PUSH	EDX
  1489 00001089 6A 3B                           	PUSH	59
  1490 0000108B 52                              	PUSH	EDX
  1491 0000108C 6A 02                           	PUSH	2
  1492 0000108E 6A 00                           	PUSH	0
  1493 00001090 FF 75 B8                        	PUSH	DWORD [-72+EBP]
  1494 00001093 FF 75 BC                        	PUSH	DWORD [-68+EBP]
  1495 00001096 E8 [00000000]                   	CALL	_boxfill8
  1496 0000109B FF 75 A0                        	PUSH	DWORD [-96+EBP]
  1497 0000109E 6A 3C                           	PUSH	60
  1498 000010A0 57                              	PUSH	EDI
  1499 000010A1 6A 3C                           	PUSH	60
  1500 000010A3 6A 00                           	PUSH	0
  1501 000010A5 FF 75 B8                        	PUSH	DWORD [-72+EBP]
  1502 000010A8 FF 75 BC                        	PUSH	DWORD [-68+EBP]
  1503 000010AB E8 [00000000]                   	CALL	_boxfill8
  1504 000010B0 8B 75 B8                        	MOV	ESI,DWORD [-72+EBP]
  1505 000010B3 83 C4 38                        	ADD	ESP,56
  1506 000010B6 83 EE 2F                        	SUB	ESI,47
  1507 000010B9 57                              	PUSH	EDI
  1508 000010BA 56                              	PUSH	ESI
  1509 000010BB 57                              	PUSH	EDI
  1510 000010BC 56                              	PUSH	ESI
  1511 000010BD 6A 0F                           	PUSH	15
  1512 000010BF FF 75 B8                        	PUSH	DWORD [-72+EBP]
  1513 000010C2 FF 75 BC                        	PUSH	DWORD [-68+EBP]
  1514 000010C5 E8 [00000000]                   	CALL	_boxfill8
  1515 000010CA 8B 5D B8                        	MOV	EBX,DWORD [-72+EBP]
  1516 000010CD 57                              	PUSH	EDI
  1517 000010CE 83 EB 04                        	SUB	EBX,4
  1518 000010D1 53                              	PUSH	EBX
  1519 000010D2 57                              	PUSH	EDI
  1520 000010D3 56                              	PUSH	ESI
  1521 000010D4 6A 0F                           	PUSH	15
  1522 000010D6 FF 75 B8                        	PUSH	DWORD [-72+EBP]
  1523 000010D9 FF 75 BC                        	PUSH	DWORD [-68+EBP]
  1524 000010DC E8 [00000000]                   	CALL	_boxfill8
  1525 000010E1 83 C4 38                        	ADD	ESP,56
  1526 000010E4 FF 75 A8                        	PUSH	DWORD [-88+EBP]
  1527 000010E7 56                              	PUSH	ESI
  1528 000010E8 FF 75 A4                        	PUSH	DWORD [-92+EBP]
  1529 000010EB 56                              	PUSH	ESI
  1530 000010EC 6A 0F                           	PUSH	15
  1531 000010EE FF 75 B8                        	PUSH	DWORD [-72+EBP]
  1532 000010F1 FF 75 BC                        	PUSH	DWORD [-68+EBP]
  1533 000010F4 E8 [00000000]                   	CALL	_boxfill8
  1534 000010F9 FF 75 A0                        	PUSH	DWORD [-96+EBP]
  1535 000010FC 53                              	PUSH	EBX
  1536 000010FD FF 75 A0                        	PUSH	DWORD [-96+EBP]
  1537 00001100 56                              	PUSH	ESI
  1538 00001101 6A 07                           	PUSH	7
  1539 00001103 FF 75 B8                        	PUSH	DWORD [-72+EBP]
  1540 00001106 FF 75 BC                        	PUSH	DWORD [-68+EBP]
  1541 00001109 E8 [00000000]                   	CALL	_boxfill8
  1542 0000110E 8B 45 B8                        	MOV	EAX,DWORD [-72+EBP]
  1543 00001111 83 C4 38                        	ADD	ESP,56
  1544 00001114 83 E8 03                        	SUB	EAX,3
  1545 00001117 FF 75 A0                        	PUSH	DWORD [-96+EBP]
  1546 0000111A 50                              	PUSH	EAX
  1547 0000111B 57                              	PUSH	EDI
  1548 0000111C 50                              	PUSH	EAX
  1549 0000111D 6A 07                           	PUSH	7
  1550 0000111F FF 75 B8                        	PUSH	DWORD [-72+EBP]
  1551 00001122 FF 75 BC                        	PUSH	DWORD [-68+EBP]
  1552 00001125 E8 [00000000]                   	CALL	_boxfill8
  1553 0000112A 8D 45 D4                        	LEA	EAX,DWORD [-44+EBP]
  1554 0000112D 50                              	PUSH	EAX
  1555 0000112E 8B 45 B4                        	MOV	EAX,DWORD [-76+EBP]
  1556 00001131 6A 07                           	PUSH	7
  1557 00001133 83 E8 16                        	SUB	EAX,22
  1558 00001136 50                              	PUSH	EAX
  1559 00001137 8B 45 B8                        	MOV	EAX,DWORD [-72+EBP]
  1560 0000113A 83 E8 2E                        	SUB	EAX,46
  1561 0000113D 50                              	PUSH	EAX
  1562 0000113E FF 75 B8                        	PUSH	DWORD [-72+EBP]
  1563 00001141 FF 75 BC                        	PUSH	DWORD [-68+EBP]
  1564 00001144 E8 [00000000]                   	CALL	_putfonts8_asc
  1565 00001149 8B 55 B8                        	MOV	EDX,DWORD [-72+EBP]
  1566 0000114C 83 C4 34                        	ADD	ESP,52
  1567 0000114F 8B 45 B4                        	MOV	EAX,DWORD [-76+EBP]
  1568 00001152 FF 75 AC                        	PUSH	DWORD [-84+EBP]
  1569 00001155 FF 75 B0                        	PUSH	DWORD [-80+EBP]
  1570 00001158 83 E8 19                        	SUB	EAX,25
  1571 0000115B 83 EA 30                        	SUB	EDX,48
  1572 0000115E 50                              	PUSH	EAX
  1573 0000115F 52                              	PUSH	EDX
  1574 00001160 8B 55 C0                        	MOV	EDX,DWORD [-64+EBP]
  1575 00001163 8B 82 00000110                  	MOV	EAX,DWORD [272+EDX]
  1576 00001169 FF 30                           	PUSH	DWORD [EAX]
  1577 0000116B E8 [00000000]                   	CALL	_sheet_refresh
  1578 00001170 8D 65 F4                        	LEA	ESP,DWORD [-12+EBP]
  1579 00001173 5B                              	POP	EBX
  1580 00001174 5E                              	POP	ESI
  1581 00001175 5F                              	POP	EDI
  1582 00001176 5D                              	POP	EBP
  1583 00001177 C3                              	RET
