     1 00000000                                 [FORMAT "WCOFF"]
     2 00000000                                 [INSTRSET "i486p"]
     3 00000000                                 [OPTIMIZE 1]
     4 00000000                                 [OPTION 1]
     5 00000000                                 [BITS 32]
     6 00000000                                 	EXTERN	_adr.0
     7 00000000                                 	EXTERN	_io_out8
     8 00000000                                 	EXTERN	_io_in8
     9 00000000                                 	EXTERN	_max.1
    10 00000000                                 	EXTERN	_sprintf
    11 00000000                                 	EXTERN	_dDevs
    12 00000000                                 	EXTERN	_message_send
    13 00000000                                 	EXTERN	_message_receive
    14 00000000                                 	EXTERN	_task_now
    15 00000000                                 	EXTERN	_memman_alloc_4k
    16 00000000                                 	EXTERN	_timer_alloc
    17 00000000                                 	EXTERN	_timer_init
    18 00000000                                 	EXTERN	_timer_settime
    19 00000000                                 	EXTERN	_file_readfat
    20 00000000                                 	EXTERN	_io_cli
    21 00000000                                 	EXTERN	_fifo32_status
    22 00000000                                 	EXTERN	_fifo32_get
    23 00000000                                 	EXTERN	_io_sti
    24 00000000                                 	EXTERN	_boxfill8
    25 00000000                                 	EXTERN	_sheet_refresh
    26 00000000                                 	EXTERN	_task_sleep
    27 00000000                                 	EXTERN	_putfonts8_asc_sht
    28 00000000                                 	EXTERN	_memman_total
    29 00000000                                 	EXTERN	_timer_cancel
    30 00000000                                 	EXTERN	_memman_free_4k
    31 00000000                                 	EXTERN	_fifo32_put
    32 00000000                                 	EXTERN	_taskctl
    33 00000000                                 	EXTERN	_open_console
    34 00000000                                 	EXTERN	_sheet_slide
    35 00000000                                 	EXTERN	_sheet_updown
    36 00000000                                 	EXTERN	_open_constask
    37 00000000                                 	EXTERN	_file_search
    38 00000000                                 	EXTERN	_file_loadfile2
    39 00000000                                 	EXTERN	_set_segmdesc
    40 00000000                                 	EXTERN	_start_app
    41 00000000                                 	EXTERN	_timer_cancelall
    42 00000000                                 	EXTERN	_sheet_free
    43 00000000                                 	EXTERN	_timer_free
    44 00000000                                 	EXTERN	_memman_free
    45 00000000                                 	EXTERN	_memman_alloc
    46 00000000                                 	EXTERN	_memman_init
    47 00000000                                 	EXTERN	_putfonts8_asc
    48 00000000                                 	EXTERN	_sheet_alloc
    49 00000000                                 	EXTERN	_sheet_setbuf
    50 00000000                                 	EXTERN	_make_window8
    51 00000000                                 	EXTERN	_VEcode
    52 00000000                                 [FILE "console.c"]
    53                                          [SECTION .data]
    54 00000000                                 _adr.0:
    55 00000000 00                              	DB	0
    56 00000001 02                              	DB	2
    57 00000002 04                              	DB	4
    58 00000003 07                              	DB	7
    59 00000004 08                              	DB	8
    60 00000005 09                              	DB	9
    61 00000006 32                              	DB	50
    62 00000007                                 _max.1:
    63 00000007 60                              	DB	96
    64 00000008 59                              	DB	89
    65 00000009 23                              	DB	35
    66 0000000A 31                              	DB	49
    67 0000000B 12                              	DB	18
    68 0000000C 99                              	DB	-103
    69 0000000D 99                              	DB	-103
    70                                          [SECTION .text]
    71 00000000                                 	GLOBAL	_readrtc
    72 00000000                                 _readrtc:
    73 00000000 55                              	PUSH	EBP
    74 00000001 89 E5                           	MOV	EBP,ESP
    75 00000003 57                              	PUSH	EDI
    76 00000004 56                              	PUSH	ESI
    77 00000005 53                              	PUSH	EBX
    78 00000006 50                              	PUSH	EAX
    79 00000007 8B 7D 08                        	MOV	EDI,DWORD [8+EBP]
    80 0000000A                                 L2:
    81 0000000A C6 45 F3 00                     	MOV	BYTE [-13+EBP],0
    82 0000000E 31 F6                           	XOR	ESI,ESI
    83 00000010                                 L9:
    84 00000010 0F B6 86 [00000000]             	MOVZX	EAX,BYTE [_adr.0+ESI]
    85 00000017 50                              	PUSH	EAX
    86 00000018 6A 70                           	PUSH	112
    87 0000001A E8 [00000000]                   	CALL	_io_out8
    88 0000001F 6A 71                           	PUSH	113
    89 00000021 E8 [00000000]                   	CALL	_io_in8
    90 00000026 83 C4 0C                        	ADD	ESP,12
    91 00000029 88 04 3E                        	MOV	BYTE [ESI+EDI*1],AL
    92 0000002C 46                              	INC	ESI
    93 0000002D 83 FE 06                        	CMP	ESI,6
    94 00000030 7E DE                           	JLE	L9
    95 00000032 31 F6                           	XOR	ESI,ESI
    96 00000034                                 L16:
    97 00000034 0F B6 86 [00000000]             	MOVZX	EAX,BYTE [_adr.0+ESI]
    98 0000003B 50                              	PUSH	EAX
    99 0000003C 6A 70                           	PUSH	112
   100 0000003E E8 [00000000]                   	CALL	_io_out8
   101 00000043 0F B6 1C 3E                     	MOVZX	EBX,BYTE [ESI+EDI*1]
   102 00000047 6A 71                           	PUSH	113
   103 00000049 E8 [00000000]                   	CALL	_io_in8
   104 0000004E 83 C4 0C                        	ADD	ESP,12
   105 00000051 39 C3                           	CMP	EBX,EAX
   106 00000053 74 18                           	JE	L22
   107 00000055                                 L15:
   108 00000055 C6 45 F3 01                     	MOV	BYTE [-13+EBP],1
   109 00000059                                 L12:
   110 00000059 46                              	INC	ESI
   111 0000005A 83 FE 06                        	CMP	ESI,6
   112 0000005D 7E D5                           	JLE	L16
   113 0000005F 80 7D F3 00                     	CMP	BYTE [-13+EBP],0
   114 00000063 75 A5                           	JNE	L2
   115 00000065 8D 65 F4                        	LEA	ESP,DWORD [-12+EBP]
   116 00000068 5B                              	POP	EBX
   117 00000069 5E                              	POP	ESI
   118 0000006A 5F                              	POP	EDI
   119 0000006B 5D                              	POP	EBP
   120 0000006C C3                              	RET
   121 0000006D                                 L22:
   122 0000006D 8A 14 3E                        	MOV	DL,BYTE [ESI+EDI*1]
   123 00000070 88 D0                           	MOV	AL,DL
   124 00000072 83 E0 0F                        	AND	EAX,15
   125 00000075 3C 09                           	CMP	AL,9
   126 00000077 77 DC                           	JA	L15
   127 00000079 3A 96 [00000007]                	CMP	DL,BYTE [_max.1+ESI]
   128 0000007F 76 D8                           	JBE	L12
   129 00000081 EB D2                           	JMP	L15
   130                                          [SECTION .data]
   131 0000000E                                 LC0:
   132 0000000E 25 30 32 58 25 30 32 58 2E 25   	DB	"%02X%02X.%02X.%02X %02X:%02X:%02X",0x0A,0x00
       00000018 30 32 58 2E 25 30 32 58 20 25 
       00000022 30 32 58 3A 25 30 32 58 3A 25 
       0000002C 30 32 58 0A 00 
   133                                          [SECTION .text]
   134 00000083                                 	GLOBAL	_printtime
   135 00000083                                 _printtime:
   136 00000083 55                              	PUSH	EBP
   137 00000084 89 E5                           	MOV	EBP,ESP
   138 00000086 53                              	PUSH	EBX
   139 00000087 83 EC 30                        	SUB	ESP,48
   140 0000008A 8D 45 CC                        	LEA	EAX,DWORD [-52+EBP]
   141 0000008D 8D 5D DC                        	LEA	EBX,DWORD [-36+EBP]
   142 00000090 50                              	PUSH	EAX
   143 00000091 E8 FFFFFF6A                     	CALL	_readrtc
   144 00000096 0F B6 45 CC                     	MOVZX	EAX,BYTE [-52+EBP]
   145 0000009A 50                              	PUSH	EAX
   146 0000009B 0F B6 45 CD                     	MOVZX	EAX,BYTE [-51+EBP]
   147 0000009F 50                              	PUSH	EAX
   148 000000A0 0F B6 45 CE                     	MOVZX	EAX,BYTE [-50+EBP]
   149 000000A4 50                              	PUSH	EAX
   150 000000A5 0F B6 45 CF                     	MOVZX	EAX,BYTE [-49+EBP]
   151 000000A9 50                              	PUSH	EAX
   152 000000AA 0F B6 45 D0                     	MOVZX	EAX,BYTE [-48+EBP]
   153 000000AE 50                              	PUSH	EAX
   154 000000AF 0F B6 45 D1                     	MOVZX	EAX,BYTE [-47+EBP]
   155 000000B3 50                              	PUSH	EAX
   156 000000B4 0F B6 45 D2                     	MOVZX	EAX,BYTE [-46+EBP]
   157 000000B8 50                              	PUSH	EAX
   158 000000B9 68 [0000000E]                   	PUSH	LC0
   159 000000BE 53                              	PUSH	EBX
   160 000000BF E8 [00000000]                   	CALL	_sprintf
   161 000000C4 83 C4 28                        	ADD	ESP,40
   162 000000C7 53                              	PUSH	EBX
   163 000000C8 FF 75 08                        	PUSH	DWORD [8+EBP]
   164 000000CB E8 000006AB                     	CALL	_cons_putstr0
   165 000000D0 8B 5D FC                        	MOV	EBX,DWORD [-4+EBP]
   166 000000D3 C9                              	LEAVE
   167 000000D4 C3                              	RET
   168                                          [SECTION .data]
   169 00000031                                 LC1:
   170 00000031 48 44 20 53 4E 00               	DB	"HD SN",0x00
   171 00000037                                 LC2:
   172 00000037 48 44 20 4D 6F 64 65 6C 00      	DB	"HD Model",0x00
   173 00000040                                 	ALIGNB	4
   174 00000040                                 LC3:
   175 00000040 0000000A                        	DD	10
   176 00000044 00000014                        	DD	20
   177 00000048 [00000031]                      	DD	LC1
   178 0000004C 0000001B                        	DD	27
   179 00000050 00000028                        	DD	40
   180 00000054 [00000037]                      	DD	LC2
   181 00000058                                 LC4:
   182 00000058 25 73 3A 20 25 73 0A 00         	DB	"%s: %s",0x0A,0x00
   183 00000060                                 LC5:
   184 00000060 59 65 73 00                     	DB	"Yes",0x00
   185 00000064                                 LC7:
   186 00000064 4C 42 41 20 73 75 70 70 6F 72   	DB	"LBA supported: %s",0x0A,0x00
       0000006E 74 65 64 3A 20 25 73 0A 00 
   187 00000077                                 LC8:
   188 00000077 4C 42 41 34 38 20 73 75 70 70   	DB	"LBA48 supported: %s",0x0A,0x00
       00000081 6F 72 74 65 64 3A 20 25 73 0A 
       0000008B 00 
   189 0000008C                                 LC9:
   190 0000008C 48 44 20 73 69 7A 65 3A 20 25   	DB	"HD size: %dMB",0x0A,0x00
       00000096 64 4D 42 0A 00 
   191 0000009B                                 LC6:
   192 0000009B 4E 6F 00                        	DB	"No",0x00
   193                                          [SECTION .text]
   194 000000D5                                 	GLOBAL	_print_identify_info
   195 000000D5                                 _print_identify_info:
   196 000000D5 55                              	PUSH	EBP
   197 000000D6 B9 00000006                     	MOV	ECX,6
   198 000000DB 89 E5                           	MOV	EBP,ESP
   199 000000DD 57                              	PUSH	EDI
   200 000000DE 56                              	PUSH	ESI
   201 000000DF BE [00000040]                   	MOV	ESI,LC3
   202 000000E4 53                              	PUSH	EBX
   203 000000E5 8D BD FFFFFC74                  	LEA	EDI,DWORD [-908+EBP]
   204 000000EB FC                              	CLD
   205 000000EC 81 EC 0000038C                  	SUB	ESP,908
   206 000000F2 F3                              	REP
   207 000000F3 A5                              	MOVSD
   208 000000F4 C7 85 FFFFFC68 00000000         	MOV	DWORD [-920+EBP],0
   209 000000FE 8D 75 F4                        	LEA	ESI,DWORD [-12+EBP]
   210 00000101                                 L34:
   211 00000101 8B 86 FFFFFC80                  	MOV	EAX,DWORD [-896+ESI]
   212 00000107 8B 55 08                        	MOV	EDX,DWORD [8+EBP]
   213 0000010A BF 00000002                     	MOV	EDI,2
   214 0000010F 31 DB                           	XOR	EBX,EBX
   215 00000111 8D 0C 42                        	LEA	ECX,DWORD [EDX+EAX*2]
   216 00000114 89 B5 FFFFFC70                  	MOV	DWORD [-912+EBP],ESI
   217 0000011A 8B 96 FFFFFC84                  	MOV	EDX,DWORD [-892+ESI]
   218 00000120 89 D0                           	MOV	EAX,EDX
   219 00000122 99                              	CDQ
   220 00000123 F7 FF                           	IDIV	EDI
   221 00000125 89 85 FFFFFC6C                  	MOV	DWORD [-916+EBP],EAX
   222 0000012B 39 C3                           	CMP	EBX,EAX
   223 0000012D 7D 2F                           	JGE	L42
   224 0000012F                                 L33:
   225 0000012F 8A 01                           	MOV	AL,BYTE [ECX]
   226 00000131 BF 00000002                     	MOV	EDI,2
   227 00000136 41                              	INC	ECX
   228 00000137 88 44 5D B5                     	MOV	BYTE [-75+EBP+EBX*2],AL
   229 0000013B 8A 01                           	MOV	AL,BYTE [ECX]
   230 0000013D 41                              	INC	ECX
   231 0000013E 88 44 5D B4                     	MOV	BYTE [-76+EBP+EBX*2],AL
   232 00000142 43                              	INC	EBX
   233 00000143 8B 85 FFFFFC70                  	MOV	EAX,DWORD [-912+EBP]
   234 00000149 8B 90 FFFFFC84                  	MOV	EDX,DWORD [-892+EAX]
   235 0000014F 89 D0                           	MOV	EAX,EDX
   236 00000151 99                              	CDQ
   237 00000152 F7 FF                           	IDIV	EDI
   238 00000154 89 85 FFFFFC6C                  	MOV	DWORD [-916+EBP],EAX
   239 0000015A 39 C3                           	CMP	EBX,EAX
   240 0000015C 7C D1                           	JL	L33
   241 0000015E                                 L42:
   242 0000015E C6 44 5D B4 00                  	MOV	BYTE [-76+EBP+EBX*2],0
   243 00000163 8D 5D B4                        	LEA	EBX,DWORD [-76+EBP]
   244 00000166 8D 85 FFFFFC94                  	LEA	EAX,DWORD [-876+EBP]
   245 0000016C 53                              	PUSH	EBX
   246 0000016D FF B6 FFFFFC88                  	PUSH	DWORD [-888+ESI]
   247 00000173 68 [00000058]                   	PUSH	LC4
   248 00000178 83 C6 0C                        	ADD	ESI,12
   249 0000017B 50                              	PUSH	EAX
   250 0000017C E8 [00000000]                   	CALL	_sprintf
   251 00000181 53                              	PUSH	EBX
   252 00000182 FF 75 0C                        	PUSH	DWORD [12+EBP]
   253 00000185 E8 000005F1                     	CALL	_cons_putstr0
   254 0000018A FF 85 FFFFFC68                  	INC	DWORD [-920+EBP]
   255 00000190 83 C4 18                        	ADD	ESP,24
   256 00000193 83 BD FFFFFC68 01               	CMP	DWORD [-920+EBP],1
   257 0000019A 0F 86 FFFFFF61                  	JBE	L34
   258 000001A0 8B 45 08                        	MOV	EAX,DWORD [8+EBP]
   259 000001A3 F6 40 63 02                     	TEST	BYTE [99+EAX],2
   260 000001A7 0F 84 00000096                  	JE	L35
   261 000001AD B8 [00000060]                   	MOV	EAX,LC5
   262 000001B2                                 L36:
   263 000001B2 50                              	PUSH	EAX
   264 000001B3 8D 85 FFFFFC94                  	LEA	EAX,DWORD [-876+EBP]
   265 000001B9 68 [00000064]                   	PUSH	LC7
   266 000001BE 50                              	PUSH	EAX
   267 000001BF E8 [00000000]                   	CALL	_sprintf
   268 000001C4 8D 45 B4                        	LEA	EAX,DWORD [-76+EBP]
   269 000001C7 50                              	PUSH	EAX
   270 000001C8 FF 75 0C                        	PUSH	DWORD [12+EBP]
   271 000001CB E8 000005AB                     	CALL	_cons_putstr0
   272 000001D0 8B 55 08                        	MOV	EDX,DWORD [8+EBP]
   273 000001D3 F6 82 000000A7 04               	TEST	BYTE [167+EDX],4
   274 000001DA 74 60                           	JE	L37
   275 000001DC B8 [00000060]                   	MOV	EAX,LC5
   276 000001E1                                 L38:
   277 000001E1 50                              	PUSH	EAX
   278 000001E2 8D B5 FFFFFC94                  	LEA	ESI,DWORD [-876+EBP]
   279 000001E8 68 [00000077]                   	PUSH	LC8
   280 000001ED 8D 5D B4                        	LEA	EBX,DWORD [-76+EBP]
   281 000001F0 56                              	PUSH	ESI
   282 000001F1 E8 [00000000]                   	CALL	_sprintf
   283 000001F6 83 C4 20                        	ADD	ESP,32
   284 000001F9 53                              	PUSH	EBX
   285 000001FA FF 75 0C                        	PUSH	DWORD [12+EBP]
   286 000001FD E8 00000579                     	CALL	_cons_putstr0
   287 00000202 8B 4D 08                        	MOV	ECX,DWORD [8+EBP]
   288 00000205 0F BF 41 7A                     	MOVSX	EAX,WORD [122+ECX]
   289 00000209 0F BF 51 78                     	MOVSX	EDX,WORD [120+ECX]
   290 0000020D C1 E0 10                        	SAL	EAX,16
   291 00000210 01 D0                           	ADD	EAX,EDX
   292 00000212 BA 000F4240                     	MOV	EDX,1000000
   293 00000217 C1 E0 09                        	SAL	EAX,9
   294 0000021A 89 D7                           	MOV	EDI,EDX
   295 0000021C 99                              	CDQ
   296 0000021D F7 FF                           	IDIV	EDI
   297 0000021F 50                              	PUSH	EAX
   298 00000220 68 [0000008C]                   	PUSH	LC9
   299 00000225 56                              	PUSH	ESI
   300 00000226 E8 [00000000]                   	CALL	_sprintf
   301 0000022B 53                              	PUSH	EBX
   302 0000022C FF 75 0C                        	PUSH	DWORD [12+EBP]
   303 0000022F E8 00000547                     	CALL	_cons_putstr0
   304 00000234 8D 65 F4                        	LEA	ESP,DWORD [-12+EBP]
   305 00000237 5B                              	POP	EBX
   306 00000238 5E                              	POP	ESI
   307 00000239 5F                              	POP	EDI
   308 0000023A 5D                              	POP	EBP
   309 0000023B C3                              	RET
   310 0000023C                                 L37:
   311 0000023C B8 [0000009B]                   	MOV	EAX,LC6
   312 00000241 EB 9E                           	JMP	L38
   313 00000243                                 L35:
   314 00000243 B8 [0000009B]                   	MOV	EAX,LC6
   315 00000248 E9 FFFFFF65                     	JMP	L36
   316 0000024D                                 	GLOBAL	_time2TIME
   317 0000024D                                 _time2TIME:
   318 0000024D 55                              	PUSH	EBP
   319 0000024E 89 E5                           	MOV	EBP,ESP
   320 00000250 83 EC 10                        	SUB	ESP,16
   321 00000253 50                              	PUSH	EAX
   322 00000254 E8 FFFFFDA7                     	CALL	_readrtc
   323 00000259 8B 45 08                        	MOV	EAX,DWORD [8+EBP]
   324 0000025C C9                              	LEAVE
   325 0000025D C2 0004                         	RET	4
   326                                          [SECTION .data]
   327 0000009E                                 LC10:
   328 0000009E 25 64 4D 42 0A 0A 00            	DB	"%dMB",0x0A,0x0A,0x00
   329                                          [SECTION .text]
   330 00000260                                 	GLOBAL	_hdinfo
   331 00000260                                 _hdinfo:
   332 00000260 55                              	PUSH	EBP
   333 00000261 89 E5                           	MOV	EBP,ESP
   334 00000263 53                              	PUSH	EBX
   335 00000264 83 EC 30                        	SUB	ESP,48
   336 00000267 8D 5D EC                        	LEA	EBX,DWORD [-20+EBP]
   337 0000026A A1 [00000014]                   	MOV	EAX,DWORD [_dDevs+20]
   338 0000026F 53                              	PUSH	EBX
   339 00000270 8B 40 08                        	MOV	EAX,DWORD [8+EAX]
   340 00000273 C7 45 EC 00000001               	MOV	DWORD [-20+EBP],1
   341 0000027A FF B0 0000012C                  	PUSH	DWORD [300+EAX]
   342 00000280 E8 [00000000]                   	CALL	_message_send
   343 00000285 53                              	PUSH	EBX
   344 00000286 68 00002710                     	PUSH	10000
   345 0000028B 8D 5D CC                        	LEA	EBX,DWORD [-52+EBP]
   346 0000028E E8 [00000000]                   	CALL	_message_receive
   347 00000293 8B 45 F4                        	MOV	EAX,DWORD [-12+EBP]
   348 00000296 0F BE 00                        	MOVSX	EAX,BYTE [EAX]
   349 00000299 50                              	PUSH	EAX
   350 0000029A 68 [0000009E]                   	PUSH	LC10
   351 0000029F 53                              	PUSH	EBX
   352 000002A0 E8 [00000000]                   	CALL	_sprintf
   353 000002A5 53                              	PUSH	EBX
   354 000002A6 FF 75 08                        	PUSH	DWORD [8+EBP]
   355 000002A9 E8 000004CD                     	CALL	_cons_putstr0
   356 000002AE 8B 5D FC                        	MOV	EBX,DWORD [-4+EBP]
   357 000002B1 C9                              	LEAVE
   358 000002B2 C3                              	RET
   359 000002B3                                 	GLOBAL	_console_task
   360 000002B3                                 _console_task:
   361 000002B3 55                              	PUSH	EBP
   362 000002B4 89 E5                           	MOV	EBP,ESP
   363 000002B6 57                              	PUSH	EDI
   364 000002B7 56                              	PUSH	ESI
   365 000002B8 53                              	PUSH	EBX
   366 000002B9 81 EC 000000AC                  	SUB	ESP,172
   367 000002BF 8B 5D 08                        	MOV	EBX,DWORD [8+EBP]
   368 000002C2 E8 [00000000]                   	CALL	_task_now
   369 000002C7 68 00002D00                     	PUSH	11520
   370 000002CC 89 C7                           	MOV	EDI,EAX
   371 000002CE 68 003C0000                     	PUSH	3932160
   372 000002D3 E8 [00000000]                   	CALL	_memman_alloc_4k
   373 000002D8 85 DB                           	TEST	EBX,EBX
   374 000002DA 89 5D D4                        	MOV	DWORD [-44+EBP],EBX
   375 000002DD 89 85 FFFFFF50                  	MOV	DWORD [-176+EBP],EAX
   376 000002E3 A1 00000FE8                     	MOV	EAX,DWORD [4072]
   377 000002E8 89 85 FFFFFF4C                  	MOV	DWORD [-180+EBP],EAX
   378 000002EE 8D 45 D4                        	LEA	EAX,DWORD [-44+EBP]
   379 000002F1 89 87 00000110                  	MOV	DWORD [272+EDI],EAX
   380 000002F7 8D 85 FFFFFF54                  	LEA	EAX,DWORD [-172+EBP]
   381 000002FD 89 87 00000124                  	MOV	DWORD [292+EDI],EAX
   382 00000303 59                              	POP	ECX
   383 00000304 C7 45 D8 00000008               	MOV	DWORD [-40+EBP],8
   384 0000030B C7 45 DC 0000001C               	MOV	DWORD [-36+EBP],28
   385 00000312 C7 45 E0 FFFFFFFF               	MOV	DWORD [-32+EBP],-1
   386 00000319 5E                              	POP	ESI
   387 0000031A 74 21                           	JE	L46
   388 0000031C E8 [00000000]                   	CALL	_timer_alloc
   389 00000321 8D 57 10                        	LEA	EDX,DWORD [16+EDI]
   390 00000324 6A 01                           	PUSH	1
   391 00000326 52                              	PUSH	EDX
   392 00000327 89 45 E4                        	MOV	DWORD [-28+EBP],EAX
   393 0000032A 50                              	PUSH	EAX
   394 0000032B E8 [00000000]                   	CALL	_timer_init
   395 00000330 6A 32                           	PUSH	50
   396 00000332 FF 75 E4                        	PUSH	DWORD [-28+EBP]
   397 00000335 E8 [00000000]                   	CALL	_timer_settime
   398 0000033A 83 C4 14                        	ADD	ESP,20
   399 0000033D                                 L46:
   400 0000033D 68 00100200                     	PUSH	1049088
   401 00000342 BE 00000007                     	MOV	ESI,7
   402 00000347 FF B5 FFFFFF50                  	PUSH	DWORD [-176+EBP]
   403 0000034D E8 [00000000]                   	CALL	_file_readfat
   404 00000352 58                              	POP	EAX
   405 00000353 5A                              	POP	EDX
   406 00000354 31 C0                           	XOR	EAX,EAX
   407 00000356                                 L51:
   408 00000356 C7 84 05 FFFFFF74 00000000      	MOV	DWORD [-140+EBP+EAX*1],0
   409 00000361 83 C0 0C                        	ADD	EAX,12
   410 00000364 4E                              	DEC	ESI
   411 00000365 79 EF                           	JNS	L51
   412 00000367 8B 8D FFFFFF50                  	MOV	ECX,DWORD [-176+EBP]
   413 0000036D 8B 9D FFFFFF4C                  	MOV	EBX,DWORD [-180+EBP]
   414 00000373 8D 85 FFFFFF74                  	LEA	EAX,DWORD [-140+EBP]
   415 00000379 89 8F 00000120                  	MOV	DWORD [288+EDI],ECX
   416 0000037F 89 87 0000011C                  	MOV	DWORD [284+EDI],EAX
   417 00000385 8D 45 D4                        	LEA	EAX,DWORD [-44+EBP]
   418 00000388 80 BB 00001000 FF               	CMP	BYTE [4096+EBX],-1
   419 0000038F C6 87 00000129 00               	MOV	BYTE [297+EDI],0
   420 00000396 0F 95 87 00000128               	SETNE	BYTE [296+EDI]
   421 0000039D 6A 01                           	PUSH	1
   422 0000039F 6A 3E                           	PUSH	62
   423 000003A1 50                              	PUSH	EAX
   424 000003A2 E8 0000023B                     	CALL	_cons_putchar
   425 000003A7 83 C4 0C                        	ADD	ESP,12
   426 000003AA                                 L54:
   427 000003AA 8D 5F 10                        	LEA	EBX,DWORD [16+EDI]
   428 000003AD E8 [00000000]                   	CALL	_io_cli
   429 000003B2 53                              	PUSH	EBX
   430 000003B3 E8 [00000000]                   	CALL	_fifo32_status
   431 000003B8 5E                              	POP	ESI
   432 000003B9 85 C0                           	TEST	EAX,EAX
   433 000003BB 0F 84 00000210                  	JE	L82
   434 000003C1 53                              	PUSH	EBX
   435 000003C2 E8 [00000000]                   	CALL	_fifo32_get
   436 000003C7 89 C6                           	MOV	ESI,EAX
   437 000003C9 E8 [00000000]                   	CALL	_io_sti
   438 000003CE 59                              	POP	ECX
   439 000003CF 83 FE 01                        	CMP	ESI,1
   440 000003D2 0F 8E 000001A2                  	JLE	L83
   441 000003D8                                 L59:
   442 000003D8 83 FE 02                        	CMP	ESI,2
   443 000003DB 0F 84 0000018D                  	JE	L84
   444 000003E1                                 L64:
   445 000003E1 83 FE 03                        	CMP	ESI,3
   446 000003E4 0F 84 00000152                  	JE	L85
   447 000003EA                                 L65:
   448 000003EA 83 FE 04                        	CMP	ESI,4
   449 000003ED 0F 84 00000133                  	JE	L86
   450 000003F3                                 L67:
   451 000003F3 8D 86 FFFFFF00                  	LEA	EAX,DWORD [-256+ESI]
   452 000003F9 89 85 FFFFFF48                  	MOV	DWORD [-184+EBP],EAX
   453 000003FF 3D 000000FF                     	CMP	EAX,255
   454 00000404 77 4E                           	JA	L68
   455 00000406 81 FE 00000108                  	CMP	ESI,264
   456 0000040C 0F 84 000000F4                  	JE	L87
   457 00000412 81 FE 0000010A                  	CMP	ESI,266
   458 00000418 0F 84 00000089                  	JE	L88
   459 0000041E 8B 4D D8                        	MOV	ECX,DWORD [-40+EBP]
   460 00000421 81 F9 000000EF                  	CMP	ECX,239
   461 00000427 7F 2B                           	JG	L68
   462 00000429 89 C8                           	MOV	EAX,ECX
   463 0000042B BA 00000008                     	MOV	EDX,8
   464 00000430 89 D3                           	MOV	EBX,EDX
   465 00000432 6A 01                           	PUSH	1
   466 00000434 99                              	CDQ
   467 00000435 F7 FB                           	IDIV	EBX
   468 00000437 89 C1                           	MOV	ECX,EAX
   469 00000439 89 F0                           	MOV	EAX,ESI
   470 0000043B 88 84 0D FFFFFF52               	MOV	BYTE [-174+EBP+ECX*1],AL
   471 00000442 8D 45 D4                        	LEA	EAX,DWORD [-44+EBP]
   472 00000445 FF B5 FFFFFF48                  	PUSH	DWORD [-184+EBP]
   473 0000044B 50                              	PUSH	EAX
   474 0000044C                                 L80:
   475 0000044C E8 00000191                     	CALL	_cons_putchar
   476 00000451                                 L81:
   477 00000451 83 C4 0C                        	ADD	ESP,12
   478 00000454                                 L68:
   479 00000454 8B 5D D4                        	MOV	EBX,DWORD [-44+EBP]
   480 00000457 85 DB                           	TEST	EBX,EBX
   481 00000459 0F 84 FFFFFF4B                  	JE	L54
   482 0000045F 83 7D E0 00                     	CMP	DWORD [-32+EBP],0
   483 00000463 78 22                           	JS	L77
   484 00000465 8B 4D DC                        	MOV	ECX,DWORD [-36+EBP]
   485 00000468 8B 55 D8                        	MOV	EDX,DWORD [-40+EBP]
   486 0000046B 8D 41 0F                        	LEA	EAX,DWORD [15+ECX]
   487 0000046E 50                              	PUSH	EAX
   488 0000046F 8D 42 07                        	LEA	EAX,DWORD [7+EDX]
   489 00000472 50                              	PUSH	EAX
   490 00000473 51                              	PUSH	ECX
   491 00000474 52                              	PUSH	EDX
   492 00000475 0F B6 45 E0                     	MOVZX	EAX,BYTE [-32+EBP]
   493 00000479 50                              	PUSH	EAX
   494 0000047A FF 73 04                        	PUSH	DWORD [4+EBX]
   495 0000047D FF 33                           	PUSH	DWORD [EBX]
   496 0000047F E8 [00000000]                   	CALL	_boxfill8
   497 00000484 83 C4 1C                        	ADD	ESP,28
   498 00000487                                 L77:
   499 00000487 8B 4D DC                        	MOV	ECX,DWORD [-36+EBP]
   500 0000048A 8B 55 D8                        	MOV	EDX,DWORD [-40+EBP]
   501 0000048D 8D 41 10                        	LEA	EAX,DWORD [16+ECX]
   502 00000490 50                              	PUSH	EAX
   503 00000491 8D 42 08                        	LEA	EAX,DWORD [8+EDX]
   504 00000494 50                              	PUSH	EAX
   505 00000495 51                              	PUSH	ECX
   506 00000496 52                              	PUSH	EDX
   507 00000497 FF 75 D4                        	PUSH	DWORD [-44+EBP]
   508 0000049A E8 [00000000]                   	CALL	_sheet_refresh
   509 0000049F 83 C4 14                        	ADD	ESP,20
   510 000004A2 E9 FFFFFF03                     	JMP	L54
   511 000004A7                                 L88:
   512 000004A7 6A 00                           	PUSH	0
   513 000004A9 8D 5D D4                        	LEA	EBX,DWORD [-44+EBP]
   514 000004AC 6A 20                           	PUSH	32
   515 000004AE 53                              	PUSH	EBX
   516 000004AF E8 0000012E                     	CALL	_cons_putchar
   517 000004B4 53                              	PUSH	EBX
   518 000004B5 8B 45 D8                        	MOV	EAX,DWORD [-40+EBP]
   519 000004B8 BA 00000008                     	MOV	EDX,8
   520 000004BD 89 D1                           	MOV	ECX,EDX
   521 000004BF 99                              	CDQ
   522 000004C0 F7 F9                           	IDIV	ECX
   523 000004C2 C6 84 05 FFFFFF52 00            	MOV	BYTE [-174+EBP+EAX*1],0
   524 000004CA E8 000001C4                     	CALL	_cons_newline
   525 000004CF 8D 85 FFFFFF54                  	LEA	EAX,DWORD [-172+EBP]
   526 000004D5 FF 75 0C                        	PUSH	DWORD [12+EBP]
   527 000004D8 FF B5 FFFFFF50                  	PUSH	DWORD [-176+EBP]
   528 000004DE 53                              	PUSH	EBX
   529 000004DF 50                              	PUSH	EAX
   530 000004E0 E8 000002F7                     	CALL	_cons_runcmd
   531 000004E5 83 C4 20                        	ADD	ESP,32
   532 000004E8 83 7D D4 00                     	CMP	DWORD [-44+EBP],0
   533 000004EC 75 0E                           	JNE	L73
   534 000004EE FF B5 FFFFFF50                  	PUSH	DWORD [-176+EBP]
   535 000004F4 53                              	PUSH	EBX
   536 000004F5 E8 00000640                     	CALL	_cmd_exit
   537 000004FA 5A                              	POP	EDX
   538 000004FB 59                              	POP	ECX
   539 000004FC                                 L73:
   540 000004FC 6A 01                           	PUSH	1
   541 000004FE 6A 3E                           	PUSH	62
   542 00000500 53                              	PUSH	EBX
   543 00000501 E9 FFFFFF46                     	JMP	L80
   544 00000506                                 L87:
   545 00000506 83 7D D8 10                     	CMP	DWORD [-40+EBP],16
   546 0000050A 0F 8E FFFFFF44                  	JLE	L68
   547 00000510 6A 00                           	PUSH	0
   548 00000512 8D 45 D4                        	LEA	EAX,DWORD [-44+EBP]
   549 00000515 6A 20                           	PUSH	32
   550 00000517 50                              	PUSH	EAX
   551 00000518 E8 000000C5                     	CALL	_cons_putchar
   552 0000051D 83 6D D8 08                     	SUB	DWORD [-40+EBP],8
   553 00000521 E9 FFFFFF2B                     	JMP	L81
   554 00000526                                 L86:
   555 00000526 FF B5 FFFFFF50                  	PUSH	DWORD [-176+EBP]
   556 0000052C 8D 45 D4                        	LEA	EAX,DWORD [-44+EBP]
   557 0000052F 50                              	PUSH	EAX
   558 00000530 E8 00000605                     	CALL	_cmd_exit
   559 00000535 5B                              	POP	EBX
   560 00000536 58                              	POP	EAX
   561 00000537 E9 FFFFFEB7                     	JMP	L67
   562 0000053C                                 L85:
   563 0000053C 8B 5D D4                        	MOV	EBX,DWORD [-44+EBP]
   564 0000053F 85 DB                           	TEST	EBX,EBX
   565 00000541 74 1F                           	JE	L66
   566 00000543 8B 4D DC                        	MOV	ECX,DWORD [-36+EBP]
   567 00000546 8B 55 D8                        	MOV	EDX,DWORD [-40+EBP]
   568 00000549 8D 41 0F                        	LEA	EAX,DWORD [15+ECX]
   569 0000054C 50                              	PUSH	EAX
   570 0000054D 8D 42 07                        	LEA	EAX,DWORD [7+EDX]
   571 00000550 50                              	PUSH	EAX
   572 00000551 51                              	PUSH	ECX
   573 00000552 52                              	PUSH	EDX
   574 00000553 6A 00                           	PUSH	0
   575 00000555 FF 73 04                        	PUSH	DWORD [4+EBX]
   576 00000558 FF 33                           	PUSH	DWORD [EBX]
   577 0000055A E8 [00000000]                   	CALL	_boxfill8
   578 0000055F 83 C4 1C                        	ADD	ESP,28
   579 00000562                                 L66:
   580 00000562 C7 45 E0 FFFFFFFF               	MOV	DWORD [-32+EBP],-1
   581 00000569 E9 FFFFFE7C                     	JMP	L65
   582 0000056E                                 L84:
   583 0000056E C7 45 E0 00000007               	MOV	DWORD [-32+EBP],7
   584 00000575 E9 FFFFFE67                     	JMP	L64
   585 0000057A                                 L83:
   586 0000057A 83 7D D4 00                     	CMP	DWORD [-44+EBP],0
   587 0000057E 0F 84 FFFFFE54                  	JE	L59
   588 00000584 85 F6                           	TEST	ESI,ESI
   589 00000586 74 2C                           	JE	L60
   590 00000588 6A 00                           	PUSH	0
   591 0000058A 53                              	PUSH	EBX
   592 0000058B FF 75 E4                        	PUSH	DWORD [-28+EBP]
   593 0000058E E8 [00000000]                   	CALL	_timer_init
   594 00000593 83 C4 0C                        	ADD	ESP,12
   595 00000596 83 7D E0 00                     	CMP	DWORD [-32+EBP],0
   596 0000059A 78 07                           	JS	L62
   597 0000059C C7 45 E0 00000007               	MOV	DWORD [-32+EBP],7
   598 000005A3                                 L62:
   599 000005A3 6A 32                           	PUSH	50
   600 000005A5 FF 75 E4                        	PUSH	DWORD [-28+EBP]
   601 000005A8 E8 [00000000]                   	CALL	_timer_settime
   602 000005AD 58                              	POP	EAX
   603 000005AE 5A                              	POP	EDX
   604 000005AF E9 FFFFFE24                     	JMP	L59
   605 000005B4                                 L60:
   606 000005B4 6A 01                           	PUSH	1
   607 000005B6 53                              	PUSH	EBX
   608 000005B7 FF 75 E4                        	PUSH	DWORD [-28+EBP]
   609 000005BA E8 [00000000]                   	CALL	_timer_init
   610 000005BF 83 C4 0C                        	ADD	ESP,12
   611 000005C2 83 7D E0 00                     	CMP	DWORD [-32+EBP],0
   612 000005C6 78 DB                           	JS	L62
   613 000005C8 C7 45 E0 00000000               	MOV	DWORD [-32+EBP],0
   614 000005CF EB D2                           	JMP	L62
   615 000005D1                                 L82:
   616 000005D1 57                              	PUSH	EDI
   617 000005D2 E8 [00000000]                   	CALL	_task_sleep
   618 000005D7 E8 [00000000]                   	CALL	_io_sti
   619 000005DC 5B                              	POP	EBX
   620 000005DD E9 FFFFFDC8                     	JMP	L54
   621                                          [SECTION .data]
   622 000000A5                                 LC11:
   623 000000A5 20 00                           	DB	" ",0x00
   624                                          [SECTION .text]
   625 000005E2                                 	GLOBAL	_cons_putchar
   626 000005E2                                 _cons_putchar:
   627 000005E2 55                              	PUSH	EBP
   628 000005E3 89 E5                           	MOV	EBP,ESP
   629 000005E5 53                              	PUSH	EBX
   630 000005E6 50                              	PUSH	EAX
   631 000005E7 8B 45 0C                        	MOV	EAX,DWORD [12+EBP]
   632 000005EA 8A 55 10                        	MOV	DL,BYTE [16+EBP]
   633 000005ED 8B 5D 08                        	MOV	EBX,DWORD [8+EBP]
   634 000005F0 88 55 F9                        	MOV	BYTE [-7+EBP],DL
   635 000005F3 88 45 FA                        	MOV	BYTE [-6+EBP],AL
   636 000005F6 3C 09                           	CMP	AL,9
   637 000005F8 C6 45 FB 00                     	MOV	BYTE [-5+EBP],0
   638 000005FC 74 4D                           	JE	L91
   639 000005FE 3C 0A                           	CMP	AL,10
   640 00000600 74 25                           	JE	L105
   641 00000602 3C 0D                           	CMP	AL,13
   642 00000604 74 1C                           	JE	L89
   643 00000606 8B 13                           	MOV	EDX,DWORD [EBX]
   644 00000608 85 D2                           	TEST	EDX,EDX
   645 0000060A 75 24                           	JNE	L106
   646 0000060C                                 L102:
   647 0000060C 80 7D F9 00                     	CMP	BYTE [-7+EBP],0
   648 00000610 74 10                           	JE	L89
   649 00000612 8B 43 04                        	MOV	EAX,DWORD [4+EBX]
   650 00000615 83 C0 08                        	ADD	EAX,8
   651 00000618 89 43 04                        	MOV	DWORD [4+EBX],EAX
   652 0000061B 3D 000000F8                     	CMP	EAX,248
   653 00000620 74 05                           	JE	L105
   654 00000622                                 L89:
   655 00000622 8B 5D FC                        	MOV	EBX,DWORD [-4+EBP]
   656 00000625 C9                              	LEAVE
   657 00000626 C3                              	RET
   658 00000627                                 L105:
   659 00000627 53                              	PUSH	EBX
   660 00000628 E8 00000066                     	CALL	_cons_newline
   661 0000062D 58                              	POP	EAX
   662 0000062E EB F2                           	JMP	L89
   663 00000630                                 L106:
   664 00000630 6A 01                           	PUSH	1
   665 00000632 8D 45 FA                        	LEA	EAX,DWORD [-6+EBP]
   666 00000635 50                              	PUSH	EAX
   667 00000636 6A 00                           	PUSH	0
   668 00000638 6A 07                           	PUSH	7
   669 0000063A FF 73 08                        	PUSH	DWORD [8+EBX]
   670 0000063D FF 73 04                        	PUSH	DWORD [4+EBX]
   671 00000640 52                              	PUSH	EDX
   672 00000641 E8 [00000000]                   	CALL	_putfonts8_asc_sht
   673 00000646 83 C4 1C                        	ADD	ESP,28
   674 00000649 EB C1                           	JMP	L102
   675 0000064B                                 L91:
   676 0000064B 8B 03                           	MOV	EAX,DWORD [EBX]
   677 0000064D 85 C0                           	TEST	EAX,EAX
   678 0000064F 75 26                           	JNE	L107
   679 00000651                                 L94:
   680 00000651 8B 43 04                        	MOV	EAX,DWORD [4+EBX]
   681 00000654 83 C0 08                        	ADD	EAX,8
   682 00000657 89 43 04                        	MOV	DWORD [4+EBX],EAX
   683 0000065A 3D 000000F8                     	CMP	EAX,248
   684 0000065F 74 0D                           	JE	L108
   685 00000661                                 L95:
   686 00000661 8B 43 04                        	MOV	EAX,DWORD [4+EBX]
   687 00000664 83 E8 08                        	SUB	EAX,8
   688 00000667 83 E0 1F                        	AND	EAX,31
   689 0000066A 75 DF                           	JNE	L91
   690 0000066C EB B4                           	JMP	L89
   691 0000066E                                 L108:
   692 0000066E 53                              	PUSH	EBX
   693 0000066F E8 0000001F                     	CALL	_cons_newline
   694 00000674 58                              	POP	EAX
   695 00000675 EB EA                           	JMP	L95
   696 00000677                                 L107:
   697 00000677 6A 01                           	PUSH	1
   698 00000679 68 [000000A5]                   	PUSH	LC11
   699 0000067E 6A 00                           	PUSH	0
   700 00000680 6A 07                           	PUSH	7
   701 00000682 FF 73 08                        	PUSH	DWORD [8+EBX]
   702 00000685 FF 73 04                        	PUSH	DWORD [4+EBX]
   703 00000688 50                              	PUSH	EAX
   704 00000689 E8 [00000000]                   	CALL	_putfonts8_asc_sht
   705 0000068E 83 C4 1C                        	ADD	ESP,28
   706 00000691 EB BE                           	JMP	L94
   707 00000693                                 	GLOBAL	_cons_newline
   708 00000693                                 _cons_newline:
   709 00000693 55                              	PUSH	EBP
   710 00000694 89 E5                           	MOV	EBP,ESP
   711 00000696 57                              	PUSH	EDI
   712 00000697 56                              	PUSH	ESI
   713 00000698 53                              	PUSH	EBX
   714 00000699 50                              	PUSH	EAX
   715 0000069A 50                              	PUSH	EAX
   716 0000069B 8B 45 08                        	MOV	EAX,DWORD [8+EBP]
   717 0000069E 8B 00                           	MOV	EAX,DWORD [EAX]
   718 000006A0 89 45 F0                        	MOV	DWORD [-16+EBP],EAX
   719 000006A3 E8 [00000000]                   	CALL	_task_now
   720 000006A8 8B 55 08                        	MOV	EDX,DWORD [8+EBP]
   721 000006AB 89 45 EC                        	MOV	DWORD [-20+EBP],EAX
   722 000006AE 8B 42 08                        	MOV	EAX,DWORD [8+EDX]
   723 000006B1 3D 0000008B                     	CMP	EAX,139
   724 000006B6 7F 36                           	JG	L110
   725 000006B8 83 C0 10                        	ADD	EAX,16
   726 000006BB 89 42 08                        	MOV	DWORD [8+EDX],EAX
   727 000006BE                                 L111:
   728 000006BE 8B 45 08                        	MOV	EAX,DWORD [8+EBP]
   729 000006C1 8B 55 EC                        	MOV	EDX,DWORD [-20+EBP]
   730 000006C4 C7 40 04 00000008               	MOV	DWORD [4+EAX],8
   731 000006CB 80 BA 00000128 01               	CMP	BYTE [296+EDX],1
   732 000006D2 74 08                           	JE	L142
   733 000006D4                                 L109:
   734 000006D4 8D 65 F4                        	LEA	ESP,DWORD [-12+EBP]
   735 000006D7 5B                              	POP	EBX
   736 000006D8 5E                              	POP	ESI
   737 000006D9 5F                              	POP	EDI
   738 000006DA 5D                              	POP	EBP
   739 000006DB C3                              	RET
   740 000006DC                                 L142:
   741 000006DC 80 BA 00000129 00               	CMP	BYTE [297+EDX],0
   742 000006E3 74 EF                           	JE	L109
   743 000006E5 C7 40 04 00000010               	MOV	DWORD [4+EAX],16
   744 000006EC EB E6                           	JMP	L109
   745 000006EE                                 L110:
   746 000006EE 83 7D F0 00                     	CMP	DWORD [-16+EBP],0
   747 000006F2 74 CA                           	JE	L111
   748 000006F4 BF 0000001C                     	MOV	EDI,28
   749 000006F9                                 L122:
   750 000006F9 BE 00000008                     	MOV	ESI,8
   751 000006FE                                 L121:
   752 000006FE 8B 45 F0                        	MOV	EAX,DWORD [-16+EBP]
   753 00000701 89 FA                           	MOV	EDX,EDI
   754 00000703 8B 48 04                        	MOV	ECX,DWORD [4+EAX]
   755 00000706 8B 18                           	MOV	EBX,DWORD [EAX]
   756 00000708 8D 47 10                        	LEA	EAX,DWORD [16+EDI]
   757 0000070B 0F AF C1                        	IMUL	EAX,ECX
   758 0000070E 0F AF D1                        	IMUL	EDX,ECX
   759 00000711 8D 04 30                        	LEA	EAX,DWORD [EAX+ESI*1]
   760 00000714 8D 14 32                        	LEA	EDX,DWORD [EDX+ESI*1]
   761 00000717 46                              	INC	ESI
   762 00000718 8A 04 18                        	MOV	AL,BYTE [EAX+EBX*1]
   763 0000071B 81 FE 000000F7                  	CMP	ESI,247
   764 00000721 88 04 1A                        	MOV	BYTE [EDX+EBX*1],AL
   765 00000724 7E D8                           	JLE	L121
   766 00000726 47                              	INC	EDI
   767 00000727 81 FF 0000008B                  	CMP	EDI,139
   768 0000072D 7E CA                           	JLE	L122
   769 0000072F BF 0000008C                     	MOV	EDI,140
   770 00000734                                 L132:
   771 00000734 BE 00000008                     	MOV	ESI,8
   772 00000739                                 L131:
   773 00000739 8B 55 F0                        	MOV	EDX,DWORD [-16+EBP]
   774 0000073C 89 F8                           	MOV	EAX,EDI
   775 0000073E 89 D1                           	MOV	ECX,EDX
   776 00000740 0F AF 42 04                     	IMUL	EAX,DWORD [4+EDX]
   777 00000744 8B 12                           	MOV	EDX,DWORD [EDX]
   778 00000746 8D 04 30                        	LEA	EAX,DWORD [EAX+ESI*1]
   779 00000749 46                              	INC	ESI
   780 0000074A 81 FE 000000F7                  	CMP	ESI,247
   781 00000750 C6 04 10 00                     	MOV	BYTE [EAX+EDX*1],0
   782 00000754 7E E3                           	JLE	L131
   783 00000756 47                              	INC	EDI
   784 00000757 81 FF 0000009B                  	CMP	EDI,155
   785 0000075D 7E D5                           	JLE	L132
   786 0000075F 68 0000009C                     	PUSH	156
   787 00000764 68 000000F8                     	PUSH	248
   788 00000769 6A 1C                           	PUSH	28
   789 0000076B 6A 08                           	PUSH	8
   790 0000076D 51                              	PUSH	ECX
   791 0000076E E8 [00000000]                   	CALL	_sheet_refresh
   792 00000773 83 C4 14                        	ADD	ESP,20
   793 00000776 E9 FFFFFF43                     	JMP	L111
   794 0000077B                                 	GLOBAL	_cons_putstr0
   795 0000077B                                 _cons_putstr0:
   796 0000077B 55                              	PUSH	EBP
   797 0000077C 89 E5                           	MOV	EBP,ESP
   798 0000077E 56                              	PUSH	ESI
   799 0000077F 53                              	PUSH	EBX
   800 00000780 8B 5D 0C                        	MOV	EBX,DWORD [12+EBP]
   801 00000783 8B 75 08                        	MOV	ESI,DWORD [8+EBP]
   802 00000786 80 3B 00                        	CMP	BYTE [EBX],0
   803 00000789 75 07                           	JNE	L148
   804 0000078B                                 L150:
   805 0000078B 8D 65 F8                        	LEA	ESP,DWORD [-8+EBP]
   806 0000078E 5B                              	POP	EBX
   807 0000078F 5E                              	POP	ESI
   808 00000790 5D                              	POP	EBP
   809 00000791 C3                              	RET
   810 00000792                                 L148:
   811 00000792 6A 01                           	PUSH	1
   812 00000794 0F BE 03                        	MOVSX	EAX,BYTE [EBX]
   813 00000797 50                              	PUSH	EAX
   814 00000798 43                              	INC	EBX
   815 00000799 56                              	PUSH	ESI
   816 0000079A E8 FFFFFE43                     	CALL	_cons_putchar
   817 0000079F 83 C4 0C                        	ADD	ESP,12
   818 000007A2 80 3B 00                        	CMP	BYTE [EBX],0
   819 000007A5 75 EB                           	JNE	L148
   820 000007A7 EB E2                           	JMP	L150
   821 000007A9                                 	GLOBAL	_cons_putstr1
   822 000007A9                                 _cons_putstr1:
   823 000007A9 55                              	PUSH	EBP
   824 000007AA 89 E5                           	MOV	EBP,ESP
   825 000007AC 57                              	PUSH	EDI
   826 000007AD 56                              	PUSH	ESI
   827 000007AE 53                              	PUSH	EBX
   828 000007AF 8B 75 10                        	MOV	ESI,DWORD [16+EBP]
   829 000007B2 31 DB                           	XOR	EBX,EBX
   830 000007B4 8B 7D 0C                        	MOV	EDI,DWORD [12+EBP]
   831 000007B7 39 F3                           	CMP	EBX,ESI
   832 000007B9 7C 08                           	JL	L156
   833 000007BB                                 L158:
   834 000007BB 8D 65 F4                        	LEA	ESP,DWORD [-12+EBP]
   835 000007BE 5B                              	POP	EBX
   836 000007BF 5E                              	POP	ESI
   837 000007C0 5F                              	POP	EDI
   838 000007C1 5D                              	POP	EBP
   839 000007C2 C3                              	RET
   840 000007C3                                 L156:
   841 000007C3 6A 01                           	PUSH	1
   842 000007C5 0F BE 04 3B                     	MOVSX	EAX,BYTE [EBX+EDI*1]
   843 000007C9 50                              	PUSH	EAX
   844 000007CA 43                              	INC	EBX
   845 000007CB FF 75 08                        	PUSH	DWORD [8+EBP]
   846 000007CE E8 FFFFFE0F                     	CALL	_cons_putchar
   847 000007D3 83 C4 0C                        	ADD	ESP,12
   848 000007D6 39 F3                           	CMP	EBX,ESI
   849 000007D8 7C E9                           	JL	L156
   850 000007DA EB DF                           	JMP	L158
   851                                          [SECTION .data]
   852 000000A7                                 LC12:
   853 000000A7 6D 65 6D 00                     	DB	"mem",0x00
   854 000000AB                                 LC13:
   855 000000AB 63 6C 73 00                     	DB	"cls",0x00
   856 000000AF                                 LC14:
   857 000000AF 64 69 72 00                     	DB	"dir",0x00
   858 000000B3                                 LC15:
   859 000000B3 65 78 69 74 00                  	DB	"exit",0x00
   860 000000B8                                 LC16:
   861 000000B8 73 74 61 72 74 20 00            	DB	"start ",0x00
   862 000000BF                                 LC17:
   863 000000BF 6E 63 73 74 20 00               	DB	"ncst ",0x00
   864 000000C5                                 LC18:
   865 000000C5 6C 61 6E 67 6D 6F 64 65 20 00   	DB	"langmode ",0x00
   866 000000CF                                 LC19:
   867 000000CF 74 69 6D 65 00                  	DB	"time",0x00
   868 000000D4                                 LC20:
   869 000000D4 73 68 75 74 64 6F 77 6E 00      	DB	"shutdown",0x00
   870 000000DD                                 LC21:
   871 000000DD 76 65 72 73 69 6F 6E 00         	DB	"version",0x00
   872 000000E5                                 LC22:
   873 000000E5 68 64 69 6E 66 6F 00            	DB	"hdinfo",0x00
   874 000000EC                                 LC23:
   875 000000EC 42 61 64 20 63 6F 6D 6D 61 6E   	DB	"Bad command.",0x0A,0x0A,0x00
       000000F6 64 2E 0A 0A 00 
   876                                          [SECTION .text]
   877 000007DC                                 	GLOBAL	_cons_runcmd
   878 000007DC                                 _cons_runcmd:
   879 000007DC 55                              	PUSH	EBP
   880 000007DD 89 E5                           	MOV	EBP,ESP
   881 000007DF 57                              	PUSH	EDI
   882 000007E0 56                              	PUSH	ESI
   883 000007E1 BF [000000A7]                   	MOV	EDI,LC12
   884 000007E6 53                              	PUSH	EBX
   885 000007E7 83 EC 0C                        	SUB	ESP,12
   886 000007EA 8B 45 08                        	MOV	EAX,DWORD [8+EBP]
   887 000007ED 8B 4D 10                        	MOV	ECX,DWORD [16+EBP]
   888 000007F0 89 45 E8                        	MOV	DWORD [-24+EBP],EAX
   889 000007F3 89 4D F0                        	MOV	DWORD [-16+EBP],ECX
   890 000007F6 8B 45 14                        	MOV	EAX,DWORD [20+EBP]
   891 000007F9 8B 75 E8                        	MOV	ESI,DWORD [-24+EBP]
   892 000007FC 89 45 EC                        	MOV	DWORD [-20+EBP],EAX
   893 000007FF 8B 5D 0C                        	MOV	EBX,DWORD [12+EBP]
   894 00000802 B8 00000004                     	MOV	EAX,4
   895 00000807 FC                              	CLD
   896 00000808 89 C1                           	MOV	ECX,EAX
   897 0000080A F3                              	REPE
   898 0000080B A6                              	CMPSB
   899 0000080C 75 09                           	JNE	L160
   900 0000080E 83 3B 00                        	CMP	DWORD [EBX],0
   901 00000811 0F 85 000001CC                  	JNE	L184
   902 00000817                                 L160:
   903 00000817 B8 00000004                     	MOV	EAX,4
   904 0000081C 8B 75 E8                        	MOV	ESI,DWORD [-24+EBP]
   905 0000081F FC                              	CLD
   906 00000820 BF [000000AB]                   	MOV	EDI,LC13
   907 00000825 89 C1                           	MOV	ECX,EAX
   908 00000827 F3                              	REPE
   909 00000828 A6                              	CMPSB
   910 00000829 75 09                           	JNE	L162
   911 0000082B 83 3B 00                        	CMP	DWORD [EBX],0
   912 0000082E 0F 85 000001A3                  	JNE	L185
   913 00000834                                 L162:
   914 00000834 B8 00000004                     	MOV	EAX,4
   915 00000839 8B 75 E8                        	MOV	ESI,DWORD [-24+EBP]
   916 0000083C FC                              	CLD
   917 0000083D BF [000000AF]                   	MOV	EDI,LC14
   918 00000842 89 C1                           	MOV	ECX,EAX
   919 00000844 F3                              	REPE
   920 00000845 A6                              	CMPSB
   921 00000846 75 09                           	JNE	L164
   922 00000848 83 3B 00                        	CMP	DWORD [EBX],0
   923 0000084B 0F 85 00000177                  	JNE	L186
   924 00000851                                 L164:
   925 00000851 B8 00000005                     	MOV	EAX,5
   926 00000856 8B 75 E8                        	MOV	ESI,DWORD [-24+EBP]
   927 00000859 FC                              	CLD
   928 0000085A BF [000000B3]                   	MOV	EDI,LC15
   929 0000085F 89 C1                           	MOV	ECX,EAX
   930 00000861 F3                              	REPE
   931 00000862 A6                              	CMPSB
   932 00000863 0F 84 0000014A                  	JE	L187
   933 00000869 B8 00000006                     	MOV	EAX,6
   934 0000086E 8B 75 E8                        	MOV	ESI,DWORD [-24+EBP]
   935 00000871 FC                              	CLD
   936 00000872 BF [000000B8]                   	MOV	EDI,LC16
   937 00000877 89 C1                           	MOV	ECX,EAX
   938 00000879 F3                              	REPE
   939 0000087A A6                              	CMPSB
   940 0000087B 0F 84 00000117                  	JE	L188
   941 00000881 B8 00000005                     	MOV	EAX,5
   942 00000886 8B 75 E8                        	MOV	ESI,DWORD [-24+EBP]
   943 00000889 FC                              	CLD
   944 0000088A BF [000000BF]                   	MOV	EDI,LC17
   945 0000088F 89 C1                           	MOV	ECX,EAX
   946 00000891 F3                              	REPE
   947 00000892 A6                              	CMPSB
   948 00000893 0F 84 000000E4                  	JE	L189
   949 00000899 B8 00000009                     	MOV	EAX,9
   950 0000089E 8B 75 E8                        	MOV	ESI,DWORD [-24+EBP]
   951 000008A1 FC                              	CLD
   952 000008A2 BF [000000C5]                   	MOV	EDI,LC18
   953 000008A7 89 C1                           	MOV	ECX,EAX
   954 000008A9 F3                              	REPE
   955 000008AA A6                              	CMPSB
   956 000008AB 0F 84 000000B7                  	JE	L190
   957 000008B1 B8 00000005                     	MOV	EAX,5
   958 000008B6 8B 75 E8                        	MOV	ESI,DWORD [-24+EBP]
   959 000008B9 FC                              	CLD
   960 000008BA BF [000000CF]                   	MOV	EDI,LC19
   961 000008BF 89 C1                           	MOV	ECX,EAX
   962 000008C1 F3                              	REPE
   963 000008C2 A6                              	CMPSB
   964 000008C3 0F 84 00000090                  	JE	L191
   965 000008C9 B8 00000009                     	MOV	EAX,9
   966 000008CE 8B 75 E8                        	MOV	ESI,DWORD [-24+EBP]
   967 000008D1 FC                              	CLD
   968 000008D2 BF [000000D4]                   	MOV	EDI,LC20
   969 000008D7 89 C1                           	MOV	ECX,EAX
   970 000008D9 F3                              	REPE
   971 000008DA A6                              	CMPSB
   972 000008DB 74 2F                           	JE	L159
   973 000008DD B8 00000008                     	MOV	EAX,8
   974 000008E2 8B 75 E8                        	MOV	ESI,DWORD [-24+EBP]
   975 000008E5 BF [000000DD]                   	MOV	EDI,LC21
   976 000008EA 89 C1                           	MOV	ECX,EAX
   977 000008EC F3                              	REPE
   978 000008ED A6                              	CMPSB
   979 000008EE 74 5A                           	JE	L192
   980 000008F0 B8 00000007                     	MOV	EAX,7
   981 000008F5 8B 75 E8                        	MOV	ESI,DWORD [-24+EBP]
   982 000008F8 FC                              	CLD
   983 000008F9 BF [000000E5]                   	MOV	EDI,LC22
   984 000008FE 89 C1                           	MOV	ECX,EAX
   985 00000900 F3                              	REPE
   986 00000901 A6                              	CMPSB
   987 00000902 74 37                           	JE	L193
   988 00000904 8B 45 E8                        	MOV	EAX,DWORD [-24+EBP]
   989 00000907 80 38 00                        	CMP	BYTE [EAX],0
   990 0000090A 75 08                           	JNE	L194
   991 0000090C                                 L159:
   992 0000090C 8D 65 F4                        	LEA	ESP,DWORD [-12+EBP]
   993 0000090F 5B                              	POP	EBX
   994 00000910 5E                              	POP	ESI
   995 00000911 5F                              	POP	EDI
   996 00000912 5D                              	POP	EBP
   997 00000913 C3                              	RET
   998 00000914                                 L194:
   999 00000914 50                              	PUSH	EAX
  1000 00000915 FF 75 F0                        	PUSH	DWORD [-16+EBP]
  1001 00000918 53                              	PUSH	EBX
  1002 00000919 E8 000003E0                     	CALL	_cmd_app
  1003 0000091E 83 C4 0C                        	ADD	ESP,12
  1004 00000921 85 C0                           	TEST	EAX,EAX
  1005 00000923 75 E7                           	JNE	L159
  1006 00000925 C7 45 0C [000000EC]             	MOV	DWORD [12+EBP],LC23
  1007 0000092C 89 5D 08                        	MOV	DWORD [8+EBP],EBX
  1008 0000092F 8D 65 F4                        	LEA	ESP,DWORD [-12+EBP]
  1009 00000932 5B                              	POP	EBX
  1010 00000933 5E                              	POP	ESI
  1011 00000934 5F                              	POP	EDI
  1012 00000935 5D                              	POP	EBP
  1013 00000936 E9 FFFFFE40                     	JMP	_cons_putstr0
  1014 0000093B                                 L193:
  1015 0000093B 89 5D 08                        	MOV	DWORD [8+EBP],EBX
  1016 0000093E 8D 65 F4                        	LEA	ESP,DWORD [-12+EBP]
  1017 00000941 5B                              	POP	EBX
  1018 00000942 5E                              	POP	ESI
  1019 00000943 5F                              	POP	EDI
  1020 00000944 5D                              	POP	EBP
  1021 00000945 E9 FFFFF916                     	JMP	_hdinfo
  1022 0000094A                                 L192:
  1023 0000094A 89 5D 08                        	MOV	DWORD [8+EBP],EBX
  1024 0000094D 8D 65 F4                        	LEA	ESP,DWORD [-12+EBP]
  1025 00000950 5B                              	POP	EBX
  1026 00000951 5E                              	POP	ESI
  1027 00000952 5F                              	POP	EDI
  1028 00000953 5D                              	POP	EBP
  1029 00000954 E9 0000009C                     	JMP	_ver
  1030 00000959                                 L191:
  1031 00000959 89 5D 08                        	MOV	DWORD [8+EBP],EBX
  1032 0000095C 8D 65 F4                        	LEA	ESP,DWORD [-12+EBP]
  1033 0000095F 5B                              	POP	EBX
  1034 00000960 5E                              	POP	ESI
  1035 00000961 5F                              	POP	EDI
  1036 00000962 5D                              	POP	EBP
  1037 00000963 E9 FFFFF71B                     	JMP	_printtime
  1038 00000968                                 L190:
  1039 00000968 8B 45 E8                        	MOV	EAX,DWORD [-24+EBP]
  1040 0000096B 89 5D 08                        	MOV	DWORD [8+EBP],EBX
  1041 0000096E 89 45 0C                        	MOV	DWORD [12+EBP],EAX
  1042 00000971 8D 65 F4                        	LEA	ESP,DWORD [-12+EBP]
  1043 00000974 5B                              	POP	EBX
  1044 00000975 5E                              	POP	ESI
  1045 00000976 5F                              	POP	EDI
  1046 00000977 5D                              	POP	EBP
  1047 00000978 E9 00000343                     	JMP	_cmd_langmode
  1048 0000097D                                 L189:
  1049 0000097D 8B 45 EC                        	MOV	EAX,DWORD [-20+EBP]
  1050 00000980 8B 4D E8                        	MOV	ECX,DWORD [-24+EBP]
  1051 00000983 89 45 10                        	MOV	DWORD [16+EBP],EAX
  1052 00000986 89 4D 0C                        	MOV	DWORD [12+EBP],ECX
  1053 00000989 89 5D 08                        	MOV	DWORD [8+EBP],EBX
  1054 0000098C 8D 65 F4                        	LEA	ESP,DWORD [-12+EBP]
  1055 0000098F 5B                              	POP	EBX
  1056 00000990 5E                              	POP	ESI
  1057 00000991 5F                              	POP	EDI
  1058 00000992 5D                              	POP	EBP
  1059 00000993 E9 000002C4                     	JMP	_cmd_ncst
  1060 00000998                                 L188:
  1061 00000998 8B 45 EC                        	MOV	EAX,DWORD [-20+EBP]
  1062 0000099B 8B 4D E8                        	MOV	ECX,DWORD [-24+EBP]
  1063 0000099E 89 45 10                        	MOV	DWORD [16+EBP],EAX
  1064 000009A1 89 4D 0C                        	MOV	DWORD [12+EBP],ECX
  1065 000009A4 89 5D 08                        	MOV	DWORD [8+EBP],EBX
  1066 000009A7 8D 65 F4                        	LEA	ESP,DWORD [-12+EBP]
  1067 000009AA 5B                              	POP	EBX
  1068 000009AB 5E                              	POP	ESI
  1069 000009AC 5F                              	POP	EDI
  1070 000009AD 5D                              	POP	EBP
  1071 000009AE E9 0000021F                     	JMP	_cmd_start
  1072 000009B3                                 L187:
  1073 000009B3 8B 45 F0                        	MOV	EAX,DWORD [-16+EBP]
  1074 000009B6 89 5D 08                        	MOV	DWORD [8+EBP],EBX
  1075 000009B9 89 45 0C                        	MOV	DWORD [12+EBP],EAX
  1076 000009BC 8D 65 F4                        	LEA	ESP,DWORD [-12+EBP]
  1077 000009BF 5B                              	POP	EBX
  1078 000009C0 5E                              	POP	ESI
  1079 000009C1 5F                              	POP	EDI
  1080 000009C2 5D                              	POP	EBP
  1081 000009C3 E9 00000172                     	JMP	_cmd_exit
  1082 000009C8                                 L186:
  1083 000009C8 89 5D 08                        	MOV	DWORD [8+EBP],EBX
  1084 000009CB 8D 65 F4                        	LEA	ESP,DWORD [-12+EBP]
  1085 000009CE 5B                              	POP	EBX
  1086 000009CF 5E                              	POP	ESI
  1087 000009D0 5F                              	POP	EDI
  1088 000009D1 5D                              	POP	EBP
  1089 000009D2 E9 000000CD                     	JMP	_cmd_dir
  1090 000009D7                                 L185:
  1091 000009D7 89 5D 08                        	MOV	DWORD [8+EBP],EBX
  1092 000009DA 8D 65 F4                        	LEA	ESP,DWORD [-12+EBP]
  1093 000009DD 5B                              	POP	EBX
  1094 000009DE 5E                              	POP	ESI
  1095 000009DF 5F                              	POP	EDI
  1096 000009E0 5D                              	POP	EBP
  1097 000009E1 EB 68                           	JMP	_cmd_cls
  1098 000009E3                                 L184:
  1099 000009E3 8B 45 EC                        	MOV	EAX,DWORD [-20+EBP]
  1100 000009E6 89 5D 08                        	MOV	DWORD [8+EBP],EBX
  1101 000009E9 89 45 0C                        	MOV	DWORD [12+EBP],EAX
  1102 000009EC 8D 65 F4                        	LEA	ESP,DWORD [-12+EBP]
  1103 000009EF 5B                              	POP	EBX
  1104 000009F0 5E                              	POP	ESI
  1105 000009F1 5F                              	POP	EDI
  1106 000009F2 5D                              	POP	EBP
  1107 000009F3 EB 15                           	JMP	_cmd_mem
  1108                                          [SECTION .data]
  1109 000000FB                                 LC24:
  1110 000000FB 48 61 72 69 62 6F 74 65 20 76   	DB	"Haribote version 0.2",0x0A,0x0A,0x00
       00000105 65 72 73 69 6F 6E 20 30 2E 32 
       0000010F 0A 0A 00 
  1111                                          [SECTION .text]
  1112 000009F5                                 	GLOBAL	_ver
  1113 000009F5                                 _ver:
  1114 000009F5 55                              	PUSH	EBP
  1115 000009F6 89 E5                           	MOV	EBP,ESP
  1116 000009F8 83 EC 40                        	SUB	ESP,64
  1117 000009FB 68 [000000FB]                   	PUSH	LC24
  1118 00000A00 FF 75 08                        	PUSH	DWORD [8+EBP]
  1119 00000A03 E8 FFFFFD73                     	CALL	_cons_putstr0
  1120 00000A08 C9                              	LEAVE
  1121 00000A09 C3                              	RET
  1122                                          [SECTION .data]
  1123 00000112                                 LC25:
  1124 00000112 74 6F 74 61 6C 20 20 20 25 64   	DB	"total   %dMB",0x0A,"free %dKB",0x0A,0x0A,0x00
       0000011C 4D 42 0A 66 72 65 65 20 25 64 
       00000126 4B 42 0A 0A 00 
  1125                                          [SECTION .text]
  1126 00000A0A                                 	GLOBAL	_cmd_mem
  1127 00000A0A                                 _cmd_mem:
  1128 00000A0A 55                              	PUSH	EBP
  1129 00000A0B 89 E5                           	MOV	EBP,ESP
  1130 00000A0D 53                              	PUSH	EBX
  1131 00000A0E 83 EC 40                        	SUB	ESP,64
  1132 00000A11 68 003C0000                     	PUSH	3932160
  1133 00000A16 E8 [00000000]                   	CALL	_memman_total
  1134 00000A1B BA 00100000                     	MOV	EDX,1048576
  1135 00000A20 C1 E8 0A                        	SHR	EAX,10
  1136 00000A23 89 D3                           	MOV	EBX,EDX
  1137 00000A25 89 04 24                        	MOV	DWORD [ESP],EAX
  1138 00000A28 8B 45 0C                        	MOV	EAX,DWORD [12+EBP]
  1139 00000A2B 99                              	CDQ
  1140 00000A2C F7 FB                           	IDIV	EBX
  1141 00000A2E 50                              	PUSH	EAX
  1142 00000A2F 8D 5D BC                        	LEA	EBX,DWORD [-68+EBP]
  1143 00000A32 68 [00000112]                   	PUSH	LC25
  1144 00000A37 53                              	PUSH	EBX
  1145 00000A38 E8 [00000000]                   	CALL	_sprintf
  1146 00000A3D 53                              	PUSH	EBX
  1147 00000A3E FF 75 08                        	PUSH	DWORD [8+EBP]
  1148 00000A41 E8 FFFFFD35                     	CALL	_cons_putstr0
  1149 00000A46 8B 5D FC                        	MOV	EBX,DWORD [-4+EBP]
  1150 00000A49 C9                              	LEAVE
  1151 00000A4A C3                              	RET
  1152 00000A4B                                 	GLOBAL	_cmd_cls
  1153 00000A4B                                 _cmd_cls:
  1154 00000A4B 55                              	PUSH	EBP
  1155 00000A4C 89 E5                           	MOV	EBP,ESP
  1156 00000A4E 57                              	PUSH	EDI
  1157 00000A4F 56                              	PUSH	ESI
  1158 00000A50 BE 0000001C                     	MOV	ESI,28
  1159 00000A55 8B 7D 08                        	MOV	EDI,DWORD [8+EBP]
  1160 00000A58 53                              	PUSH	EBX
  1161 00000A59 8B 1F                           	MOV	EBX,DWORD [EDI]
  1162 00000A5B                                 L207:
  1163 00000A5B B9 00000008                     	MOV	ECX,8
  1164 00000A60                                 L206:
  1165 00000A60 89 F0                           	MOV	EAX,ESI
  1166 00000A62 8B 13                           	MOV	EDX,DWORD [EBX]
  1167 00000A64 0F AF 43 04                     	IMUL	EAX,DWORD [4+EBX]
  1168 00000A68 8D 04 08                        	LEA	EAX,DWORD [EAX+ECX*1]
  1169 00000A6B 41                              	INC	ECX
  1170 00000A6C 81 F9 000000F7                  	CMP	ECX,247
  1171 00000A72 C6 04 10 00                     	MOV	BYTE [EAX+EDX*1],0
  1172 00000A76 7E E8                           	JLE	L206
  1173 00000A78 46                              	INC	ESI
  1174 00000A79 81 FE 0000009B                  	CMP	ESI,155
  1175 00000A7F 7E DA                           	JLE	L207
  1176 00000A81 68 0000009C                     	PUSH	156
  1177 00000A86 68 000000F8                     	PUSH	248
  1178 00000A8B 6A 1C                           	PUSH	28
  1179 00000A8D 6A 08                           	PUSH	8
  1180 00000A8F 53                              	PUSH	EBX
  1181 00000A90 E8 [00000000]                   	CALL	_sheet_refresh
  1182 00000A95 C7 47 08 0000001C               	MOV	DWORD [8+EDI],28
  1183 00000A9C 8D 65 F4                        	LEA	ESP,DWORD [-12+EBP]
  1184 00000A9F 5B                              	POP	EBX
  1185 00000AA0 5E                              	POP	ESI
  1186 00000AA1 5F                              	POP	EDI
  1187 00000AA2 5D                              	POP	EBP
  1188 00000AA3 C3                              	RET
  1189                                          [SECTION .data]
  1190 0000012B                                 LC26:
  1191 0000012B 66 69 6C 65 6E 61 6D 65 2E 65   	DB	"filename.ext   %7d",0x0A,0x00
       00000135 78 74 20 20 20 25 37 64 0A 00 
  1192                                          [SECTION .text]
  1193 00000AA4                                 	GLOBAL	_cmd_dir
  1194 00000AA4                                 _cmd_dir:
  1195 00000AA4 55                              	PUSH	EBP
  1196 00000AA5 89 E5                           	MOV	EBP,ESP
  1197 00000AA7 57                              	PUSH	EDI
  1198 00000AA8 56                              	PUSH	ESI
  1199 00000AA9 31 F6                           	XOR	ESI,ESI
  1200 00000AAB 53                              	PUSH	EBX
  1201 00000AAC 31 DB                           	XOR	EBX,EBX
  1202 00000AAE 83 EC 20                        	SUB	ESP,32
  1203 00000AB1 8B 7D 08                        	MOV	EDI,DWORD [8+EBP]
  1204 00000AB4                                 L225:
  1205 00000AB4 8A 83 00102600                  	MOV	AL,BYTE [1058304+EBX]
  1206 00000ABA 84 C0                           	TEST	AL,AL
  1207 00000ABC 74 19                           	JE	L214
  1208 00000ABE 3C E5                           	CMP	AL,-27
  1209 00000AC0 74 09                           	JE	L215
  1210 00000AC2 F6 83 0010260B 18               	TEST	BYTE [1058315+EBX],24
  1211 00000AC9 74 1A                           	JE	L229
  1212 00000ACB                                 L215:
  1213 00000ACB 46                              	INC	ESI
  1214 00000ACC 83 C3 20                        	ADD	EBX,32
  1215 00000ACF 81 FE 000000DF                  	CMP	ESI,223
  1216 00000AD5 7E DD                           	JLE	L225
  1217 00000AD7                                 L214:
  1218 00000AD7 57                              	PUSH	EDI
  1219 00000AD8 E8 FFFFFBB6                     	CALL	_cons_newline
  1220 00000ADD 8D 65 F4                        	LEA	ESP,DWORD [-12+EBP]
  1221 00000AE0 5B                              	POP	EBX
  1222 00000AE1 5E                              	POP	ESI
  1223 00000AE2 5F                              	POP	EDI
  1224 00000AE3 5D                              	POP	EBP
  1225 00000AE4 C3                              	RET
  1226 00000AE5                                 L229:
  1227 00000AE5 FF B3 0010261C                  	PUSH	DWORD [1058332+EBX]
  1228 00000AEB 68 [0000012B]                   	PUSH	LC26
  1229 00000AF0 8D 45 D4                        	LEA	EAX,DWORD [-44+EBP]
  1230 00000AF3 50                              	PUSH	EAX
  1231 00000AF4 E8 [00000000]                   	CALL	_sprintf
  1232 00000AF9 8D 93 00102600                  	LEA	EDX,DWORD [1058304+EBX]
  1233 00000AFF 31 C9                           	XOR	ECX,ECX
  1234 00000B01 83 C4 0C                        	ADD	ESP,12
  1235 00000B04                                 L224:
  1236 00000B04 8A 02                           	MOV	AL,BYTE [EDX]
  1237 00000B06 42                              	INC	EDX
  1238 00000B07 88 44 0D D4                     	MOV	BYTE [-44+EBP+ECX*1],AL
  1239 00000B0B 41                              	INC	ECX
  1240 00000B0C 83 F9 07                        	CMP	ECX,7
  1241 00000B0F 7E F3                           	JLE	L224
  1242 00000B11 8A 83 00102608                  	MOV	AL,BYTE [1058312+EBX]
  1243 00000B17 88 45 DD                        	MOV	BYTE [-35+EBP],AL
  1244 00000B1A 8A 83 00102609                  	MOV	AL,BYTE [1058313+EBX]
  1245 00000B20 88 45 DE                        	MOV	BYTE [-34+EBP],AL
  1246 00000B23 8A 83 0010260A                  	MOV	AL,BYTE [1058314+EBX]
  1247 00000B29 88 45 DF                        	MOV	BYTE [-33+EBP],AL
  1248 00000B2C 8D 45 D4                        	LEA	EAX,DWORD [-44+EBP]
  1249 00000B2F 50                              	PUSH	EAX
  1250 00000B30 57                              	PUSH	EDI
  1251 00000B31 E8 FFFFFC45                     	CALL	_cons_putstr0
  1252 00000B36 58                              	POP	EAX
  1253 00000B37 5A                              	POP	EDX
  1254 00000B38 EB 91                           	JMP	L215
  1255 00000B3A                                 	GLOBAL	_cmd_exit
  1256 00000B3A                                 _cmd_exit:
  1257 00000B3A 55                              	PUSH	EBP
  1258 00000B3B 89 E5                           	MOV	EBP,ESP
  1259 00000B3D 57                              	PUSH	EDI
  1260 00000B3E 56                              	PUSH	ESI
  1261 00000B3F 53                              	PUSH	EBX
  1262 00000B40 50                              	PUSH	EAX
  1263 00000B41 8B 5D 08                        	MOV	EBX,DWORD [8+EBP]
  1264 00000B44 E8 [00000000]                   	CALL	_task_now
  1265 00000B49 8B 35 00000FE4                  	MOV	ESI,DWORD [4068]
  1266 00000B4F 8B 3D 00000FEC                  	MOV	EDI,DWORD [4076]
  1267 00000B55 89 45 F0                        	MOV	DWORD [-16+EBP],EAX
  1268 00000B58 83 3B 00                        	CMP	DWORD [EBX],0
  1269 00000B5B 74 09                           	JE	L231
  1270 00000B5D FF 73 10                        	PUSH	DWORD [16+EBX]
  1271 00000B60 E8 [00000000]                   	CALL	_timer_cancel
  1272 00000B65 58                              	POP	EAX
  1273 00000B66                                 L231:
  1274 00000B66 68 00002D00                     	PUSH	11520
  1275 00000B6B FF 75 0C                        	PUSH	DWORD [12+EBP]
  1276 00000B6E 68 003C0000                     	PUSH	3932160
  1277 00000B73 E8 [00000000]                   	CALL	_memman_free_4k
  1278 00000B78 E8 [00000000]                   	CALL	_io_cli
  1279 00000B7D 8B 03                           	MOV	EAX,DWORD [EBX]
  1280 00000B7F 83 C4 0C                        	ADD	ESP,12
  1281 00000B82 85 C0                           	TEST	EAX,EAX
  1282 00000B84 74 2E                           	JE	L232
  1283 00000B86 29 F0                           	SUB	EAX,ESI
  1284 00000B88 2D 00000414                     	SUB	EAX,1044
  1285 00000B8D C1 F8 03                        	SAR	EAX,3
  1286 00000B90 69 C0 CCCCCCCD                  	IMUL	EAX,EAX,-858993459
  1287 00000B96 05 00000300                     	ADD	EAX,768
  1288 00000B9B                                 L237:
  1289 00000B9B 50                              	PUSH	EAX
  1290 00000B9C 57                              	PUSH	EDI
  1291 00000B9D E8 [00000000]                   	CALL	_fifo32_put
  1292 00000BA2 5B                              	POP	EBX
  1293 00000BA3 5E                              	POP	ESI
  1294 00000BA4 E8 [00000000]                   	CALL	_io_sti
  1295 00000BA9                                 L234:
  1296 00000BA9 FF 75 F0                        	PUSH	DWORD [-16+EBP]
  1297 00000BAC E8 [00000000]                   	CALL	_task_sleep
  1298 00000BB1 59                              	POP	ECX
  1299 00000BB2 EB F5                           	JMP	L234
  1300 00000BB4                                 L232:
  1301 00000BB4 8B 45 F0                        	MOV	EAX,DWORD [-16+EBP]
  1302 00000BB7 2B 05 [00000000]                	SUB	EAX,DWORD [_taskctl]
  1303 00000BBD 2D 00000FFC                     	SUB	EAX,4092
  1304 00000BC2 C1 F8 03                        	SAR	EAX,3
  1305 00000BC5 69 C0 96F96F97                  	IMUL	EAX,EAX,-1762037865
  1306 00000BCB 05 00000400                     	ADD	EAX,1024
  1307 00000BD0 EB C9                           	JMP	L237
  1308 00000BD2                                 	GLOBAL	_cmd_start
  1309 00000BD2                                 _cmd_start:
  1310 00000BD2 55                              	PUSH	EBP
  1311 00000BD3 89 E5                           	MOV	EBP,ESP
  1312 00000BD5 57                              	PUSH	EDI
  1313 00000BD6 56                              	PUSH	ESI
  1314 00000BD7 53                              	PUSH	EBX
  1315 00000BD8 57                              	PUSH	EDI
  1316 00000BD9 57                              	PUSH	EDI
  1317 00000BDA 8B 45 08                        	MOV	EAX,DWORD [8+EBP]
  1318 00000BDD 8B 7D 0C                        	MOV	EDI,DWORD [12+EBP]
  1319 00000BE0 8B 35 00000FE4                  	MOV	ESI,DWORD [4068]
  1320 00000BE6 89 45 F0                        	MOV	DWORD [-16+EBP],EAX
  1321 00000BE9 FF 75 10                        	PUSH	DWORD [16+EBP]
  1322 00000BEC 56                              	PUSH	ESI
  1323 00000BED E8 [00000000]                   	CALL	_open_console
  1324 00000BF2 89 C3                           	MOV	EBX,EAX
  1325 00000BF4 8B 40 24                        	MOV	EAX,DWORD [36+EAX]
  1326 00000BF7 83 C0 10                        	ADD	EAX,16
  1327 00000BFA 89 45 EC                        	MOV	DWORD [-20+EBP],EAX
  1328 00000BFD 6A 04                           	PUSH	4
  1329 00000BFF 6A 20                           	PUSH	32
  1330 00000C01 53                              	PUSH	EBX
  1331 00000C02 E8 [00000000]                   	CALL	_sheet_slide
  1332 00000C07 FF 76 10                        	PUSH	DWORD [16+ESI]
  1333 00000C0A 53                              	PUSH	EBX
  1334 00000C0B BB 00000006                     	MOV	EBX,6
  1335 00000C10 E8 [00000000]                   	CALL	_sheet_updown
  1336 00000C15 83 C4 1C                        	ADD	ESP,28
  1337 00000C18 80 7F 06 00                     	CMP	BYTE [6+EDI],0
  1338 00000C1C 75 21                           	JNE	L243
  1339 00000C1E                                 L245:
  1340 00000C1E 68 0000010A                     	PUSH	266
  1341 00000C23 FF 75 EC                        	PUSH	DWORD [-20+EBP]
  1342 00000C26 E8 [00000000]                   	CALL	_fifo32_put
  1343 00000C2B 58                              	POP	EAX
  1344 00000C2C 8B 45 F0                        	MOV	EAX,DWORD [-16+EBP]
  1345 00000C2F 5A                              	POP	EDX
  1346 00000C30 89 45 08                        	MOV	DWORD [8+EBP],EAX
  1347 00000C33 8D 65 F4                        	LEA	ESP,DWORD [-12+EBP]
  1348 00000C36 5B                              	POP	EBX
  1349 00000C37 5E                              	POP	ESI
  1350 00000C38 5F                              	POP	EDI
  1351 00000C39 5D                              	POP	EBP
  1352 00000C3A E9 FFFFFA54                     	JMP	_cons_newline
  1353 00000C3F                                 L243:
  1354 00000C3F 0F BE 04 3B                     	MOVSX	EAX,BYTE [EBX+EDI*1]
  1355 00000C43 05 00000100                     	ADD	EAX,256
  1356 00000C48 43                              	INC	EBX
  1357 00000C49 50                              	PUSH	EAX
  1358 00000C4A FF 75 EC                        	PUSH	DWORD [-20+EBP]
  1359 00000C4D E8 [00000000]                   	CALL	_fifo32_put
  1360 00000C52 80 3C 3B 00                     	CMP	BYTE [EBX+EDI*1],0
  1361 00000C56 59                              	POP	ECX
  1362 00000C57 5E                              	POP	ESI
  1363 00000C58 75 E5                           	JNE	L243
  1364 00000C5A EB C2                           	JMP	L245
  1365 00000C5C                                 	GLOBAL	_cmd_ncst
  1366 00000C5C                                 _cmd_ncst:
  1367 00000C5C 55                              	PUSH	EBP
  1368 00000C5D 89 E5                           	MOV	EBP,ESP
  1369 00000C5F 57                              	PUSH	EDI
  1370 00000C60 56                              	PUSH	ESI
  1371 00000C61 BE 00000005                     	MOV	ESI,5
  1372 00000C66 53                              	PUSH	EBX
  1373 00000C67 51                              	PUSH	ECX
  1374 00000C68 8B 45 08                        	MOV	EAX,DWORD [8+EBP]
  1375 00000C6B 8B 5D 0C                        	MOV	EBX,DWORD [12+EBP]
  1376 00000C6E 89 45 F0                        	MOV	DWORD [-16+EBP],EAX
  1377 00000C71 FF 75 10                        	PUSH	DWORD [16+EBP]
  1378 00000C74 6A 00                           	PUSH	0
  1379 00000C76 E8 [00000000]                   	CALL	_open_constask
  1380 00000C7B 80 7B 05 00                     	CMP	BYTE [5+EBX],0
  1381 00000C7F 8D 78 10                        	LEA	EDI,DWORD [16+EAX]
  1382 00000C82 58                              	POP	EAX
  1383 00000C83 5A                              	POP	EDX
  1384 00000C84 75 1F                           	JNE	L251
  1385 00000C86                                 L253:
  1386 00000C86 68 0000010A                     	PUSH	266
  1387 00000C8B 57                              	PUSH	EDI
  1388 00000C8C E8 [00000000]                   	CALL	_fifo32_put
  1389 00000C91 58                              	POP	EAX
  1390 00000C92 8B 45 F0                        	MOV	EAX,DWORD [-16+EBP]
  1391 00000C95 5A                              	POP	EDX
  1392 00000C96 89 45 08                        	MOV	DWORD [8+EBP],EAX
  1393 00000C99 8D 65 F4                        	LEA	ESP,DWORD [-12+EBP]
  1394 00000C9C 5B                              	POP	EBX
  1395 00000C9D 5E                              	POP	ESI
  1396 00000C9E 5F                              	POP	EDI
  1397 00000C9F 5D                              	POP	EBP
  1398 00000CA0 E9 FFFFF9EE                     	JMP	_cons_newline
  1399 00000CA5                                 L251:
  1400 00000CA5 0F BE 04 1E                     	MOVSX	EAX,BYTE [ESI+EBX*1]
  1401 00000CA9 05 00000100                     	ADD	EAX,256
  1402 00000CAE 46                              	INC	ESI
  1403 00000CAF 50                              	PUSH	EAX
  1404 00000CB0 57                              	PUSH	EDI
  1405 00000CB1 E8 [00000000]                   	CALL	_fifo32_put
  1406 00000CB6 80 3C 1E 00                     	CMP	BYTE [ESI+EBX*1],0
  1407 00000CBA 59                              	POP	ECX
  1408 00000CBB 58                              	POP	EAX
  1409 00000CBC 75 E7                           	JNE	L251
  1410 00000CBE EB C6                           	JMP	L253
  1411                                          [SECTION .data]
  1412 0000013F                                 LC27:
  1413 0000013F 6D 6F 64 65 20 6E 75 6D 62 65   	DB	"mode number error.",0x0A,0x00
       00000149 72 20 65 72 72 6F 72 2E 0A 00 
  1414                                          [SECTION .text]
  1415 00000CC0                                 	GLOBAL	_cmd_langmode
  1416 00000CC0                                 _cmd_langmode:
  1417 00000CC0 55                              	PUSH	EBP
  1418 00000CC1 89 E5                           	MOV	EBP,ESP
  1419 00000CC3 56                              	PUSH	ESI
  1420 00000CC4 53                              	PUSH	EBX
  1421 00000CC5 8B 5D 0C                        	MOV	EBX,DWORD [12+EBP]
  1422 00000CC8 8B 75 08                        	MOV	ESI,DWORD [8+EBP]
  1423 00000CCB E8 [00000000]                   	CALL	_task_now
  1424 00000CD0 8A 53 09                        	MOV	DL,BYTE [9+EBX]
  1425 00000CD3 83 EA 30                        	SUB	EDX,48
  1426 00000CD6 80 FA 02                        	CMP	DL,2
  1427 00000CD9 77 14                           	JA	L255
  1428 00000CDB 88 90 00000128                  	MOV	BYTE [296+EAX],DL
  1429 00000CE1                                 L256:
  1430 00000CE1 89 75 08                        	MOV	DWORD [8+EBP],ESI
  1431 00000CE4 8D 65 F8                        	LEA	ESP,DWORD [-8+EBP]
  1432 00000CE7 5B                              	POP	EBX
  1433 00000CE8 5E                              	POP	ESI
  1434 00000CE9 5D                              	POP	EBP
  1435 00000CEA E9 FFFFF9A4                     	JMP	_cons_newline
  1436 00000CEF                                 L255:
  1437 00000CEF 68 [0000013F]                   	PUSH	LC27
  1438 00000CF4 56                              	PUSH	ESI
  1439 00000CF5 E8 FFFFFA81                     	CALL	_cons_putstr0
  1440 00000CFA 5B                              	POP	EBX
  1441 00000CFB 58                              	POP	EAX
  1442 00000CFC EB E3                           	JMP	L256
  1443                                          [SECTION .data]
  1444 00000153                                 LC28:
  1445 00000153 48 61 72 69 00                  	DB	"Hari",0x00
  1446 00000158                                 LC29:
  1447 00000158 2E 68 72 62 20 66 69 6C 65 20   	DB	".hrb file format error.",0x0A,0x00
       00000162 66 6F 72 6D 61 74 20 65 72 72 
       0000016C 6F 72 2E 0A 00 
  1448                                          [SECTION .text]
  1449 00000CFE                                 	GLOBAL	_cmd_app
  1450 00000CFE                                 _cmd_app:
  1451 00000CFE 55                              	PUSH	EBP
  1452 00000CFF 89 E5                           	MOV	EBP,ESP
  1453 00000D01 57                              	PUSH	EDI
  1454 00000D02 56                              	PUSH	ESI
  1455 00000D03 31 F6                           	XOR	ESI,ESI
  1456 00000D05 53                              	PUSH	EBX
  1457 00000D06 83 EC 34                        	SUB	ESP,52
  1458 00000D09 8B 5D 10                        	MOV	EBX,DWORD [16+EBP]
  1459 00000D0C E8 [00000000]                   	CALL	_task_now
  1460 00000D11 89 45 C8                        	MOV	DWORD [-56+EBP],EAX
  1461 00000D14                                 L263:
  1462 00000D14 8A 04 1E                        	MOV	AL,BYTE [ESI+EBX*1]
  1463 00000D17 3C 20                           	CMP	AL,32
  1464 00000D19 7E 0A                           	JLE	L259
  1465 00000D1B 88 44 35 D4                     	MOV	BYTE [-44+EBP+ESI*1],AL
  1466 00000D1F 46                              	INC	ESI
  1467 00000D20 83 FE 0C                        	CMP	ESI,12
  1468 00000D23 7E EF                           	JLE	L263
  1469 00000D25                                 L259:
  1470 00000D25 68 000000E0                     	PUSH	224
  1471 00000D2A 8D 5D D4                        	LEA	EBX,DWORD [-44+EBP]
  1472 00000D2D 68 00102600                     	PUSH	1058304
  1473 00000D32 53                              	PUSH	EBX
  1474 00000D33 C6 44 35 D4 00                  	MOV	BYTE [-44+EBP+ESI*1],0
  1475 00000D38 E8 [00000000]                   	CALL	_file_search
  1476 00000D3D 83 C4 0C                        	ADD	ESP,12
  1477 00000D40 89 C2                           	MOV	EDX,EAX
  1478 00000D42 85 C0                           	TEST	EAX,EAX
  1479 00000D44 0F 84 000001B6                  	JE	L293
  1480 00000D4A                                 L292:
  1481 00000D4A 8B 42 1C                        	MOV	EAX,DWORD [28+EDX]
  1482 00000D4D 89 45 D0                        	MOV	DWORD [-48+EBP],EAX
  1483 00000D50 8D 45 D0                        	LEA	EAX,DWORD [-48+EBP]
  1484 00000D53 FF 75 0C                        	PUSH	DWORD [12+EBP]
  1485 00000D56 50                              	PUSH	EAX
  1486 00000D57 0F B7 42 1A                     	MOVZX	EAX,WORD [26+EDX]
  1487 00000D5B 50                              	PUSH	EAX
  1488 00000D5C E8 [00000000]                   	CALL	_file_loadfile2
  1489 00000D61 83 C4 0C                        	ADD	ESP,12
  1490 00000D64 83 7D D0 23                     	CMP	DWORD [-48+EBP],35
  1491 00000D68 89 45 CC                        	MOV	DWORD [-52+EBP],EAX
  1492 00000D6B 7E 1C                           	JLE	L266
  1493 00000D6D 89 C6                           	MOV	ESI,EAX
  1494 00000D6F BF [00000153]                   	MOV	EDI,LC28
  1495 00000D74 FC                              	CLD
  1496 00000D75 83 C6 04                        	ADD	ESI,4
  1497 00000D78 B9 00000004                     	MOV	ECX,4
  1498 00000D7D F3                              	REPE
  1499 00000D7E A6                              	CMPSB
  1500 00000D7F 75 08                           	JNE	L266
  1501 00000D81 8B 45 CC                        	MOV	EAX,DWORD [-52+EBP]
  1502 00000D84 80 38 00                        	CMP	BYTE [EAX],0
  1503 00000D87 74 34                           	JE	L294
  1504 00000D89                                 L266:
  1505 00000D89 68 [00000158]                   	PUSH	LC29
  1506 00000D8E FF 75 08                        	PUSH	DWORD [8+EBP]
  1507 00000D91 E8 FFFFF9E5                     	CALL	_cons_putstr0
  1508 00000D96 58                              	POP	EAX
  1509 00000D97 5A                              	POP	EDX
  1510 00000D98                                 L284:
  1511 00000D98 FF 75 D0                        	PUSH	DWORD [-48+EBP]
  1512 00000D9B FF 75 CC                        	PUSH	DWORD [-52+EBP]
  1513 00000D9E 68 003C0000                     	PUSH	3932160
  1514 00000DA3 E8 [00000000]                   	CALL	_memman_free_4k
  1515 00000DA8 FF 75 08                        	PUSH	DWORD [8+EBP]
  1516 00000DAB E8 FFFFF8E3                     	CALL	_cons_newline
  1517 00000DB0 B8 00000001                     	MOV	EAX,1
  1518 00000DB5                                 L257:
  1519 00000DB5 8D 65 F4                        	LEA	ESP,DWORD [-12+EBP]
  1520 00000DB8 5B                              	POP	EBX
  1521 00000DB9 5E                              	POP	ESI
  1522 00000DBA 5F                              	POP	EDI
  1523 00000DBB 5D                              	POP	EBP
  1524 00000DBC C3                              	RET
  1525 00000DBD                                 L294:
  1526 00000DBD 8B 10                           	MOV	EDX,DWORD [EAX]
  1527 00000DBF 8B 40 0C                        	MOV	EAX,DWORD [12+EAX]
  1528 00000DC2 89 55 C4                        	MOV	DWORD [-60+EBP],EDX
  1529 00000DC5 89 45 C0                        	MOV	DWORD [-64+EBP],EAX
  1530 00000DC8 8B 55 CC                        	MOV	EDX,DWORD [-52+EBP]
  1531 00000DCB 8B 5A 10                        	MOV	EBX,DWORD [16+EDX]
  1532 00000DCE 8B 72 14                        	MOV	ESI,DWORD [20+EDX]
  1533 00000DD1 FF 75 C4                        	PUSH	DWORD [-60+EBP]
  1534 00000DD4 68 003C0000                     	PUSH	3932160
  1535 00000DD9 E8 [00000000]                   	CALL	_memman_alloc_4k
  1536 00000DDE 89 C7                           	MOV	EDI,EAX
  1537 00000DE0 8B 45 C8                        	MOV	EAX,DWORD [-56+EBP]
  1538 00000DE3 89 B8 00000114                  	MOV	DWORD [276+EAX],EDI
  1539 00000DE9 8B 45 D0                        	MOV	EAX,DWORD [-48+EBP]
  1540 00000DEC 68 000040FA                     	PUSH	16634
  1541 00000DF1 48                              	DEC	EAX
  1542 00000DF2 FF 75 CC                        	PUSH	DWORD [-52+EBP]
  1543 00000DF5 50                              	PUSH	EAX
  1544 00000DF6 8B 45 C8                        	MOV	EAX,DWORD [-56+EBP]
  1545 00000DF9 05 00000100                     	ADD	EAX,256
  1546 00000DFE 50                              	PUSH	EAX
  1547 00000DFF E8 [00000000]                   	CALL	_set_segmdesc
  1548 00000E04 8B 45 C4                        	MOV	EAX,DWORD [-60+EBP]
  1549 00000E07 68 000040F2                     	PUSH	16626
  1550 00000E0C 48                              	DEC	EAX
  1551 00000E0D 57                              	PUSH	EDI
  1552 00000E0E 50                              	PUSH	EAX
  1553 00000E0F 8B 45 C8                        	MOV	EAX,DWORD [-56+EBP]
  1554 00000E12 05 00000108                     	ADD	EAX,264
  1555 00000E17 50                              	PUSH	EAX
  1556 00000E18 E8 [00000000]                   	CALL	_set_segmdesc
  1557 00000E1D 83 C4 28                        	ADD	ESP,40
  1558 00000E20 85 DB                           	TEST	EBX,EBX
  1559 00000E22 7E 16                           	JLE	L287
  1560 00000E24 8B 45 CC                        	MOV	EAX,DWORD [-52+EBP]
  1561 00000E27 8B 4D C0                        	MOV	ECX,DWORD [-64+EBP]
  1562 00000E2A 01 F9                           	ADD	ECX,EDI
  1563 00000E2C 8D 14 30                        	LEA	EDX,DWORD [EAX+ESI*1]
  1564 00000E2F 89 DE                           	MOV	ESI,EBX
  1565 00000E31                                 L271:
  1566 00000E31 8A 02                           	MOV	AL,BYTE [EDX]
  1567 00000E33 42                              	INC	EDX
  1568 00000E34 88 01                           	MOV	BYTE [ECX],AL
  1569 00000E36 41                              	INC	ECX
  1570 00000E37 4E                              	DEC	ESI
  1571 00000E38 75 F7                           	JNE	L271
  1572 00000E3A                                 L287:
  1573 00000E3A 8B 45 C8                        	MOV	EAX,DWORD [-56+EBP]
  1574 00000E3D BE 000000FF                     	MOV	ESI,255
  1575 00000E42 83 C0 30                        	ADD	EAX,48
  1576 00000E45 50                              	PUSH	EAX
  1577 00000E46 6A 0C                           	PUSH	12
  1578 00000E48 FF 75 C0                        	PUSH	DWORD [-64+EBP]
  1579 00000E4B 6A 04                           	PUSH	4
  1580 00000E4D 6A 1B                           	PUSH	27
  1581 00000E4F E8 [00000000]                   	CALL	_start_app
  1582 00000E54 8B 1D 00000FE4                  	MOV	EBX,DWORD [4068]
  1583 00000E5A 83 C4 14                        	ADD	ESP,20
  1584 00000E5D 81 C3 00000414                  	ADD	EBX,1044
  1585 00000E63                                 L277:
  1586 00000E63 8B 43 1C                        	MOV	EAX,DWORD [28+EBX]
  1587 00000E66 83 E0 11                        	AND	EAX,17
  1588 00000E69 83 F8 11                        	CMP	EAX,17
  1589 00000E6C 74 7A                           	JE	L295
  1590 00000E6E                                 L274:
  1591 00000E6E 83 C3 28                        	ADD	EBX,40
  1592 00000E71 4E                              	DEC	ESI
  1593 00000E72 79 EF                           	JNS	L277
  1594 00000E74 31 DB                           	XOR	EBX,EBX
  1595 00000E76 BE 00000007                     	MOV	ESI,7
  1596 00000E7B                                 L283:
  1597 00000E7B 8B 55 C8                        	MOV	EDX,DWORD [-56+EBP]
  1598 00000E7E 8B 82 0000011C                  	MOV	EAX,DWORD [284+EDX]
  1599 00000E84 83 3C 18 00                     	CMP	DWORD [EAX+EBX*1],0
  1600 00000E88 75 32                           	JNE	L296
  1601 00000E8A                                 L280:
  1602 00000E8A 83 C3 0C                        	ADD	EBX,12
  1603 00000E8D 4E                              	DEC	ESI
  1604 00000E8E 79 EB                           	JNS	L283
  1605 00000E90 8B 45 C8                        	MOV	EAX,DWORD [-56+EBP]
  1606 00000E93 83 C0 10                        	ADD	EAX,16
  1607 00000E96 50                              	PUSH	EAX
  1608 00000E97 E8 [00000000]                   	CALL	_timer_cancelall
  1609 00000E9C FF 75 C4                        	PUSH	DWORD [-60+EBP]
  1610 00000E9F 57                              	PUSH	EDI
  1611 00000EA0 68 003C0000                     	PUSH	3932160
  1612 00000EA5 E8 [00000000]                   	CALL	_memman_free_4k
  1613 00000EAA 83 C4 10                        	ADD	ESP,16
  1614 00000EAD 8B 45 C8                        	MOV	EAX,DWORD [-56+EBP]
  1615 00000EB0 C6 80 00000129 00               	MOV	BYTE [297+EAX],0
  1616 00000EB7 E9 FFFFFEDC                     	JMP	L284
  1617 00000EBC                                 L296:
  1618 00000EBC FF 74 18 04                     	PUSH	DWORD [4+EAX+EBX*1]
  1619 00000EC0 8B 82 0000011C                  	MOV	EAX,DWORD [284+EDX]
  1620 00000EC6 FF 34 18                        	PUSH	DWORD [EAX+EBX*1]
  1621 00000EC9 68 003C0000                     	PUSH	3932160
  1622 00000ECE E8 [00000000]                   	CALL	_memman_free_4k
  1623 00000ED3 83 C4 0C                        	ADD	ESP,12
  1624 00000ED6 8B 55 C8                        	MOV	EDX,DWORD [-56+EBP]
  1625 00000ED9 8B 82 0000011C                  	MOV	EAX,DWORD [284+EDX]
  1626 00000EDF C7 04 18 00000000               	MOV	DWORD [EAX+EBX*1],0
  1627 00000EE6 EB A2                           	JMP	L280
  1628 00000EE8                                 L295:
  1629 00000EE8 8B 55 C8                        	MOV	EDX,DWORD [-56+EBP]
  1630 00000EEB 39 53 24                        	CMP	DWORD [36+EBX],EDX
  1631 00000EEE 0F 85 FFFFFF7A                  	JNE	L274
  1632 00000EF4 53                              	PUSH	EBX
  1633 00000EF5 E8 [00000000]                   	CALL	_sheet_free
  1634 00000EFA 59                              	POP	ECX
  1635 00000EFB E9 FFFFFF6E                     	JMP	L274
  1636 00000F00                                 L293:
  1637 00000F00 80 7C 35 D3 2E                  	CMP	BYTE [-45+EBP+ESI*1],46
  1638 00000F05 74 2E                           	JE	L264
  1639 00000F07 68 000000E0                     	PUSH	224
  1640 00000F0C 68 00102600                     	PUSH	1058304
  1641 00000F11 53                              	PUSH	EBX
  1642 00000F12 C6 44 35 D4 2E                  	MOV	BYTE [-44+EBP+ESI*1],46
  1643 00000F17 C6 44 35 D5 48                  	MOV	BYTE [-43+EBP+ESI*1],72
  1644 00000F1C C6 44 35 D6 52                  	MOV	BYTE [-42+EBP+ESI*1],82
  1645 00000F21 C6 44 35 D7 42                  	MOV	BYTE [-41+EBP+ESI*1],66
  1646 00000F26 C6 44 35 D8 00                  	MOV	BYTE [-40+EBP+ESI*1],0
  1647 00000F2B E8 [00000000]                   	CALL	_file_search
  1648 00000F30 83 C4 0C                        	ADD	ESP,12
  1649 00000F33 89 C2                           	MOV	EDX,EAX
  1650 00000F35                                 L264:
  1651 00000F35 85 D2                           	TEST	EDX,EDX
  1652 00000F37 0F 85 FFFFFE0D                  	JNE	L292
  1653 00000F3D 31 C0                           	XOR	EAX,EAX
  1654 00000F3F E9 FFFFFE71                     	JMP	L257
  1655 00000F44                                 	GLOBAL	_hrb_api
  1656 00000F44                                 _hrb_api:
  1657 00000F44 55                              	PUSH	EBP
  1658 00000F45 89 E5                           	MOV	EBP,ESP
  1659 00000F47 57                              	PUSH	EDI
  1660 00000F48 56                              	PUSH	ESI
  1661 00000F49 53                              	PUSH	EBX
  1662 00000F4A 83 EC 24                        	SUB	ESP,36
  1663 00000F4D 8B 75 1C                        	MOV	ESI,DWORD [28+EBP]
  1664 00000F50 E8 [00000000]                   	CALL	_task_now
  1665 00000F55 8B 0D 00000FE4                  	MOV	ECX,DWORD [4068]
  1666 00000F5B 89 45 E0                        	MOV	DWORD [-32+EBP],EAX
  1667 00000F5E 89 4D D8                        	MOV	DWORD [-40+EBP],ECX
  1668 00000F61 8B 80 00000114                  	MOV	EAX,DWORD [276+EAX]
  1669 00000F67 8B 55 E0                        	MOV	EDX,DWORD [-32+EBP]
  1670 00000F6A 89 45 DC                        	MOV	DWORD [-36+EBP],EAX
  1671 00000F6D A1 00000FEC                     	MOV	EAX,DWORD [4076]
  1672 00000F72 89 45 D4                        	MOV	DWORD [-44+EBP],EAX
  1673 00000F75 8B 9A 00000110                  	MOV	EBX,DWORD [272+EDX]
  1674 00000F7B 8D 45 E4                        	LEA	EAX,DWORD [-28+EBP]
  1675 00000F7E 50                              	PUSH	EAX
  1676 00000F7F E8 FFFFF2C9                     	CALL	_time2TIME
  1677 00000F84 83 FE 01                        	CMP	ESI,1
  1678 00000F87 0F 84 0000066C                  	JE	L413
  1679 00000F8D 83 FE 02                        	CMP	ESI,2
  1680 00000F90 0F 84 00000651                  	JE	L414
  1681 00000F96 83 FE 03                        	CMP	ESI,3
  1682 00000F99 0F 84 00000633                  	JE	L415
  1683 00000F9F 83 FE 04                        	CMP	ESI,4
  1684 00000FA2 0F 84 0000061F                  	JE	L416
  1685 00000FA8 83 FE 05                        	CMP	ESI,5
  1686 00000FAB 0F 84 0000059B                  	JE	L417
  1687 00000FB1 83 FE 06                        	CMP	ESI,6
  1688 00000FB4 0F 84 00000546                  	JE	L418
  1689 00000FBA 83 FE 07                        	CMP	ESI,7
  1690 00000FBD 0F 84 00000507                  	JE	L419
  1691 00000FC3 83 FE 08                        	CMP	ESI,8
  1692 00000FC6 0F 84 000004DA                  	JE	L420
  1693 00000FCC 83 FE 09                        	CMP	ESI,9
  1694 00000FCF 0F 84 000004B3                  	JE	L421
  1695 00000FD5 83 FE 0A                        	CMP	ESI,10
  1696 00000FD8 0F 84 0000048C                  	JE	L422
  1697 00000FDE 83 FE 0B                        	CMP	ESI,11
  1698 00000FE1 0F 84 0000044C                  	JE	L423
  1699 00000FE7 83 FE 0C                        	CMP	ESI,12
  1700 00000FEA 0F 84 00000432                  	JE	L424
  1701 00000FF0 83 FE 0D                        	CMP	ESI,13
  1702 00000FF3 0F 84 000003BE                  	JE	L425
  1703 00000FF9 83 FE 0E                        	CMP	ESI,14
  1704 00000FFC 0F 84 000003A8                  	JE	L426
  1705 00001002 83 FE 0F                        	CMP	ESI,15
  1706 00001005 0F 84 000002B7                  	JE	L333
  1707 0000100B 83 FE 10                        	CMP	ESI,16
  1708 0000100E 0F 84 0000029D                  	JE	L427
  1709 00001014 83 FE 11                        	CMP	ESI,17
  1710 00001017 0F 84 00000277                  	JE	L428
  1711 0000101D 83 FE 12                        	CMP	ESI,18
  1712 00001020 0F 84 0000025C                  	JE	L429
  1713 00001026 83 FE 13                        	CMP	ESI,19
  1714 00001029 0F 84 00000245                  	JE	L430
  1715 0000102F 83 FE 14                        	CMP	ESI,20
  1716 00001032 0F 84 000001C9                  	JE	L431
  1717 00001038 83 FE 15                        	CMP	ESI,21
  1718 0000103B 0F 84 0000013D                  	JE	L432
  1719 00001041 83 FE 16                        	CMP	ESI,22
  1720 00001044 0F 84 00000114                  	JE	L433
  1721 0000104A 83 FE 17                        	CMP	ESI,23
  1722 0000104D 0F 84 000000BD                  	JE	L434
  1723 00001053 83 FE 18                        	CMP	ESI,24
  1724 00001056 0F 84 00000083                  	JE	L435
  1725 0000105C 83 FE 19                        	CMP	ESI,25
  1726 0000105F 74 53                           	JE	L436
  1727 00001061 83 FE 1A                        	CMP	ESI,26
  1728 00001064 74 1E                           	JE	L437
  1729 00001066 83 FE 1B                        	CMP	ESI,27
  1730 00001069 74 0A                           	JE	L438
  1731 0000106B                                 L299:
  1732 0000106B 31 C0                           	XOR	EAX,EAX
  1733 0000106D                                 L297:
  1734 0000106D 8D 65 F4                        	LEA	ESP,DWORD [-12+EBP]
  1735 00001070 5B                              	POP	EBX
  1736 00001071 5E                              	POP	ESI
  1737 00001072 5F                              	POP	EDI
  1738 00001073 5D                              	POP	EBP
  1739 00001074 C3                              	RET
  1740 00001075                                 L438:
  1741 00001075 8B 5D E0                        	MOV	EBX,DWORD [-32+EBP]
  1742 00001078 0F B6 83 00000128               	MOVZX	EAX,BYTE [296+EBX]
  1743 0000107F                                 L406:
  1744 0000107F 89 45 44                        	MOV	DWORD [68+EBP],EAX
  1745 00001082 EB E7                           	JMP	L299
  1746 00001084                                 L437:
  1747 00001084 31 F6                           	XOR	ESI,ESI
  1748 00001086                                 L394:
  1749 00001086 8B 4D E0                        	MOV	ECX,DWORD [-32+EBP]
  1750 00001089 8B 55 18                        	MOV	EDX,DWORD [24+EBP]
  1751 0000108C 03 55 DC                        	ADD	EDX,DWORD [-36+EBP]
  1752 0000108F 8B 81 00000124                  	MOV	EAX,DWORD [292+ECX]
  1753 00001095 8A 04 06                        	MOV	AL,BYTE [ESI+EAX*1]
  1754 00001098 88 04 16                        	MOV	BYTE [ESI+EDX*1],AL
  1755 0000109B 8B 81 00000124                  	MOV	EAX,DWORD [292+ECX]
  1756 000010A1 80 3C 06 00                     	CMP	BYTE [ESI+EAX*1],0
  1757 000010A5 74 08                           	JE	L395
  1758 000010A7 3B 75 20                        	CMP	ESI,DWORD [32+EBP]
  1759 000010AA 7D 03                           	JGE	L395
  1760 000010AC 46                              	INC	ESI
  1761 000010AD EB D7                           	JMP	L394
  1762 000010AF                                 L395:
  1763 000010AF 89 75 44                        	MOV	DWORD [68+EBP],ESI
  1764 000010B2 EB B7                           	JMP	L299
  1765 000010B4                                 L436:
  1766 000010B4 31 F6                           	XOR	ESI,ESI
  1767 000010B6 8B 5D 24                        	MOV	EBX,DWORD [36+EBP]
  1768 000010B9 3B 75 20                        	CMP	ESI,DWORD [32+EBP]
  1769 000010BC 7D F1                           	JGE	L395
  1770 000010BE                                 L391:
  1771 000010BE 8B 4B 08                        	MOV	ECX,DWORD [8+EBX]
  1772 000010C1 3B 4B 04                        	CMP	ECX,DWORD [4+EBX]
  1773 000010C4 74 E9                           	JE	L395
  1774 000010C6 8B 45 18                        	MOV	EAX,DWORD [24+EBP]
  1775 000010C9 8B 13                           	MOV	EDX,DWORD [EBX]
  1776 000010CB 03 45 DC                        	ADD	EAX,DWORD [-36+EBP]
  1777 000010CE 8A 14 11                        	MOV	DL,BYTE [ECX+EDX*1]
  1778 000010D1 88 14 06                        	MOV	BYTE [ESI+EAX*1],DL
  1779 000010D4 46                              	INC	ESI
  1780 000010D5 FF 43 08                        	INC	DWORD [8+EBX]
  1781 000010D8 3B 75 20                        	CMP	ESI,DWORD [32+EBP]
  1782 000010DB 7C E1                           	JL	L391
  1783 000010DD EB D0                           	JMP	L395
  1784 000010DF                                 L435:
  1785 000010DF 8B 5D 24                        	MOV	EBX,DWORD [36+EBP]
  1786 000010E2 83 7D 20 00                     	CMP	DWORD [32+EBP],0
  1787 000010E6 75 05                           	JNE	L379
  1788 000010E8 8B 43 04                        	MOV	EAX,DWORD [4+EBX]
  1789 000010EB EB 92                           	JMP	L406
  1790 000010ED                                 L379:
  1791 000010ED 83 7D 20 01                     	CMP	DWORD [32+EBP],1
  1792 000010F1 74 15                           	JE	L439
  1793 000010F3 83 7D 20 02                     	CMP	DWORD [32+EBP],2
  1794 000010F7 0F 85 FFFFFF6E                  	JNE	L299
  1795 000010FD 8B 43 08                        	MOV	EAX,DWORD [8+EBX]
  1796 00001100 2B 43 04                        	SUB	EAX,DWORD [4+EBX]
  1797 00001103 E9 FFFFFF77                     	JMP	L406
  1798 00001108                                 L439:
  1799 00001108 8B 43 08                        	MOV	EAX,DWORD [8+EBX]
  1800 0000110B E9 FFFFFF6F                     	JMP	L406
  1801 00001110                                 L434:
  1802 00001110 8B 5D 24                        	MOV	EBX,DWORD [36+EBP]
  1803 00001113 83 7D 20 00                     	CMP	DWORD [32+EBP],0
  1804 00001117 74 35                           	JE	L405
  1805 00001119 83 7D 20 01                     	CMP	DWORD [32+EBP],1
  1806 0000111D 74 37                           	JE	L440
  1807 0000111F 83 7D 20 02                     	CMP	DWORD [32+EBP],2
  1808 00001123 74 23                           	JE	L441
  1809 00001125                                 L371:
  1810 00001125 83 7B 08 00                     	CMP	DWORD [8+EBX],0
  1811 00001129 78 14                           	JS	L442
  1812 0000112B                                 L375:
  1813 0000112B 8B 43 04                        	MOV	EAX,DWORD [4+EBX]
  1814 0000112E 39 43 08                        	CMP	DWORD [8+EBX],EAX
  1815 00001131 0F 8E FFFFFF34                  	JLE	L299
  1816 00001137 89 43 08                        	MOV	DWORD [8+EBX],EAX
  1817 0000113A E9 FFFFFF2C                     	JMP	L299
  1818 0000113F                                 L442:
  1819 0000113F C7 43 08 00000000               	MOV	DWORD [8+EBX],0
  1820 00001146 EB E3                           	JMP	L375
  1821 00001148                                 L441:
  1822 00001148 8B 43 04                        	MOV	EAX,DWORD [4+EBX]
  1823 0000114B 01 45 18                        	ADD	DWORD [24+EBP],EAX
  1824 0000114E                                 L405:
  1825 0000114E 8B 55 18                        	MOV	EDX,DWORD [24+EBP]
  1826 00001151 89 53 08                        	MOV	DWORD [8+EBX],EDX
  1827 00001154 EB CF                           	JMP	L371
  1828 00001156                                 L440:
  1829 00001156 8B 4D 18                        	MOV	ECX,DWORD [24+EBP]
  1830 00001159 01 4B 08                        	ADD	DWORD [8+EBX],ECX
  1831 0000115C EB C7                           	JMP	L371
  1832 0000115E                                 L433:
  1833 0000115E 8B 5D 24                        	MOV	EBX,DWORD [36+EBP]
  1834 00001161 FF 73 04                        	PUSH	DWORD [4+EBX]
  1835 00001164 FF 33                           	PUSH	DWORD [EBX]
  1836 00001166 68 003C0000                     	PUSH	3932160
  1837 0000116B E8 [00000000]                   	CALL	_memman_free_4k
  1838 00001170 C7 03 00000000                  	MOV	DWORD [EBX],0
  1839 00001176                                 L407:
  1840 00001176 83 C4 0C                        	ADD	ESP,12
  1841 00001179 E9 FFFFFEED                     	JMP	L299
  1842 0000117E                                 L432:
  1843 0000117E 31 F6                           	XOR	ESI,ESI
  1844 00001180 31 C0                           	XOR	EAX,EAX
  1845 00001182                                 L363:
  1846 00001182 8B 4D E0                        	MOV	ECX,DWORD [-32+EBP]
  1847 00001185 8B 91 0000011C                  	MOV	EDX,DWORD [284+ECX]
  1848 0000118B 83 3C 02 00                     	CMP	DWORD [EDX+EAX*1],0
  1849 0000118F 74 09                           	JE	L359
  1850 00001191 46                              	INC	ESI
  1851 00001192 83 C0 0C                        	ADD	EAX,12
  1852 00001195 83 FE 07                        	CMP	ESI,7
  1853 00001198 7E E8                           	JLE	L363
  1854 0000119A                                 L359:
  1855 0000119A 6B C6 0C                        	IMUL	EAX,ESI,12
  1856 0000119D C7 45 44 00000000               	MOV	DWORD [68+EBP],0
  1857 000011A4 8D 1C 10                        	LEA	EBX,DWORD [EAX+EDX*1]
  1858 000011A7 83 FE 07                        	CMP	ESI,7
  1859 000011AA 0F 8F FFFFFEBB                  	JG	L299
  1860 000011B0 8B 45 18                        	MOV	EAX,DWORD [24+EBP]
  1861 000011B3 68 000000E0                     	PUSH	224
  1862 000011B8 03 45 DC                        	ADD	EAX,DWORD [-36+EBP]
  1863 000011BB 68 00102600                     	PUSH	1058304
  1864 000011C0 50                              	PUSH	EAX
  1865 000011C1 E8 [00000000]                   	CALL	_file_search
  1866 000011C6 83 C4 0C                        	ADD	ESP,12
  1867 000011C9 89 C2                           	MOV	EDX,EAX
  1868 000011CB 85 C0                           	TEST	EAX,EAX
  1869 000011CD 0F 84 FFFFFE98                  	JE	L299
  1870 000011D3 89 5D 44                        	MOV	DWORD [68+EBP],EBX
  1871 000011D6 8B 40 1C                        	MOV	EAX,DWORD [28+EAX]
  1872 000011D9 89 43 04                        	MOV	DWORD [4+EBX],EAX
  1873 000011DC 8B 45 E0                        	MOV	EAX,DWORD [-32+EBP]
  1874 000011DF C7 43 08 00000000               	MOV	DWORD [8+EBX],0
  1875 000011E6 FF B0 00000120                  	PUSH	DWORD [288+EAX]
  1876 000011EC 8D 43 04                        	LEA	EAX,DWORD [4+EBX]
  1877 000011EF 50                              	PUSH	EAX
  1878 000011F0 0F B7 42 1A                     	MOVZX	EAX,WORD [26+EDX]
  1879 000011F4 50                              	PUSH	EAX
  1880 000011F5 E8 [00000000]                   	CALL	_file_loadfile2
  1881 000011FA 89 03                           	MOV	DWORD [EBX],EAX
  1882 000011FC E9 FFFFFF75                     	JMP	L407
  1883 00001201                                 L431:
  1884 00001201 8B 55 24                        	MOV	EDX,DWORD [36+EBP]
  1885 00001204 85 D2                           	TEST	EDX,EDX
  1886 00001206 75 19                           	JNE	L354
  1887 00001208 6A 61                           	PUSH	97
  1888 0000120A E8 [00000000]                   	CALL	_io_in8
  1889 0000120F 89 C6                           	MOV	ESI,EAX
  1890 00001211 83 E6 0D                        	AND	ESI,13
  1891 00001214 56                              	PUSH	ESI
  1892 00001215 6A 61                           	PUSH	97
  1893 00001217 E8 [00000000]                   	CALL	_io_out8
  1894 0000121C E9 FFFFFF55                     	JMP	L407
  1895 00001221                                 L354:
  1896 00001221 B9 471E7B60                     	MOV	ECX,1193180000
  1897 00001226 89 D3                           	MOV	EBX,EDX
  1898 00001228 89 C8                           	MOV	EAX,ECX
  1899 0000122A 68 000000B6                     	PUSH	182
  1900 0000122F 99                              	CDQ
  1901 00001230 F7 FB                           	IDIV	EBX
  1902 00001232 6A 43                           	PUSH	67
  1903 00001234 89 C6                           	MOV	ESI,EAX
  1904 00001236 E8 [00000000]                   	CALL	_io_out8
  1905 0000123B 89 F0                           	MOV	EAX,ESI
  1906 0000123D C1 FE 08                        	SAR	ESI,8
  1907 00001240 25 000000FF                     	AND	EAX,255
  1908 00001245 50                              	PUSH	EAX
  1909 00001246 6A 42                           	PUSH	66
  1910 00001248 E8 [00000000]                   	CALL	_io_out8
  1911 0000124D 56                              	PUSH	ESI
  1912 0000124E 6A 42                           	PUSH	66
  1913 00001250 E8 [00000000]                   	CALL	_io_out8
  1914 00001255 6A 61                           	PUSH	97
  1915 00001257 E8 [00000000]                   	CALL	_io_in8
  1916 0000125C 89 C6                           	MOV	ESI,EAX
  1917 0000125E 83 CE 03                        	OR	ESI,3
  1918 00001261 83 E6 0F                        	AND	ESI,15
  1919 00001264 56                              	PUSH	ESI
  1920 00001265 6A 61                           	PUSH	97
  1921 00001267 E8 [00000000]                   	CALL	_io_out8
  1922 0000126C 83 C4 24                        	ADD	ESP,36
  1923 0000126F E9 FFFFFDF7                     	JMP	L299
  1924 00001274                                 L430:
  1925 00001274 FF 75 18                        	PUSH	DWORD [24+EBP]
  1926 00001277 E8 [00000000]                   	CALL	_timer_free
  1927 0000127C                                 L408:
  1928 0000127C 5B                              	POP	EBX
  1929 0000127D E9 FFFFFDE9                     	JMP	L299
  1930 00001282                                 L429:
  1931 00001282 FF 75 24                        	PUSH	DWORD [36+EBP]
  1932 00001285 FF 75 18                        	PUSH	DWORD [24+EBP]
  1933 00001288 E8 [00000000]                   	CALL	_timer_settime
  1934 0000128D                                 L410:
  1935 0000128D 5E                              	POP	ESI
  1936 0000128E 5F                              	POP	EDI
  1937 0000128F E9 FFFFFDD7                     	JMP	L299
  1938 00001294                                 L428:
  1939 00001294 8B 45 24                        	MOV	EAX,DWORD [36+EBP]
  1940 00001297 05 00000100                     	ADD	EAX,256
  1941 0000129C 50                              	PUSH	EAX
  1942 0000129D 8B 45 E0                        	MOV	EAX,DWORD [-32+EBP]
  1943 000012A0 83 C0 10                        	ADD	EAX,16
  1944 000012A3 50                              	PUSH	EAX
  1945 000012A4 FF 75 18                        	PUSH	DWORD [24+EBP]
  1946 000012A7 E8 [00000000]                   	CALL	_timer_init
  1947 000012AC E9 FFFFFEC5                     	JMP	L407
  1948 000012B1                                 L427:
  1949 000012B1 E8 [00000000]                   	CALL	_timer_alloc
  1950 000012B6 89 45 44                        	MOV	DWORD [68+EBP],EAX
  1951 000012B9 C6 40 09 01                     	MOV	BYTE [9+EAX],1
  1952 000012BD E9 FFFFFDA9                     	JMP	L299
  1953 000012C2                                 L333:
  1954 000012C2 E8 [00000000]                   	CALL	_io_cli
  1955 000012C7 8B 45 E0                        	MOV	EAX,DWORD [-32+EBP]
  1956 000012CA 83 C0 10                        	ADD	EAX,16
  1957 000012CD 50                              	PUSH	EAX
  1958 000012CE E8 [00000000]                   	CALL	_fifo32_status
  1959 000012D3 5A                              	POP	EDX
  1960 000012D4 85 C0                           	TEST	EAX,EAX
  1961 000012D6 75 13                           	JNE	L336
  1962 000012D8 83 7D 24 00                     	CMP	DWORD [36+EBP],0
  1963 000012DC 0F 84 000000B7                  	JE	L337
  1964 000012E2 FF 75 E0                        	PUSH	DWORD [-32+EBP]
  1965 000012E5 E8 [00000000]                   	CALL	_task_sleep
  1966 000012EA 58                              	POP	EAX
  1967 000012EB                                 L336:
  1968 000012EB 8B 7D E0                        	MOV	EDI,DWORD [-32+EBP]
  1969 000012EE 83 C7 10                        	ADD	EDI,16
  1970 000012F1 57                              	PUSH	EDI
  1971 000012F2 E8 [00000000]                   	CALL	_fifo32_get
  1972 000012F7 89 C6                           	MOV	ESI,EAX
  1973 000012F9 E8 [00000000]                   	CALL	_io_sti
  1974 000012FE 58                              	POP	EAX
  1975 000012FF 83 FE 01                        	CMP	ESI,1
  1976 00001302 7E 73                           	JLE	L443
  1977 00001304                                 L339:
  1978 00001304 83 FE 02                        	CMP	ESI,2
  1979 00001307 74 65                           	JE	L444
  1980 00001309                                 L340:
  1981 00001309 83 FE 03                        	CMP	ESI,3
  1982 0000130C 74 57                           	JE	L445
  1983 0000130E                                 L341:
  1984 0000130E 83 FE 04                        	CMP	ESI,4
  1985 00001311 74 14                           	JE	L446
  1986 00001313                                 L342:
  1987 00001313 8D 86 FFFFFF00                  	LEA	EAX,DWORD [-256+ESI]
  1988 00001319 81 FE 000000FF                  	CMP	ESI,255
  1989 0000131F 0F 8F FFFFFD5A                  	JG	L406
  1990 00001325 EB 9B                           	JMP	L333
  1991 00001327                                 L446:
  1992 00001327 FF 73 10                        	PUSH	DWORD [16+EBX]
  1993 0000132A E8 [00000000]                   	CALL	_timer_cancel
  1994 0000132F E8 [00000000]                   	CALL	_io_cli
  1995 00001334 8B 03                           	MOV	EAX,DWORD [EBX]
  1996 00001336 2B 45 D8                        	SUB	EAX,DWORD [-40+EBP]
  1997 00001339 2D 00000414                     	SUB	EAX,1044
  1998 0000133E C1 F8 03                        	SAR	EAX,3
  1999 00001341 69 C0 CCCCCCCD                  	IMUL	EAX,EAX,-858993459
  2000 00001347 05 000007E8                     	ADD	EAX,2024
  2001 0000134C 50                              	PUSH	EAX
  2002 0000134D FF 75 D4                        	PUSH	DWORD [-44+EBP]
  2003 00001350 E8 [00000000]                   	CALL	_fifo32_put
  2004 00001355 C7 03 00000000                  	MOV	DWORD [EBX],0
  2005 0000135B E8 [00000000]                   	CALL	_io_sti
  2006 00001360 83 C4 0C                        	ADD	ESP,12
  2007 00001363 EB AE                           	JMP	L342
  2008 00001365                                 L445:
  2009 00001365 C7 43 0C FFFFFFFF               	MOV	DWORD [12+EBX],-1
  2010 0000136C EB A0                           	JMP	L341
  2011 0000136E                                 L444:
  2012 0000136E C7 43 0C 00000007               	MOV	DWORD [12+EBX],7
  2013 00001375 EB 92                           	JMP	L340
  2014 00001377                                 L443:
  2015 00001377 83 3B 00                        	CMP	DWORD [EBX],0
  2016 0000137A 74 88                           	JE	L339
  2017 0000137C 6A 01                           	PUSH	1
  2018 0000137E 57                              	PUSH	EDI
  2019 0000137F FF 73 10                        	PUSH	DWORD [16+EBX]
  2020 00001382 E8 [00000000]                   	CALL	_timer_init
  2021 00001387 6A 32                           	PUSH	50
  2022 00001389 FF 73 10                        	PUSH	DWORD [16+EBX]
  2023 0000138C E8 [00000000]                   	CALL	_timer_settime
  2024 00001391 83 C4 14                        	ADD	ESP,20
  2025 00001394 E9 FFFFFF6B                     	JMP	L339
  2026 00001399                                 L337:
  2027 00001399 E8 [00000000]                   	CALL	_io_sti
  2028 0000139E C7 45 44 FFFFFFFF               	MOV	DWORD [68+EBP],-1
  2029 000013A5 E9 FFFFFCC1                     	JMP	L299
  2030 000013AA                                 L426:
  2031 000013AA FF 75 18                        	PUSH	DWORD [24+EBP]
  2032 000013AD E8 [00000000]                   	CALL	_sheet_free
  2033 000013B2 E9 FFFFFEC5                     	JMP	L408
  2034 000013B7                                 L425:
  2035 000013B7 FF 75 10                        	PUSH	DWORD [16+EBP]
  2036 000013BA FF 75 08                        	PUSH	DWORD [8+EBP]
  2037 000013BD FF 75 0C                        	PUSH	DWORD [12+EBP]
  2038 000013C0 FF 75 20                        	PUSH	DWORD [32+EBP]
  2039 000013C3 8B 7D 18                        	MOV	EDI,DWORD [24+EBP]
  2040 000013C6 FF 75 24                        	PUSH	DWORD [36+EBP]
  2041 000013C9 83 E7 FE                        	AND	EDI,-2
  2042 000013CC 57                              	PUSH	EDI
  2043 000013CD E8 000002CB                     	CALL	_hrb_api_linewin
  2044 000013D2 83 C4 18                        	ADD	ESP,24
  2045 000013D5 F7 45 18 00000001               	TEST	DWORD [24+EBP],1
  2046 000013DC 0F 85 FFFFFC89                  	JNE	L299
  2047 000013E2 8B 45 24                        	MOV	EAX,DWORD [36+EBP]
  2048 000013E5 3B 45 0C                        	CMP	EAX,DWORD [12+EBP]
  2049 000013E8 7E 09                           	JLE	L327
  2050 000013EA 8B 4D 0C                        	MOV	ECX,DWORD [12+EBP]
  2051 000013ED 89 45 0C                        	MOV	DWORD [12+EBP],EAX
  2052 000013F0 89 4D 24                        	MOV	DWORD [36+EBP],ECX
  2053 000013F3                                 L327:
  2054 000013F3 8B 5D 08                        	MOV	EBX,DWORD [8+EBP]
  2055 000013F6 39 5D 20                        	CMP	DWORD [32+EBP],EBX
  2056 000013F9 7E 09                           	JLE	L328
  2057 000013FB 8B 75 20                        	MOV	ESI,DWORD [32+EBP]
  2058 000013FE 89 5D 20                        	MOV	DWORD [32+EBP],EBX
  2059 00001401 89 75 08                        	MOV	DWORD [8+EBP],ESI
  2060 00001404                                 L328:
  2061 00001404 8B 45 08                        	MOV	EAX,DWORD [8+EBP]
  2062 00001407 40                              	INC	EAX
  2063 00001408 50                              	PUSH	EAX
  2064 00001409 8B 45 0C                        	MOV	EAX,DWORD [12+EBP]
  2065 0000140C 40                              	INC	EAX
  2066 0000140D 50                              	PUSH	EAX
  2067 0000140E FF 75 20                        	PUSH	DWORD [32+EBP]
  2068 00001411 FF 75 24                        	PUSH	DWORD [36+EBP]
  2069 00001414                                 L412:
  2070 00001414 57                              	PUSH	EDI
  2071 00001415                                 L409:
  2072 00001415 E8 [00000000]                   	CALL	_sheet_refresh
  2073 0000141A                                 L411:
  2074 0000141A 83 C4 14                        	ADD	ESP,20
  2075 0000141D E9 FFFFFC49                     	JMP	L299
  2076 00001422                                 L424:
  2077 00001422 FF 75 08                        	PUSH	DWORD [8+EBP]
  2078 00001425 FF 75 0C                        	PUSH	DWORD [12+EBP]
  2079 00001428 FF 75 20                        	PUSH	DWORD [32+EBP]
  2080 0000142B FF 75 24                        	PUSH	DWORD [36+EBP]
  2081 0000142E FF 75 18                        	PUSH	DWORD [24+EBP]
  2082 00001431 EB E2                           	JMP	L409
  2083 00001433                                 L423:
  2084 00001433 8B 7D 18                        	MOV	EDI,DWORD [24+EBP]
  2085 00001436 8B 45 08                        	MOV	EAX,DWORD [8+EBP]
  2086 00001439 83 E7 FE                        	AND	EDI,-2
  2087 0000143C 8A 55 24                        	MOV	DL,BYTE [36+EBP]
  2088 0000143F 0F AF 47 04                     	IMUL	EAX,DWORD [4+EDI]
  2089 00001443 03 45 0C                        	ADD	EAX,DWORD [12+EBP]
  2090 00001446 8B 0F                           	MOV	ECX,DWORD [EDI]
  2091 00001448 88 14 08                        	MOV	BYTE [EAX+ECX*1],DL
  2092 0000144B F7 45 18 00000001               	TEST	DWORD [24+EBP],1
  2093 00001452 0F 85 FFFFFC13                  	JNE	L299
  2094 00001458 8B 45 08                        	MOV	EAX,DWORD [8+EBP]
  2095 0000145B 40                              	INC	EAX
  2096 0000145C 50                              	PUSH	EAX
  2097 0000145D 8B 45 0C                        	MOV	EAX,DWORD [12+EBP]
  2098 00001460 40                              	INC	EAX
  2099 00001461 50                              	PUSH	EAX
  2100 00001462 FF 75 08                        	PUSH	DWORD [8+EBP]
  2101 00001465 FF 75 0C                        	PUSH	DWORD [12+EBP]
  2102 00001468 EB AA                           	JMP	L412
  2103 0000146A                                 L422:
  2104 0000146A 8B 45 20                        	MOV	EAX,DWORD [32+EBP]
  2105 0000146D 83 C0 0F                        	ADD	EAX,15
  2106 00001470 83 E0 F0                        	AND	EAX,-16
  2107 00001473 50                              	PUSH	EAX
  2108 00001474 8B 45 18                        	MOV	EAX,DWORD [24+EBP]
  2109 00001477 03 45 DC                        	ADD	EAX,DWORD [-36+EBP]
  2110 0000147A FF 75 24                        	PUSH	DWORD [36+EBP]
  2111 0000147D 50                              	PUSH	EAX
  2112 0000147E E8 [00000000]                   	CALL	_memman_free
  2113 00001483 E9 FFFFFCEE                     	JMP	L407
  2114 00001488                                 L421:
  2115 00001488 8B 45 20                        	MOV	EAX,DWORD [32+EBP]
  2116 0000148B 83 C0 0F                        	ADD	EAX,15
  2117 0000148E 83 E0 F0                        	AND	EAX,-16
  2118 00001491 50                              	PUSH	EAX
  2119 00001492 8B 45 18                        	MOV	EAX,DWORD [24+EBP]
  2120 00001495 03 45 DC                        	ADD	EAX,DWORD [-36+EBP]
  2121 00001498 50                              	PUSH	EAX
  2122 00001499 E8 [00000000]                   	CALL	_memman_alloc
  2123 0000149E 89 45 44                        	MOV	DWORD [68+EBP],EAX
  2124 000014A1 E9 FFFFFDE7                     	JMP	L410
  2125 000014A6                                 L420:
  2126 000014A6 8B 5D 18                        	MOV	EBX,DWORD [24+EBP]
  2127 000014A9 03 5D DC                        	ADD	EBX,DWORD [-36+EBP]
  2128 000014AC 53                              	PUSH	EBX
  2129 000014AD E8 [00000000]                   	CALL	_memman_init
  2130 000014B2 83 65 20 F0                     	AND	DWORD [32+EBP],-16
  2131 000014B6 FF 75 20                        	PUSH	DWORD [32+EBP]
  2132 000014B9 FF 75 24                        	PUSH	DWORD [36+EBP]
  2133 000014BC 53                              	PUSH	EBX
  2134 000014BD E8 [00000000]                   	CALL	_memman_free
  2135 000014C2 83 C4 10                        	ADD	ESP,16
  2136 000014C5 E9 FFFFFBA1                     	JMP	L299
  2137 000014CA                                 L419:
  2138 000014CA FF 75 08                        	PUSH	DWORD [8+EBP]
  2139 000014CD FF 75 0C                        	PUSH	DWORD [12+EBP]
  2140 000014D0 FF 75 20                        	PUSH	DWORD [32+EBP]
  2141 000014D3 8B 7D 18                        	MOV	EDI,DWORD [24+EBP]
  2142 000014D6 FF 75 24                        	PUSH	DWORD [36+EBP]
  2143 000014D9 83 E7 FE                        	AND	EDI,-2
  2144 000014DC 0F B6 45 10                     	MOVZX	EAX,BYTE [16+EBP]
  2145 000014E0 50                              	PUSH	EAX
  2146 000014E1 FF 77 04                        	PUSH	DWORD [4+EDI]
  2147 000014E4 FF 37                           	PUSH	DWORD [EDI]
  2148 000014E6 E8 [00000000]                   	CALL	_boxfill8
  2149 000014EB 83 C4 1C                        	ADD	ESP,28
  2150 000014EE F7 45 18 00000001               	TEST	DWORD [24+EBP],1
  2151 000014F5 0F 85 FFFFFB70                  	JNE	L299
  2152 000014FB E9 FFFFFF04                     	JMP	L328
  2153 00001500                                 L418:
  2154 00001500 8B 45 10                        	MOV	EAX,DWORD [16+EBP]
  2155 00001503 8B 7D 18                        	MOV	EDI,DWORD [24+EBP]
  2156 00001506 03 45 DC                        	ADD	EAX,DWORD [-36+EBP]
  2157 00001509 83 E7 FE                        	AND	EDI,-2
  2158 0000150C 50                              	PUSH	EAX
  2159 0000150D 0F BE 45 24                     	MOVSX	EAX,BYTE [36+EBP]
  2160 00001511 50                              	PUSH	EAX
  2161 00001512 FF 75 08                        	PUSH	DWORD [8+EBP]
  2162 00001515 FF 75 0C                        	PUSH	DWORD [12+EBP]
  2163 00001518 FF 77 04                        	PUSH	DWORD [4+EDI]
  2164 0000151B FF 37                           	PUSH	DWORD [EDI]
  2165 0000151D E8 [00000000]                   	CALL	_putfonts8_asc
  2166 00001522 83 C4 18                        	ADD	ESP,24
  2167 00001525 F7 45 18 00000001               	TEST	DWORD [24+EBP],1
  2168 0000152C 0F 85 FFFFFB39                  	JNE	L299
  2169 00001532 8B 55 0C                        	MOV	EDX,DWORD [12+EBP]
  2170 00001535 8B 45 08                        	MOV	EAX,DWORD [8+EBP]
  2171 00001538 8B 5D 20                        	MOV	EBX,DWORD [32+EBP]
  2172 0000153B 83 C0 10                        	ADD	EAX,16
  2173 0000153E 50                              	PUSH	EAX
  2174 0000153F 8D 04 DA                        	LEA	EAX,DWORD [EDX+EBX*8]
  2175 00001542 50                              	PUSH	EAX
  2176 00001543 FF 75 08                        	PUSH	DWORD [8+EBP]
  2177 00001546 52                              	PUSH	EDX
  2178 00001547 E9 FFFFFEC8                     	JMP	L412
  2179 0000154C                                 L417:
  2180 0000154C FF 75 D8                        	PUSH	DWORD [-40+EBP]
  2181 0000154F E8 [00000000]                   	CALL	_sheet_alloc
  2182 00001554 8B 5D 18                        	MOV	EBX,DWORD [24+EBP]
  2183 00001557 8B 55 E0                        	MOV	EDX,DWORD [-32+EBP]
  2184 0000155A 89 C7                           	MOV	EDI,EAX
  2185 0000155C 89 50 24                        	MOV	DWORD [36+EAX],EDX
  2186 0000155F 03 5D DC                        	ADD	EBX,DWORD [-36+EBP]
  2187 00001562 83 48 1C 10                     	OR	DWORD [28+EAX],16
  2188 00001566 FF 75 24                        	PUSH	DWORD [36+EBP]
  2189 00001569 FF 75 08                        	PUSH	DWORD [8+EBP]
  2190 0000156C FF 75 0C                        	PUSH	DWORD [12+EBP]
  2191 0000156F 53                              	PUSH	EBX
  2192 00001570 50                              	PUSH	EAX
  2193 00001571 E8 [00000000]                   	CALL	_sheet_setbuf
  2194 00001576 8B 45 20                        	MOV	EAX,DWORD [32+EBP]
  2195 00001579 03 45 DC                        	ADD	EAX,DWORD [-36+EBP]
  2196 0000157C 6A 00                           	PUSH	0
  2197 0000157E 50                              	PUSH	EAX
  2198 0000157F FF 75 08                        	PUSH	DWORD [8+EBP]
  2199 00001582 FF 75 0C                        	PUSH	DWORD [12+EBP]
  2200 00001585 53                              	PUSH	EBX
  2201 00001586 BB 00000002                     	MOV	EBX,2
  2202 0000158B E8 [00000000]                   	CALL	_make_window8
  2203 00001590 8B 4D D8                        	MOV	ECX,DWORD [-40+EBP]
  2204 00001593 83 C4 2C                        	ADD	ESP,44
  2205 00001596 8B 41 0C                        	MOV	EAX,DWORD [12+ECX]
  2206 00001599 2B 45 08                        	SUB	EAX,DWORD [8+EBP]
  2207 0000159C 99                              	CDQ
  2208 0000159D F7 FB                           	IDIV	EBX
  2209 0000159F 50                              	PUSH	EAX
  2210 000015A0 8B 41 08                        	MOV	EAX,DWORD [8+ECX]
  2211 000015A3 2B 45 0C                        	SUB	EAX,DWORD [12+EBP]
  2212 000015A6 99                              	CDQ
  2213 000015A7 F7 FB                           	IDIV	EBX
  2214 000015A9 83 E0 FC                        	AND	EAX,-4
  2215 000015AC 50                              	PUSH	EAX
  2216 000015AD 57                              	PUSH	EDI
  2217 000015AE E8 [00000000]                   	CALL	_sheet_slide
  2218 000015B3 8B 4D D8                        	MOV	ECX,DWORD [-40+EBP]
  2219 000015B6 FF 71 10                        	PUSH	DWORD [16+ECX]
  2220 000015B9 57                              	PUSH	EDI
  2221 000015BA E8 [00000000]                   	CALL	_sheet_updown
  2222 000015BF 89 7D 44                        	MOV	DWORD [68+EBP],EDI
  2223 000015C2 E9 FFFFFE53                     	JMP	L411
  2224 000015C7                                 L416:
  2225 000015C7 8B 45 E0                        	MOV	EAX,DWORD [-32+EBP]
  2226 000015CA 83 C0 30                        	ADD	EAX,48
  2227 000015CD E9 FFFFFA9B                     	JMP	L297
  2228 000015D2                                 L415:
  2229 000015D2 8B 45 18                        	MOV	EAX,DWORD [24+EBP]
  2230 000015D5 03 45 DC                        	ADD	EAX,DWORD [-36+EBP]
  2231 000015D8 FF 75 20                        	PUSH	DWORD [32+EBP]
  2232 000015DB 50                              	PUSH	EAX
  2233 000015DC 53                              	PUSH	EBX
  2234 000015DD E8 FFFFF1C7                     	CALL	_cons_putstr1
  2235 000015E2 E9 FFFFFB8F                     	JMP	L407
  2236 000015E7                                 L414:
  2237 000015E7 8B 45 18                        	MOV	EAX,DWORD [24+EBP]
  2238 000015EA 03 45 DC                        	ADD	EAX,DWORD [-36+EBP]
  2239 000015ED 50                              	PUSH	EAX
  2240 000015EE 53                              	PUSH	EBX
  2241 000015EF E8 FFFFF187                     	CALL	_cons_putstr0
  2242 000015F4 E9 FFFFFC94                     	JMP	L410
  2243 000015F9                                 L413:
  2244 000015F9 6A 01                           	PUSH	1
  2245 000015FB 0F B6 45 24                     	MOVZX	EAX,BYTE [36+EBP]
  2246 000015FF 50                              	PUSH	EAX
  2247 00001600 53                              	PUSH	EBX
  2248 00001601 E8 FFFFEFDC                     	CALL	_cons_putchar
  2249 00001606 E9 FFFFFB6B                     	JMP	L407
  2250                                          [SECTION .data]
  2251 00000171                                 LC30:
  2252 00000171 0A 49 4E 54 20 30 43 20 3A 0A   	DB	0x0A,"INT 0C :",0x0A," Stack Exception.",0x0A,0x00
       0000017B 20 53 74 61 63 6B 20 45 78 63 
       00000185 65 70 74 69 6F 6E 2E 0A 00 
  2253 0000018E                                 LC31:
  2254 0000018E 45 49 50 20 3D 20 25 30 38 58   	DB	"EIP = %08X",0x0A,0x00
       00000198 0A 00 
  2255                                          [SECTION .text]
  2256 0000160B                                 	GLOBAL	_inthandler0c
  2257 0000160B                                 _inthandler0c:
  2258 0000160B 55                              	PUSH	EBP
  2259 0000160C 89 E5                           	MOV	EBP,ESP
  2260 0000160E 57                              	PUSH	EDI
  2261 0000160F 56                              	PUSH	ESI
  2262 00001610 53                              	PUSH	EBX
  2263 00001611 8D 5D D4                        	LEA	EBX,DWORD [-44+EBP]
  2264 00001614 83 EC 20                        	SUB	ESP,32
  2265 00001617 E8 [00000000]                   	CALL	_task_now
  2266 0000161C 89 C6                           	MOV	ESI,EAX
  2267 0000161E 8B B8 00000110                  	MOV	EDI,DWORD [272+EAX]
  2268 00001624 83 C6 30                        	ADD	ESI,48
  2269 00001627 68 [00000171]                   	PUSH	LC30
  2270 0000162C 57                              	PUSH	EDI
  2271 0000162D E8 FFFFF149                     	CALL	_cons_putstr0
  2272 00001632 8B 45 08                        	MOV	EAX,DWORD [8+EBP]
  2273 00001635 FF 70 2C                        	PUSH	DWORD [44+EAX]
  2274 00001638 68 [0000018E]                   	PUSH	LC31
  2275 0000163D 53                              	PUSH	EBX
  2276 0000163E E8 [00000000]                   	CALL	_sprintf
  2277 00001643 53                              	PUSH	EBX
  2278 00001644 57                              	PUSH	EDI
  2279 00001645 E8 FFFFF131                     	CALL	_cons_putstr0
  2280 0000164A 8D 65 F4                        	LEA	ESP,DWORD [-12+EBP]
  2281 0000164D 5B                              	POP	EBX
  2282 0000164E 89 F0                           	MOV	EAX,ESI
  2283 00001650 5E                              	POP	ESI
  2284 00001651 5F                              	POP	EDI
  2285 00001652 5D                              	POP	EBP
  2286 00001653 C3                              	RET
  2287                                          [SECTION .data]
  2288 0000019A                                 LC32:
  2289 0000019A 0A 49 4E 54 20 30 44 20 3A 0A   	DB	0x0A,"INT 0D :",0x0A," General Protected Exception.",0x0A,0x00
       000001A4 20 47 65 6E 65 72 61 6C 20 50 
       000001AE 72 6F 74 65 63 74 65 64 20 45 
       000001B8 78 63 65 70 74 69 6F 6E 2E 0A 
       000001C2 00 
  2290                                          [SECTION .text]
  2291 00001654                                 	GLOBAL	_inthandler0d
  2292 00001654                                 _inthandler0d:
  2293 00001654 55                              	PUSH	EBP
  2294 00001655 89 E5                           	MOV	EBP,ESP
  2295 00001657 57                              	PUSH	EDI
  2296 00001658 56                              	PUSH	ESI
  2297 00001659 53                              	PUSH	EBX
  2298 0000165A 8D 5D D4                        	LEA	EBX,DWORD [-44+EBP]
  2299 0000165D 83 EC 20                        	SUB	ESP,32
  2300 00001660 E8 [00000000]                   	CALL	_task_now
  2301 00001665 89 C6                           	MOV	ESI,EAX
  2302 00001667 8B B8 00000110                  	MOV	EDI,DWORD [272+EAX]
  2303 0000166D 83 C6 30                        	ADD	ESI,48
  2304 00001670 68 [0000019A]                   	PUSH	LC32
  2305 00001675 57                              	PUSH	EDI
  2306 00001676 E8 FFFFF100                     	CALL	_cons_putstr0
  2307 0000167B 8B 45 08                        	MOV	EAX,DWORD [8+EBP]
  2308 0000167E FF 70 2C                        	PUSH	DWORD [44+EAX]
  2309 00001681 68 [0000018E]                   	PUSH	LC31
  2310 00001686 53                              	PUSH	EBX
  2311 00001687 E8 [00000000]                   	CALL	_sprintf
  2312 0000168C 53                              	PUSH	EBX
  2313 0000168D 57                              	PUSH	EDI
  2314 0000168E E8 FFFFF0E8                     	CALL	_cons_putstr0
  2315 00001693 8D 65 F4                        	LEA	ESP,DWORD [-12+EBP]
  2316 00001696 5B                              	POP	EBX
  2317 00001697 89 F0                           	MOV	EAX,ESI
  2318 00001699 5E                              	POP	ESI
  2319 0000169A 5F                              	POP	EDI
  2320 0000169B 5D                              	POP	EBP
  2321 0000169C C3                              	RET
  2322 0000169D                                 	GLOBAL	_hrb_api_linewin
  2323 0000169D                                 _hrb_api_linewin:
  2324 0000169D 55                              	PUSH	EBP
  2325 0000169E 89 E5                           	MOV	EBP,ESP
  2326 000016A0 57                              	PUSH	EDI
  2327 000016A1 56                              	PUSH	ESI
  2328 000016A2 53                              	PUSH	EBX
  2329 000016A3 83 EC 0C                        	SUB	ESP,12
  2330 000016A6 8B 5D 0C                        	MOV	EBX,DWORD [12+EBP]
  2331 000016A9 8B 45 14                        	MOV	EAX,DWORD [20+EBP]
  2332 000016AC 89 D9                           	MOV	ECX,EBX
  2333 000016AE 8B 55 18                        	MOV	EDX,DWORD [24+EBP]
  2334 000016B1 C1 E1 0A                        	SAL	ECX,10
  2335 000016B4 89 D7                           	MOV	EDI,EDX
  2336 000016B6 89 4D F0                        	MOV	DWORD [-16+EBP],ECX
  2337 000016B9 89 C6                           	MOV	ESI,EAX
  2338 000016BB 8B 4D 10                        	MOV	ECX,DWORD [16+EBP]
  2339 000016BE 2B 7D 10                        	SUB	EDI,DWORD [16+EBP]
  2340 000016C1 C1 E1 0A                        	SAL	ECX,10
  2341 000016C4 29 DE                           	SUB	ESI,EBX
  2342 000016C6 89 4D EC                        	MOV	DWORD [-20+EBP],ECX
  2343 000016C9 0F 88 000000A3                  	JS	L471
  2344 000016CF                                 L450:
  2345 000016CF 85 FF                           	TEST	EDI,EDI
  2346 000016D1 0F 88 00000094                  	JS	L472
  2347 000016D7                                 L451:
  2348 000016D7 39 FE                           	CMP	ESI,EDI
  2349 000016D9 7C 62                           	JL	L452
  2350 000016DB 8D 4E 01                        	LEA	ECX,DWORD [1+ESI]
  2351 000016DE 39 C3                           	CMP	EBX,EAX
  2352 000016E0 BE FFFFFC00                     	MOV	ESI,-1024
  2353 000016E5 7F 05                           	JG	L454
  2354 000016E7 BE 00000400                     	MOV	ESI,1024
  2355 000016EC                                 L454:
  2356 000016EC 39 55 10                        	CMP	DWORD [16+EBP],EDX
  2357 000016EF 7F 46                           	JG	L455
  2358 000016F1 2B 55 10                        	SUB	EDX,DWORD [16+EBP]
  2359 000016F4 42                              	INC	EDX
  2360 000016F5                                 L470:
  2361 000016F5 C1 E2 0A                        	SAL	EDX,10
  2362 000016F8 89 D0                           	MOV	EAX,EDX
  2363 000016FA 99                              	CDQ
  2364 000016FB F7 F9                           	IDIV	ECX
  2365 000016FD 89 C7                           	MOV	EDI,EAX
  2366 000016FF                                 L457:
  2367 000016FF 85 C9                           	TEST	ECX,ECX
  2368 00001701 7E 2C                           	JLE	L468
  2369 00001703 89 CB                           	MOV	EBX,ECX
  2370 00001705                                 L466:
  2371 00001705 8B 55 08                        	MOV	EDX,DWORD [8+EBP]
  2372 00001708 8B 45 EC                        	MOV	EAX,DWORD [-20+EBP]
  2373 0000170B C1 F8 0A                        	SAR	EAX,10
  2374 0000170E 8B 4D F0                        	MOV	ECX,DWORD [-16+EBP]
  2375 00001711 0F AF 42 04                     	IMUL	EAX,DWORD [4+EDX]
  2376 00001715 C1 F9 0A                        	SAR	ECX,10
  2377 00001718 89 4D E8                        	MOV	DWORD [-24+EBP],ECX
  2378 0000171B 8B 0A                           	MOV	ECX,DWORD [EDX]
  2379 0000171D 03 45 E8                        	ADD	EAX,DWORD [-24+EBP]
  2380 00001720 8A 55 1C                        	MOV	DL,BYTE [28+EBP]
  2381 00001723 88 14 08                        	MOV	BYTE [EAX+ECX*1],DL
  2382 00001726 01 75 F0                        	ADD	DWORD [-16+EBP],ESI
  2383 00001729 01 7D EC                        	ADD	DWORD [-20+EBP],EDI
  2384 0000172C 4B                              	DEC	EBX
  2385 0000172D 75 D6                           	JNE	L466
  2386 0000172F                                 L468:
  2387 0000172F 83 C4 0C                        	ADD	ESP,12
  2388 00001732 5B                              	POP	EBX
  2389 00001733 5E                              	POP	ESI
  2390 00001734 5F                              	POP	EDI
  2391 00001735 5D                              	POP	EBP
  2392 00001736 C3                              	RET
  2393 00001737                                 L455:
  2394 00001737 2B 55 10                        	SUB	EDX,DWORD [16+EBP]
  2395 0000173A 4A                              	DEC	EDX
  2396 0000173B EB B8                           	JMP	L470
  2397 0000173D                                 L452:
  2398 0000173D 8D 4F 01                        	LEA	ECX,DWORD [1+EDI]
  2399 00001740 39 55 10                        	CMP	DWORD [16+EBP],EDX
  2400 00001743 BF FFFFFC00                     	MOV	EDI,-1024
  2401 00001748 7F 05                           	JG	L459
  2402 0000174A BF 00000400                     	MOV	EDI,1024
  2403 0000174F                                 L459:
  2404 0000174F 39 C3                           	CMP	EBX,EAX
  2405 00001751 7F 11                           	JG	L460
  2406 00001753 29 D8                           	SUB	EAX,EBX
  2407 00001755 8D 50 01                        	LEA	EDX,DWORD [1+EAX]
  2408 00001758                                 L469:
  2409 00001758 C1 E2 0A                        	SAL	EDX,10
  2410 0000175B 89 D0                           	MOV	EAX,EDX
  2411 0000175D 99                              	CDQ
  2412 0000175E F7 F9                           	IDIV	ECX
  2413 00001760 89 C6                           	MOV	ESI,EAX
  2414 00001762 EB 9B                           	JMP	L457
  2415 00001764                                 L460:
  2416 00001764 29 D8                           	SUB	EAX,EBX
  2417 00001766 8D 50 FF                        	LEA	EDX,DWORD [-1+EAX]
  2418 00001769 EB ED                           	JMP	L469
  2419 0000176B                                 L472:
  2420 0000176B F7 DF                           	NEG	EDI
  2421 0000176D E9 FFFFFF65                     	JMP	L451
  2422 00001772                                 L471:
  2423 00001772 F7 DE                           	NEG	ESI
  2424 00001774 E9 FFFFFF56                     	JMP	L450
  2425 00001779                                 	GLOBAL	_hrb_dpi
  2426 00001779                                 _hrb_dpi:
  2427 00001779 55                              	PUSH	EBP
  2428 0000177A 89 E5                           	MOV	EBP,ESP
  2429 0000177C FF 75 20                        	PUSH	DWORD [32+EBP]
  2430 0000177F E8 [00000000]                   	CALL	_VEcode
  2431 00001784 59                              	POP	ECX
  2432 00001785 85 C0                           	TEST	EAX,EAX
  2433 00001787 0F 95 C0                        	SETNE	AL
  2434 0000178A 0F B6 C0                        	MOVZX	EAX,AL
  2435 0000178D 48                              	DEC	EAX
  2436 0000178E C9                              	LEAVE
  2437 0000178F C3                              	RET
