     1 00000000                                 [FORMAT "WCOFF"]
     2 00000000                                 [INSTRSET "i486p"]
     3 00000000                                 [OPTIMIZE 1]
     4 00000000                                 [OPTION 1]
     5 00000000                                 [BITS 32]
     6 00000000                                 	EXTERN	_vsprintf
     7 00000000                                 	EXTERN	_boxfill8
     8 00000000                                 	EXTERN	_hankaku
     9 00000000                                 	EXTERN	_putfont8
    10 00000000                                 	EXTERN	_io_out8
    11 00000000                                 	EXTERN	_io_in8
    12 00000000                                 	EXTERN	_sprintf
    13 00000000                                 	EXTERN	_dDevs
    14 00000000                                 	EXTERN	_message_send
    15 00000000                                 	EXTERN	_message_receive
    16 00000000                                 	EXTERN	_task_now
    17 00000000                                 	EXTERN	_memman_alloc_4k
    18 00000000                                 	EXTERN	_timer_alloc
    19 00000000                                 	EXTERN	_timer_init
    20 00000000                                 	EXTERN	_timer_settime
    21 00000000                                 	EXTERN	_file_readfat
    22 00000000                                 	EXTERN	_io_cli
    23 00000000                                 	EXTERN	_fifo32_status
    24 00000000                                 	EXTERN	_fifo32_get
    25 00000000                                 	EXTERN	_io_sti
    26 00000000                                 	EXTERN	_sheet_refresh
    27 00000000                                 	EXTERN	_task_sleep
    28 00000000                                 	EXTERN	_putfonts8_asc_sht
    29 00000000                                 	EXTERN	_acpiPowerOff
    30 00000000                                 	EXTERN	_pid
    31 00000000                                 	EXTERN	_pid2task
    32 00000000                                 	EXTERN	_memman_total
    33 00000000                                 	EXTERN	_timer_cancel
    34 00000000                                 	EXTERN	_memman_free_4k
    35 00000000                                 	EXTERN	_fifo32_put
    36 00000000                                 	EXTERN	_taskctl
    37 00000000                                 	EXTERN	_open_console
    38 00000000                                 	EXTERN	_sheet_slide
    39 00000000                                 	EXTERN	_sheet_updown
    40 00000000                                 	EXTERN	_open_constask
    41 00000000                                 	EXTERN	_file_search
    42 00000000                                 	EXTERN	_file_loadfile2
    43 00000000                                 	EXTERN	_set_segmdesc
    44 00000000                                 	EXTERN	_start_app
    45 00000000                                 	EXTERN	_timer_cancelall
    46 00000000                                 	EXTERN	_sheet_free
    47 00000000                                 	EXTERN	_timer_free
    48 00000000                                 	EXTERN	_memman_free
    49 00000000                                 	EXTERN	_memman_alloc
    50 00000000                                 	EXTERN	_memman_init
    51 00000000                                 	EXTERN	_putfonts8_asc
    52 00000000                                 	EXTERN	_sheet_alloc
    53 00000000                                 	EXTERN	_sheet_setbuf
    54 00000000                                 	EXTERN	_make_window8
    55 00000000                                 	EXTERN	_io_out16
    56 00000000                                 	EXTERN	_io_in16
    57 00000000                                 	EXTERN	_io_out32
    58 00000000                                 	EXTERN	_io_in32
    59 00000000                                 	EXTERN	_task_delete
    60 00000000                                 	EXTERN	_task_switchsub
    61 00000000                                 	EXTERN	_farjmp
    62 00000000                                 [FILE "console.c"]
    63                                          [SECTION .text]
    64 00000000                                 	GLOBAL	_printk
    65 00000000                                 _printk:
    66 00000000 55                              	PUSH	EBP
    67 00000001 89 E5                           	MOV	EBP,ESP
    68 00000003 56                              	PUSH	ESI
    69 00000004 53                              	PUSH	EBX
    70 00000005 81 EC 000003F0                  	SUB	ESP,1008
    71 0000000B 8D 45 0C                        	LEA	EAX,DWORD [12+EBP]
    72 0000000E 8D 9D FFFFFC08                  	LEA	EBX,DWORD [-1016+EBP]
    73 00000014 50                              	PUSH	EAX
    74 00000015 FF 75 08                        	PUSH	DWORD [8+EBP]
    75 00000018 53                              	PUSH	EBX
    76 00000019 E8 [00000000]                   	CALL	_vsprintf
    77 0000001E 53                              	PUSH	EBX
    78 0000001F 89 C6                           	MOV	ESI,EAX
    79 00000021 E8 00000009                     	CALL	_error_print
    80 00000026 8D 65 F8                        	LEA	ESP,DWORD [-8+EBP]
    81 00000029 89 F0                           	MOV	EAX,ESI
    82 0000002B 5B                              	POP	EBX
    83 0000002C 5E                              	POP	ESI
    84 0000002D 5D                              	POP	EBP
    85 0000002E C3                              	RET
    86 0000002F                                 	GLOBAL	_error_print
    87 0000002F                                 _error_print:
    88 0000002F 55                              	PUSH	EBP
    89 00000030 89 E5                           	MOV	EBP,ESP
    90 00000032 57                              	PUSH	EDI
    91 00000033 56                              	PUSH	ESI
    92 00000034 31 FF                           	XOR	EDI,EDI
    93 00000036 53                              	PUSH	EBX
    94 00000037 31 F6                           	XOR	ESI,ESI
    95 00000039 8B 5D 08                        	MOV	EBX,DWORD [8+EBP]
    96 0000003C 80 3B 00                        	CMP	BYTE [EBX],0
    97 0000003F 74 58                           	JE	L11
    98 00000041                                 L9:
    99 00000041 8A 03                           	MOV	AL,BYTE [EBX]
   100 00000043 3C 0A                           	CMP	AL,10
   101 00000045 74 5E                           	JE	L12
   102 00000047 3C 0D                           	CMP	AL,13
   103 00000049 74 56                           	JE	L13
   104 0000004B 8D 46 10                        	LEA	EAX,DWORD [16+ESI]
   105 0000004E 50                              	PUSH	EAX
   106 0000004F 8D 47 10                        	LEA	EAX,DWORD [16+EDI]
   107 00000052 50                              	PUSH	EAX
   108 00000053 56                              	PUSH	ESI
   109 00000054 57                              	PUSH	EDI
   110 00000055 6A 00                           	PUSH	0
   111 00000057 0F BF 05 00000FF4               	MOVSX	EAX,WORD [4084]
   112 0000005E 50                              	PUSH	EAX
   113 0000005F FF 35 00000FF8                  	PUSH	DWORD [4088]
   114 00000065 E8 [00000000]                   	CALL	_boxfill8
   115 0000006A 0F BE 03                        	MOVSX	EAX,BYTE [EBX]
   116 0000006D C1 E0 04                        	SAL	EAX,4
   117 00000070 05 [00000000]                   	ADD	EAX,_hankaku
   118 00000075 50                              	PUSH	EAX
   119 00000076 6A 07                           	PUSH	7
   120 00000078 56                              	PUSH	ESI
   121 00000079 57                              	PUSH	EDI
   122 0000007A 83 C7 0A                        	ADD	EDI,10
   123 0000007D 0F BF 05 00000FF4               	MOVSX	EAX,WORD [4084]
   124 00000084 50                              	PUSH	EAX
   125 00000085 FF 35 00000FF8                  	PUSH	DWORD [4088]
   126 0000008B E8 [00000000]                   	CALL	_putfont8
   127 00000090 83 C4 34                        	ADD	ESP,52
   128 00000093                                 L5:
   129 00000093 43                              	INC	EBX
   130 00000094 80 3B 00                        	CMP	BYTE [EBX],0
   131 00000097 75 A8                           	JNE	L9
   132 00000099                                 L11:
   133 00000099 8D 65 F4                        	LEA	ESP,DWORD [-12+EBP]
   134 0000009C 5B                              	POP	EBX
   135 0000009D 5E                              	POP	ESI
   136 0000009E 5F                              	POP	EDI
   137 0000009F 5D                              	POP	EBP
   138 000000A0 C3                              	RET
   139 000000A1                                 L13:
   140 000000A1 31 FF                           	XOR	EDI,EDI
   141 000000A3 EB EE                           	JMP	L5
   142 000000A5                                 L12:
   143 000000A5 83 C6 10                        	ADD	ESI,16
   144 000000A8 EB E9                           	JMP	L5
   145                                          [SECTION .data]
   146 00000000                                 _adr.0:
   147 00000000 00                              	DB	0
   148 00000001 02                              	DB	2
   149 00000002 04                              	DB	4
   150 00000003 07                              	DB	7
   151 00000004 08                              	DB	8
   152 00000005 09                              	DB	9
   153 00000006 32                              	DB	50
   154 00000007                                 _max.1:
   155 00000007 60                              	DB	96
   156 00000008 59                              	DB	89
   157 00000009 23                              	DB	35
   158 0000000A 31                              	DB	49
   159 0000000B 12                              	DB	18
   160 0000000C 99                              	DB	-103
   161 0000000D 99                              	DB	-103
   162                                          [SECTION .text]
   163 000000AA                                 	GLOBAL	_readrtc
   164 000000AA                                 _readrtc:
   165 000000AA 55                              	PUSH	EBP
   166 000000AB 89 E5                           	MOV	EBP,ESP
   167 000000AD 57                              	PUSH	EDI
   168 000000AE 56                              	PUSH	ESI
   169 000000AF 53                              	PUSH	EBX
   170 000000B0 50                              	PUSH	EAX
   171 000000B1 8B 7D 08                        	MOV	EDI,DWORD [8+EBP]
   172 000000B4                                 L15:
   173 000000B4 C6 45 F3 00                     	MOV	BYTE [-13+EBP],0
   174 000000B8 31 F6                           	XOR	ESI,ESI
   175 000000BA                                 L22:
   176 000000BA 0F B6 86 [00000000]             	MOVZX	EAX,BYTE [_adr.0+ESI]
   177 000000C1 50                              	PUSH	EAX
   178 000000C2 6A 70                           	PUSH	112
   179 000000C4 E8 [00000000]                   	CALL	_io_out8
   180 000000C9 6A 71                           	PUSH	113
   181 000000CB E8 [00000000]                   	CALL	_io_in8
   182 000000D0 83 C4 0C                        	ADD	ESP,12
   183 000000D3 88 04 3E                        	MOV	BYTE [ESI+EDI*1],AL
   184 000000D6 46                              	INC	ESI
   185 000000D7 83 FE 06                        	CMP	ESI,6
   186 000000DA 7E DE                           	JLE	L22
   187 000000DC 31 F6                           	XOR	ESI,ESI
   188 000000DE                                 L29:
   189 000000DE 0F B6 86 [00000000]             	MOVZX	EAX,BYTE [_adr.0+ESI]
   190 000000E5 50                              	PUSH	EAX
   191 000000E6 6A 70                           	PUSH	112
   192 000000E8 E8 [00000000]                   	CALL	_io_out8
   193 000000ED 0F B6 1C 3E                     	MOVZX	EBX,BYTE [ESI+EDI*1]
   194 000000F1 6A 71                           	PUSH	113
   195 000000F3 E8 [00000000]                   	CALL	_io_in8
   196 000000F8 83 C4 0C                        	ADD	ESP,12
   197 000000FB 39 C3                           	CMP	EBX,EAX
   198 000000FD 74 18                           	JE	L35
   199 000000FF                                 L28:
   200 000000FF C6 45 F3 01                     	MOV	BYTE [-13+EBP],1
   201 00000103                                 L25:
   202 00000103 46                              	INC	ESI
   203 00000104 83 FE 06                        	CMP	ESI,6
   204 00000107 7E D5                           	JLE	L29
   205 00000109 80 7D F3 00                     	CMP	BYTE [-13+EBP],0
   206 0000010D 75 A5                           	JNE	L15
   207 0000010F 8D 65 F4                        	LEA	ESP,DWORD [-12+EBP]
   208 00000112 5B                              	POP	EBX
   209 00000113 5E                              	POP	ESI
   210 00000114 5F                              	POP	EDI
   211 00000115 5D                              	POP	EBP
   212 00000116 C3                              	RET
   213 00000117                                 L35:
   214 00000117 8A 14 3E                        	MOV	DL,BYTE [ESI+EDI*1]
   215 0000011A 88 D0                           	MOV	AL,DL
   216 0000011C 83 E0 0F                        	AND	EAX,15
   217 0000011F 3C 09                           	CMP	AL,9
   218 00000121 77 DC                           	JA	L28
   219 00000123 3A 96 [00000007]                	CMP	DL,BYTE [_max.1+ESI]
   220 00000129 76 D8                           	JBE	L25
   221 0000012B EB D2                           	JMP	L28
   222                                          [SECTION .data]
   223 0000000E                                 LC0:
   224 0000000E 25 30 32 58 25 30 32 58 2E 25   	DB	"%02X%02X.%02X.%02X %02X:%02X:%02X",0x0A,0x00
       00000018 30 32 58 2E 25 30 32 58 20 25 
       00000022 30 32 58 3A 25 30 32 58 3A 25 
       0000002C 30 32 58 0A 00 
   225                                          [SECTION .text]
   226 0000012D                                 	GLOBAL	_printtime
   227 0000012D                                 _printtime:
   228 0000012D 55                              	PUSH	EBP
   229 0000012E 89 E5                           	MOV	EBP,ESP
   230 00000130 53                              	PUSH	EBX
   231 00000131 83 EC 30                        	SUB	ESP,48
   232 00000134 8D 45 CC                        	LEA	EAX,DWORD [-52+EBP]
   233 00000137 8D 5D DC                        	LEA	EBX,DWORD [-36+EBP]
   234 0000013A 50                              	PUSH	EAX
   235 0000013B E8 FFFFFF6A                     	CALL	_readrtc
   236 00000140 0F B6 45 CC                     	MOVZX	EAX,BYTE [-52+EBP]
   237 00000144 50                              	PUSH	EAX
   238 00000145 0F B6 45 CD                     	MOVZX	EAX,BYTE [-51+EBP]
   239 00000149 50                              	PUSH	EAX
   240 0000014A 0F B6 45 CE                     	MOVZX	EAX,BYTE [-50+EBP]
   241 0000014E 50                              	PUSH	EAX
   242 0000014F 0F B6 45 CF                     	MOVZX	EAX,BYTE [-49+EBP]
   243 00000153 50                              	PUSH	EAX
   244 00000154 0F B6 45 D0                     	MOVZX	EAX,BYTE [-48+EBP]
   245 00000158 50                              	PUSH	EAX
   246 00000159 0F B6 45 D1                     	MOVZX	EAX,BYTE [-47+EBP]
   247 0000015D 50                              	PUSH	EAX
   248 0000015E 0F B6 45 D2                     	MOVZX	EAX,BYTE [-46+EBP]
   249 00000162 50                              	PUSH	EAX
   250 00000163 68 [0000000E]                   	PUSH	LC0
   251 00000168 53                              	PUSH	EBX
   252 00000169 E8 [00000000]                   	CALL	_sprintf
   253 0000016E 83 C4 28                        	ADD	ESP,40
   254 00000171 53                              	PUSH	EBX
   255 00000172 FF 75 08                        	PUSH	DWORD [8+EBP]
   256 00000175 E8 00000849                     	CALL	_cons_putstr0
   257 0000017A 8B 5D FC                        	MOV	EBX,DWORD [-4+EBP]
   258 0000017D C9                              	LEAVE
   259 0000017E C3                              	RET
   260                                          [SECTION .data]
   261 00000031                                 _month:
   262 00000031 00000000                        	DD	0
   263 00000035 0028DE80                        	DD	2678400
   264 00000039 004F1A00                        	DD	5184000
   265 0000003D 0077F880                        	DD	7862400
   266 00000041 009F8580                        	DD	10454400
   267 00000045 00C86400                        	DD	13132800
   268 00000049 00EFF100                        	DD	15724800
   269 0000004D 0118CF80                        	DD	18403200
   270 00000051 0141AE00                        	DD	21081600
   271 00000055 01693B00                        	DD	23673600
   272 00000059 01921980                        	DD	26352000
   273 0000005D 01B9A680                        	DD	28944000
   274                                          [SECTION .text]
   275 0000017F                                 	GLOBAL	_kernel_mktime
   276 0000017F                                 _kernel_mktime:
   277 0000017F 55                              	PUSH	EBP
   278 00000180 BA 00000004                     	MOV	EDX,4
   279 00000185 89 E5                           	MOV	EBP,ESP
   280 00000187 57                              	PUSH	EDI
   281 00000188 56                              	PUSH	ESI
   282 00000189 89 D7                           	MOV	EDI,EDX
   283 0000018B 8B 75 08                        	MOV	ESI,DWORD [8+EBP]
   284 0000018E 53                              	PUSH	EBX
   285 0000018F 8B 1E                           	MOV	EBX,DWORD [ESI]
   286 00000191 89 D9                           	MOV	ECX,EBX
   287 00000193 8D 83 FFFFF84F                  	LEA	EAX,DWORD [-1969+EBX]
   288 00000199 99                              	CDQ
   289 0000019A F7 FF                           	IDIV	EDI
   290 0000019C 69 C9 01E13380                  	IMUL	ECX,ECX,31536000
   291 000001A2 69 C0 00015180                  	IMUL	EAX,EAX,86400
   292 000001A8 8D 94 08 8901B100               	LEA	EDX,DWORD [-1996377856+EAX+ECX*1]
   293 000001AF 8B 46 04                        	MOV	EAX,DWORD [4+ESI]
   294 000001B2 03 14 85 [00000031]             	ADD	EDX,DWORD [_month+EAX*4]
   295 000001B9 48                              	DEC	EAX
   296 000001BA 7E 0B                           	JLE	L38
   297 000001BC 83 E3 03                        	AND	EBX,3
   298 000001BF 74 06                           	JE	L38
   299 000001C1 81 EA 00015180                  	SUB	EDX,86400
   300 000001C7                                 L38:
   301 000001C7 8B 46 08                        	MOV	EAX,DWORD [8+ESI]
   302 000001CA 5B                              	POP	EBX
   303 000001CB 69 C0 00015180                  	IMUL	EAX,EAX,86400
   304 000001D1 8D 94 10 FFFEAE80               	LEA	EDX,DWORD [-86400+EAX+EDX*1]
   305 000001D8 0F BE 46 0C                     	MOVSX	EAX,BYTE [12+ESI]
   306 000001DC 69 C0 00000E10                  	IMUL	EAX,EAX,3600
   307 000001E2 01 C2                           	ADD	EDX,EAX
   308 000001E4 0F BE 46 0D                     	MOVSX	EAX,BYTE [13+ESI]
   309 000001E8 6B C0 3C                        	IMUL	EAX,EAX,60
   310 000001EB 01 C2                           	ADD	EDX,EAX
   311 000001ED 0F BE 46 0E                     	MOVSX	EAX,BYTE [14+ESI]
   312 000001F1 5E                              	POP	ESI
   313 000001F2 01 C2                           	ADD	EDX,EAX
   314 000001F4 5F                              	POP	EDI
   315 000001F5 89 D0                           	MOV	EAX,EDX
   316 000001F7 5D                              	POP	EBP
   317 000001F8 C3                              	RET
   318 000001F9                                 	GLOBAL	_time
   319 000001F9                                 _time:
   320 000001F9 55                              	PUSH	EBP
   321 000001FA 89 E5                           	MOV	EBP,ESP
   322 000001FC E8 00000180                     	CALL	_time2TIME
   323 00000201 50                              	PUSH	EAX
   324 00000202 E8 FFFFFF78                     	CALL	_kernel_mktime
   325 00000207 C9                              	LEAVE
   326 00000208 C3                              	RET
   327                                          [SECTION .data]
   328 00000061                                 LC1:
   329 00000061 48 44 20 53 4E 00               	DB	"HD SN",0x00
   330 00000067                                 LC2:
   331 00000067 48 44 20 4D 6F 64 65 6C 00      	DB	"HD Model",0x00
   332 00000070                                 	ALIGNB	4
   333 00000070                                 LC3:
   334 00000070 0000000A                        	DD	10
   335 00000074 00000014                        	DD	20
   336 00000078 [00000061]                      	DD	LC1
   337 0000007C 0000001B                        	DD	27
   338 00000080 00000028                        	DD	40
   339 00000084 [00000067]                      	DD	LC2
   340 00000088                                 LC4:
   341 00000088 25 73 3A 20 25 73 0A 00         	DB	"%s: %s",0x0A,0x00
   342 00000090                                 LC5:
   343 00000090 59 65 73 00                     	DB	"Yes",0x00
   344 00000094                                 LC7:
   345 00000094 4C 42 41 20 73 75 70 70 6F 72   	DB	"LBA supported: %s",0x0A,0x00
       0000009E 74 65 64 3A 20 25 73 0A 00 
   346 000000A7                                 LC8:
   347 000000A7 4C 42 41 34 38 20 73 75 70 70   	DB	"LBA48 supported: %s",0x0A,0x00
       000000B1 6F 72 74 65 64 3A 20 25 73 0A 
       000000BB 00 
   348 000000BC                                 LC9:
   349 000000BC 48 44 20 73 69 7A 65 3A 20 25   	DB	"HD size: %dMB",0x0A,0x00
       000000C6 64 4D 42 0A 00 
   350 000000CB                                 LC6:
   351 000000CB 4E 6F 00                        	DB	"No",0x00
   352                                          [SECTION .text]
   353 00000209                                 	GLOBAL	_print_identify_info
   354 00000209                                 _print_identify_info:
   355 00000209 55                              	PUSH	EBP
   356 0000020A B9 00000006                     	MOV	ECX,6
   357 0000020F 89 E5                           	MOV	EBP,ESP
   358 00000211 57                              	PUSH	EDI
   359 00000212 56                              	PUSH	ESI
   360 00000213 BE [00000070]                   	MOV	ESI,LC3
   361 00000218 53                              	PUSH	EBX
   362 00000219 8D BD FFFFFC74                  	LEA	EDI,DWORD [-908+EBP]
   363 0000021F FC                              	CLD
   364 00000220 81 EC 0000038C                  	SUB	ESP,908
   365 00000226 F3                              	REP
   366 00000227 A5                              	MOVSD
   367 00000228 C7 85 FFFFFC68 00000000         	MOV	DWORD [-920+EBP],0
   368 00000232 8D 75 F4                        	LEA	ESI,DWORD [-12+EBP]
   369 00000235                                 L50:
   370 00000235 8B 86 FFFFFC80                  	MOV	EAX,DWORD [-896+ESI]
   371 0000023B 8B 55 08                        	MOV	EDX,DWORD [8+EBP]
   372 0000023E BF 00000002                     	MOV	EDI,2
   373 00000243 31 DB                           	XOR	EBX,EBX
   374 00000245 8D 0C 42                        	LEA	ECX,DWORD [EDX+EAX*2]
   375 00000248 89 B5 FFFFFC70                  	MOV	DWORD [-912+EBP],ESI
   376 0000024E 8B 96 FFFFFC84                  	MOV	EDX,DWORD [-892+ESI]
   377 00000254 89 D0                           	MOV	EAX,EDX
   378 00000256 99                              	CDQ
   379 00000257 F7 FF                           	IDIV	EDI
   380 00000259 89 85 FFFFFC6C                  	MOV	DWORD [-916+EBP],EAX
   381 0000025F 39 C3                           	CMP	EBX,EAX
   382 00000261 7D 2F                           	JGE	L58
   383 00000263                                 L49:
   384 00000263 8A 01                           	MOV	AL,BYTE [ECX]
   385 00000265 BF 00000002                     	MOV	EDI,2
   386 0000026A 41                              	INC	ECX
   387 0000026B 88 44 5D B5                     	MOV	BYTE [-75+EBP+EBX*2],AL
   388 0000026F 8A 01                           	MOV	AL,BYTE [ECX]
   389 00000271 41                              	INC	ECX
   390 00000272 88 44 5D B4                     	MOV	BYTE [-76+EBP+EBX*2],AL
   391 00000276 43                              	INC	EBX
   392 00000277 8B 85 FFFFFC70                  	MOV	EAX,DWORD [-912+EBP]
   393 0000027D 8B 90 FFFFFC84                  	MOV	EDX,DWORD [-892+EAX]
   394 00000283 89 D0                           	MOV	EAX,EDX
   395 00000285 99                              	CDQ
   396 00000286 F7 FF                           	IDIV	EDI
   397 00000288 89 85 FFFFFC6C                  	MOV	DWORD [-916+EBP],EAX
   398 0000028E 39 C3                           	CMP	EBX,EAX
   399 00000290 7C D1                           	JL	L49
   400 00000292                                 L58:
   401 00000292 C6 44 5D B4 00                  	MOV	BYTE [-76+EBP+EBX*2],0
   402 00000297 8D 5D B4                        	LEA	EBX,DWORD [-76+EBP]
   403 0000029A 8D 85 FFFFFC94                  	LEA	EAX,DWORD [-876+EBP]
   404 000002A0 53                              	PUSH	EBX
   405 000002A1 FF B6 FFFFFC88                  	PUSH	DWORD [-888+ESI]
   406 000002A7 68 [00000088]                   	PUSH	LC4
   407 000002AC 83 C6 0C                        	ADD	ESI,12
   408 000002AF 50                              	PUSH	EAX
   409 000002B0 E8 [00000000]                   	CALL	_sprintf
   410 000002B5 53                              	PUSH	EBX
   411 000002B6 FF 75 0C                        	PUSH	DWORD [12+EBP]
   412 000002B9 E8 00000705                     	CALL	_cons_putstr0
   413 000002BE FF 85 FFFFFC68                  	INC	DWORD [-920+EBP]
   414 000002C4 83 C4 18                        	ADD	ESP,24
   415 000002C7 83 BD FFFFFC68 01               	CMP	DWORD [-920+EBP],1
   416 000002CE 0F 86 FFFFFF61                  	JBE	L50
   417 000002D4 8B 45 08                        	MOV	EAX,DWORD [8+EBP]
   418 000002D7 F6 40 63 02                     	TEST	BYTE [99+EAX],2
   419 000002DB 0F 84 00000096                  	JE	L51
   420 000002E1 B8 [00000090]                   	MOV	EAX,LC5
   421 000002E6                                 L52:
   422 000002E6 50                              	PUSH	EAX
   423 000002E7 8D 85 FFFFFC94                  	LEA	EAX,DWORD [-876+EBP]
   424 000002ED 68 [00000094]                   	PUSH	LC7
   425 000002F2 50                              	PUSH	EAX
   426 000002F3 E8 [00000000]                   	CALL	_sprintf
   427 000002F8 8D 45 B4                        	LEA	EAX,DWORD [-76+EBP]
   428 000002FB 50                              	PUSH	EAX
   429 000002FC FF 75 0C                        	PUSH	DWORD [12+EBP]
   430 000002FF E8 000006BF                     	CALL	_cons_putstr0
   431 00000304 8B 55 08                        	MOV	EDX,DWORD [8+EBP]
   432 00000307 F6 82 000000A7 04               	TEST	BYTE [167+EDX],4
   433 0000030E 74 60                           	JE	L53
   434 00000310 B8 [00000090]                   	MOV	EAX,LC5
   435 00000315                                 L54:
   436 00000315 50                              	PUSH	EAX
   437 00000316 8D B5 FFFFFC94                  	LEA	ESI,DWORD [-876+EBP]
   438 0000031C 68 [000000A7]                   	PUSH	LC8
   439 00000321 8D 5D B4                        	LEA	EBX,DWORD [-76+EBP]
   440 00000324 56                              	PUSH	ESI
   441 00000325 E8 [00000000]                   	CALL	_sprintf
   442 0000032A 83 C4 20                        	ADD	ESP,32
   443 0000032D 53                              	PUSH	EBX
   444 0000032E FF 75 0C                        	PUSH	DWORD [12+EBP]
   445 00000331 E8 0000068D                     	CALL	_cons_putstr0
   446 00000336 8B 4D 08                        	MOV	ECX,DWORD [8+EBP]
   447 00000339 0F BF 41 7A                     	MOVSX	EAX,WORD [122+ECX]
   448 0000033D 0F BF 51 78                     	MOVSX	EDX,WORD [120+ECX]
   449 00000341 C1 E0 10                        	SAL	EAX,16
   450 00000344 01 D0                           	ADD	EAX,EDX
   451 00000346 BA 000F4240                     	MOV	EDX,1000000
   452 0000034B C1 E0 09                        	SAL	EAX,9
   453 0000034E 89 D7                           	MOV	EDI,EDX
   454 00000350 99                              	CDQ
   455 00000351 F7 FF                           	IDIV	EDI
   456 00000353 50                              	PUSH	EAX
   457 00000354 68 [000000BC]                   	PUSH	LC9
   458 00000359 56                              	PUSH	ESI
   459 0000035A E8 [00000000]                   	CALL	_sprintf
   460 0000035F 53                              	PUSH	EBX
   461 00000360 FF 75 0C                        	PUSH	DWORD [12+EBP]
   462 00000363 E8 0000065B                     	CALL	_cons_putstr0
   463 00000368 8D 65 F4                        	LEA	ESP,DWORD [-12+EBP]
   464 0000036B 5B                              	POP	EBX
   465 0000036C 5E                              	POP	ESI
   466 0000036D 5F                              	POP	EDI
   467 0000036E 5D                              	POP	EBP
   468 0000036F C3                              	RET
   469 00000370                                 L53:
   470 00000370 B8 [000000CB]                   	MOV	EAX,LC6
   471 00000375 EB 9E                           	JMP	L54
   472 00000377                                 L51:
   473 00000377 B8 [000000CB]                   	MOV	EAX,LC6
   474 0000037C E9 FFFFFF65                     	JMP	L52
   475 00000381                                 	GLOBAL	_time2TIME
   476 00000381                                 _time2TIME:
   477 00000381 55                              	PUSH	EBP
   478 00000382 89 E5                           	MOV	EBP,ESP
   479 00000384 83 EC 10                        	SUB	ESP,16
   480 00000387 50                              	PUSH	EAX
   481 00000388 E8 FFFFFD1D                     	CALL	_readrtc
   482 0000038D 8D 45 F0                        	LEA	EAX,DWORD [-16+EBP]
   483 00000390 C9                              	LEAVE
   484 00000391 C3                              	RET
   485                                          [SECTION .data]
   486 000000CE                                 LC10:
   487 000000CE 25 64 4D 42 0A 0A 00            	DB	"%dMB",0x0A,0x0A,0x00
   488                                          [SECTION .text]
   489 00000392                                 	GLOBAL	_hdinfo
   490 00000392                                 _hdinfo:
   491 00000392 55                              	PUSH	EBP
   492 00000393 89 E5                           	MOV	EBP,ESP
   493 00000395 53                              	PUSH	EBX
   494 00000396 83 EC 40                        	SUB	ESP,64
   495 00000399 8D 5D DC                        	LEA	EBX,DWORD [-36+EBP]
   496 0000039C A1 [00000014]                   	MOV	EAX,DWORD [_dDevs+20]
   497 000003A1 53                              	PUSH	EBX
   498 000003A2 8B 40 08                        	MOV	EAX,DWORD [8+EAX]
   499 000003A5 C7 45 DC 00000001               	MOV	DWORD [-36+EBP],1
   500 000003AC FF B0 00000130                  	PUSH	DWORD [304+EAX]
   501 000003B2 E8 [00000000]                   	CALL	_message_send
   502 000003B7 53                              	PUSH	EBX
   503 000003B8 68 00002710                     	PUSH	10000
   504 000003BD 8D 5D BC                        	LEA	EBX,DWORD [-68+EBP]
   505 000003C0 E8 [00000000]                   	CALL	_message_receive
   506 000003C5 8B 45 E4                        	MOV	EAX,DWORD [-28+EBP]
   507 000003C8 0F BE 00                        	MOVSX	EAX,BYTE [EAX]
   508 000003CB 50                              	PUSH	EAX
   509 000003CC 68 [000000CE]                   	PUSH	LC10
   510 000003D1 53                              	PUSH	EBX
   511 000003D2 E8 [00000000]                   	CALL	_sprintf
   512 000003D7 53                              	PUSH	EBX
   513 000003D8 FF 75 08                        	PUSH	DWORD [8+EBP]
   514 000003DB E8 000005E3                     	CALL	_cons_putstr0
   515 000003E0 8B 5D FC                        	MOV	EBX,DWORD [-4+EBP]
   516 000003E3 C9                              	LEAVE
   517 000003E4 C3                              	RET
   518 000003E5                                 	GLOBAL	_console_task
   519 000003E5                                 _console_task:
   520 000003E5 55                              	PUSH	EBP
   521 000003E6 89 E5                           	MOV	EBP,ESP
   522 000003E8 57                              	PUSH	EDI
   523 000003E9 56                              	PUSH	ESI
   524 000003EA 53                              	PUSH	EBX
   525 000003EB 81 EC 000000B0                  	SUB	ESP,176
   526 000003F1 8B 5D 08                        	MOV	EBX,DWORD [8+EBP]
   527 000003F4 E8 [00000000]                   	CALL	_task_now
   528 000003F9 68 00002D00                     	PUSH	11520
   529 000003FE 68 003C0000                     	PUSH	3932160
   530 00000403 89 85 FFFFFF50                  	MOV	DWORD [-176+EBP],EAX
   531 00000409 E8 [00000000]                   	CALL	_memman_alloc_4k
   532 0000040E 85 DB                           	TEST	EBX,EBX
   533 00000410 8B 95 FFFFFF50                  	MOV	EDX,DWORD [-176+EBP]
   534 00000416 8B 35 00000FE8                  	MOV	ESI,DWORD [4072]
   535 0000041C 89 85 FFFFFF4C                  	MOV	DWORD [-180+EBP],EAX
   536 00000422 89 5D D4                        	MOV	DWORD [-44+EBP],EBX
   537 00000425 8D 45 D4                        	LEA	EAX,DWORD [-44+EBP]
   538 00000428 89 82 00000114                  	MOV	DWORD [276+EDX],EAX
   539 0000042E 8D 85 FFFFFF54                  	LEA	EAX,DWORD [-172+EBP]
   540 00000434 89 82 00000128                  	MOV	DWORD [296+EDX],EAX
   541 0000043A 58                              	POP	EAX
   542 0000043B C7 45 D8 00000008               	MOV	DWORD [-40+EBP],8
   543 00000442 C7 45 DC 0000001C               	MOV	DWORD [-36+EBP],28
   544 00000449 C7 45 E0 FFFFFFFF               	MOV	DWORD [-32+EBP],-1
   545 00000450 5A                              	POP	EDX
   546 00000451 74 27                           	JE	L62
   547 00000453 E8 [00000000]                   	CALL	_timer_alloc
   548 00000458 8B 95 FFFFFF50                  	MOV	EDX,DWORD [-176+EBP]
   549 0000045E 6A 01                           	PUSH	1
   550 00000460 83 C2 10                        	ADD	EDX,16
   551 00000463 52                              	PUSH	EDX
   552 00000464 89 45 E4                        	MOV	DWORD [-28+EBP],EAX
   553 00000467 50                              	PUSH	EAX
   554 00000468 E8 [00000000]                   	CALL	_timer_init
   555 0000046D 6A 32                           	PUSH	50
   556 0000046F FF 75 E4                        	PUSH	DWORD [-28+EBP]
   557 00000472 E8 [00000000]                   	CALL	_timer_settime
   558 00000477 83 C4 14                        	ADD	ESP,20
   559 0000047A                                 L62:
   560 0000047A 68 00100200                     	PUSH	1049088
   561 0000047F FF B5 FFFFFF4C                  	PUSH	DWORD [-180+EBP]
   562 00000485 E8 [00000000]                   	CALL	_file_readfat
   563 0000048A 5F                              	POP	EDI
   564 0000048B 58                              	POP	EAX
   565 0000048C BF 00000007                     	MOV	EDI,7
   566 00000491 31 C0                           	XOR	EAX,EAX
   567 00000493                                 L67:
   568 00000493 C7 84 05 FFFFFF74 00000000      	MOV	DWORD [-140+EBP+EAX*1],0
   569 0000049E 83 C0 0C                        	ADD	EAX,12
   570 000004A1 4F                              	DEC	EDI
   571 000004A2 79 EF                           	JNS	L67
   572 000004A4 8B 95 FFFFFF50                  	MOV	EDX,DWORD [-176+EBP]
   573 000004AA 8D 85 FFFFFF74                  	LEA	EAX,DWORD [-140+EBP]
   574 000004B0 8D 5D D4                        	LEA	EBX,DWORD [-44+EBP]
   575 000004B3 89 82 00000120                  	MOV	DWORD [288+EDX],EAX
   576 000004B9 8B 85 FFFFFF4C                  	MOV	EAX,DWORD [-180+EBP]
   577 000004BF 89 82 00000124                  	MOV	DWORD [292+EDX],EAX
   578 000004C5 80 BE 00001000 FF               	CMP	BYTE [4096+ESI],-1
   579 000004CC C6 82 0000012D 00               	MOV	BYTE [301+EDX],0
   580 000004D3 0F 95 82 0000012C               	SETNE	BYTE [300+EDX]
   581 000004DA 68 [000002E0]                   	PUSH	_now_dir
   582 000004DF 53                              	PUSH	EBX
   583 000004E0 C6 05 [000002E0] 43             	MOV	BYTE [_now_dir],67
   584 000004E7 C6 05 [000002E1] 3A             	MOV	BYTE [_now_dir+1],58
   585 000004EE C6 05 [000002E2] 2F             	MOV	BYTE [_now_dir+2],47
   586 000004F5 C6 05 [000002E3] 00             	MOV	BYTE [_now_dir+3],0
   587 000004FC C6 05 [000002E4] 00             	MOV	BYTE [_now_dir+4],0
   588 00000503 E8 000004BB                     	CALL	_cons_putstr0
   589 00000508 6A 01                           	PUSH	1
   590 0000050A 6A 3E                           	PUSH	62
   591 0000050C 53                              	PUSH	EBX
   592 0000050D E8 00000318                     	CALL	_cons_putchar
   593 00000512 C7 85 FFFFFF48 00000000         	MOV	DWORD [-184+EBP],0
   594 0000051C C7 85 FFFFFF44 00000000         	MOV	DWORD [-188+EBP],0
   595 00000526                                 L102:
   596 00000526 83 C4 14                        	ADD	ESP,20
   597 00000529                                 L70:
   598 00000529 E8 [00000000]                   	CALL	_io_cli
   599 0000052E 83 BD FFFFFF44 00               	CMP	DWORD [-188+EBP],0
   600 00000535 0F 88 000002E0                  	JS	L105
   601 0000053B                                 L73:
   602 0000053B 8B 9D FFFFFF50                  	MOV	EBX,DWORD [-176+EBP]
   603 00000541 83 C3 10                        	ADD	EBX,16
   604 00000544 53                              	PUSH	EBX
   605 00000545 E8 [00000000]                   	CALL	_fifo32_status
   606 0000054A 5E                              	POP	ESI
   607 0000054B 85 C0                           	TEST	EAX,EAX
   608 0000054D 0F 84 000002B2                  	JE	L106
   609 00000553 53                              	PUSH	EBX
   610 00000554 E8 [00000000]                   	CALL	_fifo32_get
   611 00000559 89 C7                           	MOV	EDI,EAX
   612 0000055B E8 [00000000]                   	CALL	_io_sti
   613 00000560 59                              	POP	ECX
   614 00000561 83 FF 01                        	CMP	EDI,1
   615 00000564 0F 8E 00000244                  	JLE	L107
   616 0000056A                                 L76:
   617 0000056A 83 FF 02                        	CMP	EDI,2
   618 0000056D 0F 84 0000022F                  	JE	L108
   619 00000573                                 L81:
   620 00000573 83 FF 03                        	CMP	EDI,3
   621 00000576 0F 84 000001F4                  	JE	L109
   622 0000057C                                 L82:
   623 0000057C 83 FF 04                        	CMP	EDI,4
   624 0000057F 0F 84 000001D5                  	JE	L110
   625 00000585                                 L84:
   626 00000585 8D B7 FFFFFF00                  	LEA	ESI,DWORD [-256+EDI]
   627 0000058B 81 FE 000000FF                  	CMP	ESI,255
   628 00000591 77 45                           	JA	L85
   629 00000593 81 FF 00000108                  	CMP	EDI,264
   630 00000599 0F 84 0000015E                  	JE	L111
   631 0000059F 81 FF 0000010A                  	CMP	EDI,266
   632 000005A5 0F 84 000000C9                  	JE	L112
   633 000005AB 81 7D D8 000000EF               	CMP	DWORD [-40+EBP],239
   634 000005B2 7F 79                           	JG	L96
   635 000005B4 8B 95 FFFFFF44                  	MOV	EDX,DWORD [-188+EBP]
   636 000005BA 6A 01                           	PUSH	1
   637 000005BC 89 F8                           	MOV	EAX,EDI
   638 000005BE 56                              	PUSH	ESI
   639 000005BF 88 84 15 FFFFFF54               	MOV	BYTE [-172+EBP+EDX*1],AL
   640 000005C6 8D 45 D4                        	LEA	EAX,DWORD [-44+EBP]
   641 000005C9 50                              	PUSH	EAX
   642 000005CA E8 0000025B                     	CALL	_cons_putchar
   643 000005CF 83 C4 0C                        	ADD	ESP,12
   644 000005D2                                 L97:
   645 000005D2 FF 85 FFFFFF44                  	INC	DWORD [-188+EBP]
   646 000005D8                                 L85:
   647 000005D8 E8 [00000000]                   	CALL	_io_sti
   648 000005DD 8B 5D D4                        	MOV	EBX,DWORD [-44+EBP]
   649 000005E0 85 DB                           	TEST	EBX,EBX
   650 000005E2 0F 84 FFFFFF41                  	JE	L70
   651 000005E8 83 7D E0 00                     	CMP	DWORD [-32+EBP],0
   652 000005EC 78 22                           	JS	L99
   653 000005EE 8B 4D DC                        	MOV	ECX,DWORD [-36+EBP]
   654 000005F1 8B 55 D8                        	MOV	EDX,DWORD [-40+EBP]
   655 000005F4 8D 41 0F                        	LEA	EAX,DWORD [15+ECX]
   656 000005F7 50                              	PUSH	EAX
   657 000005F8 8D 42 07                        	LEA	EAX,DWORD [7+EDX]
   658 000005FB 50                              	PUSH	EAX
   659 000005FC 51                              	PUSH	ECX
   660 000005FD 52                              	PUSH	EDX
   661 000005FE 0F B6 45 E0                     	MOVZX	EAX,BYTE [-32+EBP]
   662 00000602 50                              	PUSH	EAX
   663 00000603 FF 73 04                        	PUSH	DWORD [4+EBX]
   664 00000606 FF 33                           	PUSH	DWORD [EBX]
   665 00000608 E8 [00000000]                   	CALL	_boxfill8
   666 0000060D 83 C4 1C                        	ADD	ESP,28
   667 00000610                                 L99:
   668 00000610 8B 4D DC                        	MOV	ECX,DWORD [-36+EBP]
   669 00000613 8B 55 D8                        	MOV	EDX,DWORD [-40+EBP]
   670 00000616 8D 41 10                        	LEA	EAX,DWORD [16+ECX]
   671 00000619 50                              	PUSH	EAX
   672 0000061A 8D 42 08                        	LEA	EAX,DWORD [8+EDX]
   673 0000061D 50                              	PUSH	EAX
   674 0000061E 51                              	PUSH	ECX
   675 0000061F 52                              	PUSH	EDX
   676 00000620 FF 75 D4                        	PUSH	DWORD [-44+EBP]
   677 00000623 E8 [00000000]                   	CALL	_sheet_refresh
   678 00000628 E9 FFFFFEF9                     	JMP	L102
   679 0000062D                                 L96:
   680 0000062D 6A 01                           	PUSH	1
   681 0000062F 8D 5D D4                        	LEA	EBX,DWORD [-44+EBP]
   682 00000632 6A 20                           	PUSH	32
   683 00000634 53                              	PUSH	EBX
   684 00000635 E8 000001F0                     	CALL	_cons_putchar
   685 0000063A 6A 00                           	PUSH	0
   686 0000063C 8B 95 FFFFFF44                  	MOV	EDX,DWORD [-188+EBP]
   687 00000642 6A 20                           	PUSH	32
   688 00000644 89 F8                           	MOV	EAX,EDI
   689 00000646 53                              	PUSH	EBX
   690 00000647 88 84 15 FFFFFF54               	MOV	BYTE [-172+EBP+EDX*1],AL
   691 0000064E 8B 45 D8                        	MOV	EAX,DWORD [-40+EBP]
   692 00000651 01 85 FFFFFF48                  	ADD	DWORD [-184+EBP],EAX
   693 00000657 E8 000001CE                     	CALL	_cons_putchar
   694 0000065C 6A 01                           	PUSH	1
   695 0000065E 56                              	PUSH	ESI
   696 0000065F 53                              	PUSH	EBX
   697 00000660 C7 45 D8 00000008               	MOV	DWORD [-40+EBP],8
   698 00000667 E8 000001BE                     	CALL	_cons_putchar
   699 0000066C 83 C4 24                        	ADD	ESP,36
   700 0000066F E9 FFFFFF5E                     	JMP	L97
   701 00000674                                 L112:
   702 00000674 6A 00                           	PUSH	0
   703 00000676 8D 5D D4                        	LEA	EBX,DWORD [-44+EBP]
   704 00000679 6A 20                           	PUSH	32
   705 0000067B 53                              	PUSH	EBX
   706 0000067C E8 000001A9                     	CALL	_cons_putchar
   707 00000681 53                              	PUSH	EBX
   708 00000682 8B 95 FFFFFF44                  	MOV	EDX,DWORD [-188+EBP]
   709 00000688 C6 84 15 FFFFFF54 00            	MOV	BYTE [-172+EBP+EDX*1],0
   710 00000690 E8 00000246                     	CALL	_cons_newline
   711 00000695 8D 85 FFFFFF54                  	LEA	EAX,DWORD [-172+EBP]
   712 0000069B 68 [000002E0]                   	PUSH	_now_dir
   713 000006A0 FF 75 0C                        	PUSH	DWORD [12+EBP]
   714 000006A3 FF B5 FFFFFF4C                  	PUSH	DWORD [-180+EBP]
   715 000006A9 53                              	PUSH	EBX
   716 000006AA 50                              	PUSH	EAX
   717 000006AB E8 00000374                     	CALL	_cons_runcmd
   718 000006B0 83 C4 24                        	ADD	ESP,36
   719 000006B3 83 7D D4 00                     	CMP	DWORD [-44+EBP],0
   720 000006B7 75 0E                           	JNE	L94
   721 000006B9 FF B5 FFFFFF4C                  	PUSH	DWORD [-180+EBP]
   722 000006BF 53                              	PUSH	EBX
   723 000006C0 E8 00000842                     	CALL	_cmd_exit
   724 000006C5 5A                              	POP	EDX
   725 000006C6 59                              	POP	ECX
   726 000006C7                                 L94:
   727 000006C7 E8 [00000000]                   	CALL	_io_cli
   728 000006CC 68 [000002E0]                   	PUSH	_now_dir
   729 000006D1 53                              	PUSH	EBX
   730 000006D2 E8 000002EC                     	CALL	_cons_putstr0
   731 000006D7 6A 01                           	PUSH	1
   732 000006D9 6A 3E                           	PUSH	62
   733 000006DB 53                              	PUSH	EBX
   734 000006DC E8 00000149                     	CALL	_cons_putchar
   735 000006E1 83 C4 14                        	ADD	ESP,20
   736 000006E4 C7 85 FFFFFF44 00000000         	MOV	DWORD [-188+EBP],0
   737 000006EE C7 85 FFFFFF48 00000000         	MOV	DWORD [-184+EBP],0
   738 000006F8 E9 FFFFFEDB                     	JMP	L85
   739 000006FD                                 L111:
   740 000006FD 8B 45 D8                        	MOV	EAX,DWORD [-40+EBP]
   741 00000700 83 F8 28                        	CMP	EAX,40
   742 00000703 7F 12                           	JG	L104
   743 00000705 83 BD FFFFFF48 00               	CMP	DWORD [-184+EBP],0
   744 0000070C 0F 8E FFFFFEC6                  	JLE	L85
   745 00000712 83 F8 08                        	CMP	EAX,8
   746 00000715 7E 1F                           	JLE	L89
   747 00000717                                 L104:
   748 00000717 6A 00                           	PUSH	0
   749 00000719 8D 45 D4                        	LEA	EAX,DWORD [-44+EBP]
   750 0000071C 6A 20                           	PUSH	32
   751 0000071E 50                              	PUSH	EAX
   752 0000071F E8 00000106                     	CALL	_cons_putchar
   753 00000724 83 6D D8 08                     	SUB	DWORD [-40+EBP],8
   754 00000728                                 L103:
   755 00000728 FF 8D FFFFFF44                  	DEC	DWORD [-188+EBP]
   756 0000072E 83 C4 0C                        	ADD	ESP,12
   757 00000731 E9 FFFFFEA2                     	JMP	L85
   758 00000736                                 L89:
   759 00000736 6A 00                           	PUSH	0
   760 00000738 8D 45 D4                        	LEA	EAX,DWORD [-44+EBP]
   761 0000073B 6A 20                           	PUSH	32
   762 0000073D 50                              	PUSH	EAX
   763 0000073E E8 000000E7                     	CALL	_cons_putchar
   764 00000743 81 AD FFFFFF48 000000F0         	SUB	DWORD [-184+EBP],240
   765 0000074D 83 6D DC 10                     	SUB	DWORD [-36+EBP],16
   766 00000751 C7 45 D8 000000F0               	MOV	DWORD [-40+EBP],240
   767 00000758 EB CE                           	JMP	L103
   768 0000075A                                 L110:
   769 0000075A FF B5 FFFFFF4C                  	PUSH	DWORD [-180+EBP]
   770 00000760 8D 45 D4                        	LEA	EAX,DWORD [-44+EBP]
   771 00000763 50                              	PUSH	EAX
   772 00000764 E8 0000079E                     	CALL	_cmd_exit
   773 00000769 5B                              	POP	EBX
   774 0000076A 5E                              	POP	ESI
   775 0000076B E9 FFFFFE15                     	JMP	L84
   776 00000770                                 L109:
   777 00000770 8B 5D D4                        	MOV	EBX,DWORD [-44+EBP]
   778 00000773 85 DB                           	TEST	EBX,EBX
   779 00000775 74 1F                           	JE	L83
   780 00000777 8B 4D DC                        	MOV	ECX,DWORD [-36+EBP]
   781 0000077A 8B 55 D8                        	MOV	EDX,DWORD [-40+EBP]
   782 0000077D 8D 41 0F                        	LEA	EAX,DWORD [15+ECX]
   783 00000780 50                              	PUSH	EAX
   784 00000781 8D 42 07                        	LEA	EAX,DWORD [7+EDX]
   785 00000784 50                              	PUSH	EAX
   786 00000785 51                              	PUSH	ECX
   787 00000786 52                              	PUSH	EDX
   788 00000787 6A 00                           	PUSH	0
   789 00000789 FF 73 04                        	PUSH	DWORD [4+EBX]
   790 0000078C FF 33                           	PUSH	DWORD [EBX]
   791 0000078E E8 [00000000]                   	CALL	_boxfill8
   792 00000793 83 C4 1C                        	ADD	ESP,28
   793 00000796                                 L83:
   794 00000796 C7 45 E0 FFFFFFFF               	MOV	DWORD [-32+EBP],-1
   795 0000079D E9 FFFFFDDA                     	JMP	L82
   796 000007A2                                 L108:
   797 000007A2 C7 45 E0 00000007               	MOV	DWORD [-32+EBP],7
   798 000007A9 E9 FFFFFDC5                     	JMP	L81
   799 000007AE                                 L107:
   800 000007AE 83 7D D4 00                     	CMP	DWORD [-44+EBP],0
   801 000007B2 0F 84 FFFFFDB2                  	JE	L76
   802 000007B8 85 FF                           	TEST	EDI,EDI
   803 000007BA 74 2C                           	JE	L77
   804 000007BC 6A 00                           	PUSH	0
   805 000007BE 53                              	PUSH	EBX
   806 000007BF FF 75 E4                        	PUSH	DWORD [-28+EBP]
   807 000007C2 E8 [00000000]                   	CALL	_timer_init
   808 000007C7 83 C4 0C                        	ADD	ESP,12
   809 000007CA 83 7D E0 00                     	CMP	DWORD [-32+EBP],0
   810 000007CE 78 07                           	JS	L79
   811 000007D0 C7 45 E0 00000007               	MOV	DWORD [-32+EBP],7
   812 000007D7                                 L79:
   813 000007D7 6A 32                           	PUSH	50
   814 000007D9 FF 75 E4                        	PUSH	DWORD [-28+EBP]
   815 000007DC E8 [00000000]                   	CALL	_timer_settime
   816 000007E1 58                              	POP	EAX
   817 000007E2 5A                              	POP	EDX
   818 000007E3 E9 FFFFFD82                     	JMP	L76
   819 000007E8                                 L77:
   820 000007E8 6A 01                           	PUSH	1
   821 000007EA 53                              	PUSH	EBX
   822 000007EB FF 75 E4                        	PUSH	DWORD [-28+EBP]
   823 000007EE E8 [00000000]                   	CALL	_timer_init
   824 000007F3 83 C4 0C                        	ADD	ESP,12
   825 000007F6 83 7D E0 00                     	CMP	DWORD [-32+EBP],0
   826 000007FA 78 DB                           	JS	L79
   827 000007FC C7 45 E0 00000000               	MOV	DWORD [-32+EBP],0
   828 00000803 EB D2                           	JMP	L79
   829 00000805                                 L106:
   830 00000805 FF B5 FFFFFF50                  	PUSH	DWORD [-176+EBP]
   831 0000080B E8 [00000000]                   	CALL	_task_sleep
   832 00000810 E8 [00000000]                   	CALL	_io_sti
   833 00000815 5B                              	POP	EBX
   834 00000816 E9 FFFFFD0E                     	JMP	L70
   835 0000081B                                 L105:
   836 0000081B C7 85 FFFFFF44 00000000         	MOV	DWORD [-188+EBP],0
   837 00000825 E9 FFFFFD11                     	JMP	L73
   838                                          [SECTION .data]
   839 000000D5                                 LC11:
   840 000000D5 20 00                           	DB	" ",0x00
   841                                          [SECTION .text]
   842 0000082A                                 	GLOBAL	_cons_putchar
   843 0000082A                                 _cons_putchar:
   844 0000082A 55                              	PUSH	EBP
   845 0000082B 89 E5                           	MOV	EBP,ESP
   846 0000082D 53                              	PUSH	EBX
   847 0000082E 50                              	PUSH	EAX
   848 0000082F 8B 45 0C                        	MOV	EAX,DWORD [12+EBP]
   849 00000832 8A 55 10                        	MOV	DL,BYTE [16+EBP]
   850 00000835 8B 5D 08                        	MOV	EBX,DWORD [8+EBP]
   851 00000838 88 55 F9                        	MOV	BYTE [-7+EBP],DL
   852 0000083B 88 45 FA                        	MOV	BYTE [-6+EBP],AL
   853 0000083E 3C 09                           	CMP	AL,9
   854 00000840 C6 45 FB 00                     	MOV	BYTE [-5+EBP],0
   855 00000844 74 4D                           	JE	L115
   856 00000846 3C 0A                           	CMP	AL,10
   857 00000848 74 25                           	JE	L129
   858 0000084A 3C 0D                           	CMP	AL,13
   859 0000084C 74 1C                           	JE	L113
   860 0000084E 8B 13                           	MOV	EDX,DWORD [EBX]
   861 00000850 85 D2                           	TEST	EDX,EDX
   862 00000852 75 24                           	JNE	L130
   863 00000854                                 L126:
   864 00000854 80 7D F9 00                     	CMP	BYTE [-7+EBP],0
   865 00000858 74 10                           	JE	L113
   866 0000085A 8B 43 04                        	MOV	EAX,DWORD [4+EBX]
   867 0000085D 83 C0 08                        	ADD	EAX,8
   868 00000860 89 43 04                        	MOV	DWORD [4+EBX],EAX
   869 00000863 3D 000000F8                     	CMP	EAX,248
   870 00000868 74 05                           	JE	L129
   871 0000086A                                 L113:
   872 0000086A 8B 5D FC                        	MOV	EBX,DWORD [-4+EBP]
   873 0000086D C9                              	LEAVE
   874 0000086E C3                              	RET
   875 0000086F                                 L129:
   876 0000086F 53                              	PUSH	EBX
   877 00000870 E8 00000066                     	CALL	_cons_newline
   878 00000875 59                              	POP	ECX
   879 00000876 EB F2                           	JMP	L113
   880 00000878                                 L130:
   881 00000878 6A 01                           	PUSH	1
   882 0000087A 8D 45 FA                        	LEA	EAX,DWORD [-6+EBP]
   883 0000087D 50                              	PUSH	EAX
   884 0000087E 6A 00                           	PUSH	0
   885 00000880 6A 07                           	PUSH	7
   886 00000882 FF 73 08                        	PUSH	DWORD [8+EBX]
   887 00000885 FF 73 04                        	PUSH	DWORD [4+EBX]
   888 00000888 52                              	PUSH	EDX
   889 00000889 E8 [00000000]                   	CALL	_putfonts8_asc_sht
   890 0000088E 83 C4 1C                        	ADD	ESP,28
   891 00000891 EB C1                           	JMP	L126
   892 00000893                                 L115:
   893 00000893 8B 03                           	MOV	EAX,DWORD [EBX]
   894 00000895 85 C0                           	TEST	EAX,EAX
   895 00000897 75 26                           	JNE	L131
   896 00000899                                 L118:
   897 00000899 8B 43 04                        	MOV	EAX,DWORD [4+EBX]
   898 0000089C 83 C0 08                        	ADD	EAX,8
   899 0000089F 89 43 04                        	MOV	DWORD [4+EBX],EAX
   900 000008A2 3D 000000F8                     	CMP	EAX,248
   901 000008A7 74 0D                           	JE	L132
   902 000008A9                                 L119:
   903 000008A9 8B 43 04                        	MOV	EAX,DWORD [4+EBX]
   904 000008AC 83 E8 08                        	SUB	EAX,8
   905 000008AF 83 E0 1F                        	AND	EAX,31
   906 000008B2 75 DF                           	JNE	L115
   907 000008B4 EB B4                           	JMP	L113
   908 000008B6                                 L132:
   909 000008B6 53                              	PUSH	EBX
   910 000008B7 E8 0000001F                     	CALL	_cons_newline
   911 000008BC 58                              	POP	EAX
   912 000008BD EB EA                           	JMP	L119
   913 000008BF                                 L131:
   914 000008BF 6A 01                           	PUSH	1
   915 000008C1 68 [000000D5]                   	PUSH	LC11
   916 000008C6 6A 00                           	PUSH	0
   917 000008C8 6A 07                           	PUSH	7
   918 000008CA FF 73 08                        	PUSH	DWORD [8+EBX]
   919 000008CD FF 73 04                        	PUSH	DWORD [4+EBX]
   920 000008D0 50                              	PUSH	EAX
   921 000008D1 E8 [00000000]                   	CALL	_putfonts8_asc_sht
   922 000008D6 83 C4 1C                        	ADD	ESP,28
   923 000008D9 EB BE                           	JMP	L118
   924 000008DB                                 	GLOBAL	_cons_newline
   925 000008DB                                 _cons_newline:
   926 000008DB 55                              	PUSH	EBP
   927 000008DC 89 E5                           	MOV	EBP,ESP
   928 000008DE 57                              	PUSH	EDI
   929 000008DF 56                              	PUSH	ESI
   930 000008E0 53                              	PUSH	EBX
   931 000008E1 50                              	PUSH	EAX
   932 000008E2 50                              	PUSH	EAX
   933 000008E3 8B 45 08                        	MOV	EAX,DWORD [8+EBP]
   934 000008E6 8B 00                           	MOV	EAX,DWORD [EAX]
   935 000008E8 89 45 F0                        	MOV	DWORD [-16+EBP],EAX
   936 000008EB E8 [00000000]                   	CALL	_task_now
   937 000008F0 8B 55 08                        	MOV	EDX,DWORD [8+EBP]
   938 000008F3 89 45 EC                        	MOV	DWORD [-20+EBP],EAX
   939 000008F6 8B 42 08                        	MOV	EAX,DWORD [8+EDX]
   940 000008F9 3D 0000008B                     	CMP	EAX,139
   941 000008FE 7F 36                           	JG	L134
   942 00000900 83 C0 10                        	ADD	EAX,16
   943 00000903 89 42 08                        	MOV	DWORD [8+EDX],EAX
   944 00000906                                 L135:
   945 00000906 8B 45 08                        	MOV	EAX,DWORD [8+EBP]
   946 00000909 8B 55 EC                        	MOV	EDX,DWORD [-20+EBP]
   947 0000090C C7 40 04 00000008               	MOV	DWORD [4+EAX],8
   948 00000913 80 BA 0000012C 01               	CMP	BYTE [300+EDX],1
   949 0000091A 74 08                           	JE	L166
   950 0000091C                                 L133:
   951 0000091C 8D 65 F4                        	LEA	ESP,DWORD [-12+EBP]
   952 0000091F 5B                              	POP	EBX
   953 00000920 5E                              	POP	ESI
   954 00000921 5F                              	POP	EDI
   955 00000922 5D                              	POP	EBP
   956 00000923 C3                              	RET
   957 00000924                                 L166:
   958 00000924 80 BA 0000012D 00               	CMP	BYTE [301+EDX],0
   959 0000092B 74 EF                           	JE	L133
   960 0000092D C7 40 04 00000010               	MOV	DWORD [4+EAX],16
   961 00000934 EB E6                           	JMP	L133
   962 00000936                                 L134:
   963 00000936 83 7D F0 00                     	CMP	DWORD [-16+EBP],0
   964 0000093A 74 CA                           	JE	L135
   965 0000093C BF 0000001C                     	MOV	EDI,28
   966 00000941                                 L146:
   967 00000941 BE 00000008                     	MOV	ESI,8
   968 00000946                                 L145:
   969 00000946 8B 45 F0                        	MOV	EAX,DWORD [-16+EBP]
   970 00000949 89 FA                           	MOV	EDX,EDI
   971 0000094B 8B 48 04                        	MOV	ECX,DWORD [4+EAX]
   972 0000094E 8B 18                           	MOV	EBX,DWORD [EAX]
   973 00000950 8D 47 10                        	LEA	EAX,DWORD [16+EDI]
   974 00000953 0F AF C1                        	IMUL	EAX,ECX
   975 00000956 0F AF D1                        	IMUL	EDX,ECX
   976 00000959 8D 04 30                        	LEA	EAX,DWORD [EAX+ESI*1]
   977 0000095C 8D 14 32                        	LEA	EDX,DWORD [EDX+ESI*1]
   978 0000095F 46                              	INC	ESI
   979 00000960 8A 04 18                        	MOV	AL,BYTE [EAX+EBX*1]
   980 00000963 81 FE 000000F7                  	CMP	ESI,247
   981 00000969 88 04 1A                        	MOV	BYTE [EDX+EBX*1],AL
   982 0000096C 7E D8                           	JLE	L145
   983 0000096E 47                              	INC	EDI
   984 0000096F 81 FF 0000008B                  	CMP	EDI,139
   985 00000975 7E CA                           	JLE	L146
   986 00000977 BF 0000008C                     	MOV	EDI,140
   987 0000097C                                 L156:
   988 0000097C BE 00000008                     	MOV	ESI,8
   989 00000981                                 L155:
   990 00000981 8B 55 F0                        	MOV	EDX,DWORD [-16+EBP]
   991 00000984 89 F8                           	MOV	EAX,EDI
   992 00000986 89 D1                           	MOV	ECX,EDX
   993 00000988 0F AF 42 04                     	IMUL	EAX,DWORD [4+EDX]
   994 0000098C 8B 12                           	MOV	EDX,DWORD [EDX]
   995 0000098E 8D 04 30                        	LEA	EAX,DWORD [EAX+ESI*1]
   996 00000991 46                              	INC	ESI
   997 00000992 81 FE 000000F7                  	CMP	ESI,247
   998 00000998 C6 04 10 00                     	MOV	BYTE [EAX+EDX*1],0
   999 0000099C 7E E3                           	JLE	L155
  1000 0000099E 47                              	INC	EDI
  1001 0000099F 81 FF 0000009B                  	CMP	EDI,155
  1002 000009A5 7E D5                           	JLE	L156
  1003 000009A7 68 0000009C                     	PUSH	156
  1004 000009AC 68 000000F8                     	PUSH	248
  1005 000009B1 6A 1C                           	PUSH	28
  1006 000009B3 6A 08                           	PUSH	8
  1007 000009B5 51                              	PUSH	ECX
  1008 000009B6 E8 [00000000]                   	CALL	_sheet_refresh
  1009 000009BB 83 C4 14                        	ADD	ESP,20
  1010 000009BE E9 FFFFFF43                     	JMP	L135
  1011 000009C3                                 	GLOBAL	_cons_putstr0
  1012 000009C3                                 _cons_putstr0:
  1013 000009C3 55                              	PUSH	EBP
  1014 000009C4 89 E5                           	MOV	EBP,ESP
  1015 000009C6 56                              	PUSH	ESI
  1016 000009C7 53                              	PUSH	EBX
  1017 000009C8 8B 5D 0C                        	MOV	EBX,DWORD [12+EBP]
  1018 000009CB 8B 75 08                        	MOV	ESI,DWORD [8+EBP]
  1019 000009CE 80 3B 00                        	CMP	BYTE [EBX],0
  1020 000009D1 75 07                           	JNE	L172
  1021 000009D3                                 L174:
  1022 000009D3 8D 65 F8                        	LEA	ESP,DWORD [-8+EBP]
  1023 000009D6 5B                              	POP	EBX
  1024 000009D7 5E                              	POP	ESI
  1025 000009D8 5D                              	POP	EBP
  1026 000009D9 C3                              	RET
  1027 000009DA                                 L172:
  1028 000009DA 6A 01                           	PUSH	1
  1029 000009DC 0F BE 03                        	MOVSX	EAX,BYTE [EBX]
  1030 000009DF 50                              	PUSH	EAX
  1031 000009E0 43                              	INC	EBX
  1032 000009E1 56                              	PUSH	ESI
  1033 000009E2 E8 FFFFFE43                     	CALL	_cons_putchar
  1034 000009E7 83 C4 0C                        	ADD	ESP,12
  1035 000009EA 80 3B 00                        	CMP	BYTE [EBX],0
  1036 000009ED 75 EB                           	JNE	L172
  1037 000009EF EB E2                           	JMP	L174
  1038 000009F1                                 	GLOBAL	_cons_putstr1
  1039 000009F1                                 _cons_putstr1:
  1040 000009F1 55                              	PUSH	EBP
  1041 000009F2 89 E5                           	MOV	EBP,ESP
  1042 000009F4 57                              	PUSH	EDI
  1043 000009F5 56                              	PUSH	ESI
  1044 000009F6 53                              	PUSH	EBX
  1045 000009F7 8B 75 10                        	MOV	ESI,DWORD [16+EBP]
  1046 000009FA 31 DB                           	XOR	EBX,EBX
  1047 000009FC 8B 7D 0C                        	MOV	EDI,DWORD [12+EBP]
  1048 000009FF 39 F3                           	CMP	EBX,ESI
  1049 00000A01 7C 08                           	JL	L180
  1050 00000A03                                 L182:
  1051 00000A03 8D 65 F4                        	LEA	ESP,DWORD [-12+EBP]
  1052 00000A06 5B                              	POP	EBX
  1053 00000A07 5E                              	POP	ESI
  1054 00000A08 5F                              	POP	EDI
  1055 00000A09 5D                              	POP	EBP
  1056 00000A0A C3                              	RET
  1057 00000A0B                                 L180:
  1058 00000A0B 6A 01                           	PUSH	1
  1059 00000A0D 0F BE 04 3B                     	MOVSX	EAX,BYTE [EBX+EDI*1]
  1060 00000A11 50                              	PUSH	EAX
  1061 00000A12 43                              	INC	EBX
  1062 00000A13 FF 75 08                        	PUSH	DWORD [8+EBP]
  1063 00000A16 E8 FFFFFE0F                     	CALL	_cons_putchar
  1064 00000A1B 83 C4 0C                        	ADD	ESP,12
  1065 00000A1E 39 F3                           	CMP	EBX,ESI
  1066 00000A20 7C E9                           	JL	L180
  1067 00000A22 EB DF                           	JMP	L182
  1068                                          [SECTION .data]
  1069 000000D7                                 LC12:
  1070 000000D7 6D 65 6D 00                     	DB	"mem",0x00
  1071 000000DB                                 LC13:
  1072 000000DB 63 6C 73 00                     	DB	"cls",0x00
  1073 000000DF                                 LC14:
  1074 000000DF 64 69 72 00                     	DB	"dir",0x00
  1075 000000E3                                 LC15:
  1076 000000E3 65 78 69 74 00                  	DB	"exit",0x00
  1077 000000E8                                 LC16:
  1078 000000E8 73 74 61 72 74 20 00            	DB	"start ",0x00
  1079 000000EF                                 LC17:
  1080 000000EF 6E 63 73 74 20 00               	DB	"ncst ",0x00
  1081 000000F5                                 LC18:
  1082 000000F5 6C 61 6E 67 6D 6F 64 65 20 00   	DB	"langmode ",0x00
  1083 000000FF                                 LC19:
  1084 000000FF 74 69 6D 65 00                  	DB	"time",0x00
  1085 00000104                                 LC20:
  1086 00000104 73 68 75 74 64 6F 77 6E 00      	DB	"shutdown",0x00
  1087 0000010D                                 LC21:
  1088 0000010D 76 65 72 73 69 6F 6E 00         	DB	"version",0x00
  1089 00000115                                 LC22:
  1090 00000115 76 65 72 00                     	DB	"ver",0x00
  1091 00000119                                 LC23:
  1092 00000119 68 64 69 6E 66 6F 00            	DB	"hdinfo",0x00
  1093 00000120                                 LC24:
  1094 00000120 70 73 00                        	DB	"ps",0x00
  1095 00000123                                 LC25:
  1096 00000123 63 64 20 00                     	DB	"cd ",0x00
  1097 00000127                                 LC27:
  1098 00000127 42 61 64 20 63 6F 6D 6D 61 6E   	DB	"Bad command.",0x0A,0x0A,0x00
       00000131 64 2E 0A 0A 00 
  1099 00000136                                 LC26:
  1100 00000136 63 64 20 3A 20 45 72 72 6F 72   	DB	"cd : Error!Not ready!",0x0A,0x0A,0x00
       00000140 21 4E 6F 74 20 72 65 61 64 79 
       0000014A 21 0A 0A 00 
  1101                                          [SECTION .text]
  1102 00000A24                                 	GLOBAL	_cons_runcmd
  1103 00000A24                                 _cons_runcmd:
  1104 00000A24 55                              	PUSH	EBP
  1105 00000A25 B9 00000004                     	MOV	ECX,4
  1106 00000A2A 89 E5                           	MOV	EBP,ESP
  1107 00000A2C 57                              	PUSH	EDI
  1108 00000A2D 56                              	PUSH	ESI
  1109 00000A2E 53                              	PUSH	EBX
  1110 00000A2F 83 EC 10                        	SUB	ESP,16
  1111 00000A32 8B 45 0C                        	MOV	EAX,DWORD [12+EBP]
  1112 00000A35 8B 7D 10                        	MOV	EDI,DWORD [16+EBP]
  1113 00000A38 89 45 E4                        	MOV	DWORD [-28+EBP],EAX
  1114 00000A3B 89 7D F0                        	MOV	DWORD [-16+EBP],EDI
  1115 00000A3E 8B 45 14                        	MOV	EAX,DWORD [20+EBP]
  1116 00000A41 8B 5D 08                        	MOV	EBX,DWORD [8+EBP]
  1117 00000A44 89 45 EC                        	MOV	DWORD [-20+EBP],EAX
  1118 00000A47 8B 7D 18                        	MOV	EDI,DWORD [24+EBP]
  1119 00000A4A B8 [000000D7]                   	MOV	EAX,LC12
  1120 00000A4F 89 7D E8                        	MOV	DWORD [-24+EBP],EDI
  1121 00000A52 FC                              	CLD
  1122 00000A53 89 DE                           	MOV	ESI,EBX
  1123 00000A55 89 C7                           	MOV	EDI,EAX
  1124 00000A57 F3                              	REPE
  1125 00000A58 A6                              	CMPSB
  1126 00000A59 75 0C                           	JNE	L184
  1127 00000A5B 8B 45 E4                        	MOV	EAX,DWORD [-28+EBP]
  1128 00000A5E 83 38 00                        	CMP	DWORD [EAX],0
  1129 00000A61 0F 85 0000026E                  	JNE	L215
  1130 00000A67                                 L184:
  1131 00000A67 B8 [000000DB]                   	MOV	EAX,LC13
  1132 00000A6C 89 DE                           	MOV	ESI,EBX
  1133 00000A6E FC                              	CLD
  1134 00000A6F B9 00000004                     	MOV	ECX,4
  1135 00000A74 89 C7                           	MOV	EDI,EAX
  1136 00000A76 F3                              	REPE
  1137 00000A77 A6                              	CMPSB
  1138 00000A78 75 0C                           	JNE	L186
  1139 00000A7A 8B 45 E4                        	MOV	EAX,DWORD [-28+EBP]
  1140 00000A7D 83 38 00                        	CMP	DWORD [EAX],0
  1141 00000A80 0F 85 00000240                  	JNE	L216
  1142 00000A86                                 L186:
  1143 00000A86 B8 [000000DF]                   	MOV	EAX,LC14
  1144 00000A8B 89 DE                           	MOV	ESI,EBX
  1145 00000A8D FC                              	CLD
  1146 00000A8E B9 00000004                     	MOV	ECX,4
  1147 00000A93 89 C7                           	MOV	EDI,EAX
  1148 00000A95 F3                              	REPE
  1149 00000A96 A6                              	CMPSB
  1150 00000A97 75 0C                           	JNE	L188
  1151 00000A99 8B 45 E4                        	MOV	EAX,DWORD [-28+EBP]
  1152 00000A9C 83 38 00                        	CMP	DWORD [EAX],0
  1153 00000A9F 0F 85 00000212                  	JNE	L217
  1154 00000AA5                                 L188:
  1155 00000AA5 B8 [000000E3]                   	MOV	EAX,LC15
  1156 00000AAA 89 DE                           	MOV	ESI,EBX
  1157 00000AAC FC                              	CLD
  1158 00000AAD B9 00000005                     	MOV	ECX,5
  1159 00000AB2 89 C7                           	MOV	EDI,EAX
  1160 00000AB4 F3                              	REPE
  1161 00000AB5 A6                              	CMPSB
  1162 00000AB6 0F 84 000001E3                  	JE	L218
  1163 00000ABC B8 [000000E8]                   	MOV	EAX,LC16
  1164 00000AC1 89 DE                           	MOV	ESI,EBX
  1165 00000AC3 FC                              	CLD
  1166 00000AC4 B9 00000006                     	MOV	ECX,6
  1167 00000AC9 89 C7                           	MOV	EDI,EAX
  1168 00000ACB F3                              	REPE
  1169 00000ACC A6                              	CMPSB
  1170 00000ACD 0F 84 000001B1                  	JE	L219
  1171 00000AD3 B8 [000000EF]                   	MOV	EAX,LC17
  1172 00000AD8 89 DE                           	MOV	ESI,EBX
  1173 00000ADA FC                              	CLD
  1174 00000ADB B9 00000005                     	MOV	ECX,5
  1175 00000AE0 89 C7                           	MOV	EDI,EAX
  1176 00000AE2 F3                              	REPE
  1177 00000AE3 A6                              	CMPSB
  1178 00000AE4 0F 84 0000017F                  	JE	L220
  1179 00000AEA B8 [000000F5]                   	MOV	EAX,LC18
  1180 00000AEF 89 DE                           	MOV	ESI,EBX
  1181 00000AF1 FC                              	CLD
  1182 00000AF2 B9 00000009                     	MOV	ECX,9
  1183 00000AF7 89 C7                           	MOV	EDI,EAX
  1184 00000AF9 F3                              	REPE
  1185 00000AFA A6                              	CMPSB
  1186 00000AFB 0F 84 00000153                  	JE	L221
  1187 00000B01 B8 [000000FF]                   	MOV	EAX,LC19
  1188 00000B06 89 DE                           	MOV	ESI,EBX
  1189 00000B08 FC                              	CLD
  1190 00000B09 B9 00000005                     	MOV	ECX,5
  1191 00000B0E 89 C7                           	MOV	EDI,EAX
  1192 00000B10 F3                              	REPE
  1193 00000B11 A6                              	CMPSB
  1194 00000B12 0F 84 0000012A                  	JE	L222
  1195 00000B18 B8 [00000104]                   	MOV	EAX,LC20
  1196 00000B1D 89 DE                           	MOV	ESI,EBX
  1197 00000B1F FC                              	CLD
  1198 00000B20 B9 00000009                     	MOV	ECX,9
  1199 00000B25 89 C7                           	MOV	EDI,EAX
  1200 00000B27 F3                              	REPE
  1201 00000B28 A6                              	CMPSB
  1202 00000B29 0F 84 00000107                  	JE	L223
  1203 00000B2F B8 [0000010D]                   	MOV	EAX,LC21
  1204 00000B34 89 DE                           	MOV	ESI,EBX
  1205 00000B36 FC                              	CLD
  1206 00000B37 B9 00000008                     	MOV	ECX,8
  1207 00000B3C 89 C7                           	MOV	EDI,EAX
  1208 00000B3E F3                              	REPE
  1209 00000B3F A6                              	CMPSB
  1210 00000B40 0F 84 000000DE                  	JE	L214
  1211 00000B46 B8 [00000115]                   	MOV	EAX,LC22
  1212 00000B4B 89 DE                           	MOV	ESI,EBX
  1213 00000B4D FC                              	CLD
  1214 00000B4E B9 00000004                     	MOV	ECX,4
  1215 00000B53 89 C7                           	MOV	EDI,EAX
  1216 00000B55 F3                              	REPE
  1217 00000B56 A6                              	CMPSB
  1218 00000B57 0F 84 000000C7                  	JE	L214
  1219 00000B5D B8 [00000119]                   	MOV	EAX,LC23
  1220 00000B62 89 DE                           	MOV	ESI,EBX
  1221 00000B64 FC                              	CLD
  1222 00000B65 B9 00000007                     	MOV	ECX,7
  1223 00000B6A 89 C7                           	MOV	EDI,EAX
  1224 00000B6C F3                              	REPE
  1225 00000B6D A6                              	CMPSB
  1226 00000B6E 0F 84 0000009E                  	JE	L224
  1227 00000B74 B8 [00000120]                   	MOV	EAX,LC24
  1228 00000B79 89 DE                           	MOV	ESI,EBX
  1229 00000B7B FC                              	CLD
  1230 00000B7C B9 00000003                     	MOV	ECX,3
  1231 00000B81 89 C7                           	MOV	EDI,EAX
  1232 00000B83 F3                              	REPE
  1233 00000B84 A6                              	CMPSB
  1234 00000B85 74 79                           	JE	L225
  1235 00000B87 B8 [00000123]                   	MOV	EAX,LC25
  1236 00000B8C 89 DE                           	MOV	ESI,EBX
  1237 00000B8E FC                              	CLD
  1238 00000B8F B9 00000002                     	MOV	ECX,2
  1239 00000B94 89 C7                           	MOV	EDI,EAX
  1240 00000B96 F3                              	REPE
  1241 00000B97 A6                              	CMPSB
  1242 00000B98 74 3C                           	JE	L226
  1243 00000B9A 80 3B 00                        	CMP	BYTE [EBX],0
  1244 00000B9D 75 08                           	JNE	L227
  1245 00000B9F                                 L183:
  1246 00000B9F 8D 65 F4                        	LEA	ESP,DWORD [-12+EBP]
  1247 00000BA2 5B                              	POP	EBX
  1248 00000BA3 5E                              	POP	ESI
  1249 00000BA4 5F                              	POP	EDI
  1250 00000BA5 5D                              	POP	EBP
  1251 00000BA6 C3                              	RET
  1252 00000BA7                                 L227:
  1253 00000BA7 FF 75 E8                        	PUSH	DWORD [-24+EBP]
  1254 00000BAA 53                              	PUSH	EBX
  1255 00000BAB FF 75 F0                        	PUSH	DWORD [-16+EBP]
  1256 00000BAE FF 75 E4                        	PUSH	DWORD [-28+EBP]
  1257 00000BB1 E8 00000515                     	CALL	_cmd_app
  1258 00000BB6 83 C4 10                        	ADD	ESP,16
  1259 00000BB9 85 C0                           	TEST	EAX,EAX
  1260 00000BBB 75 E2                           	JNE	L183
  1261 00000BBD 8B 45 E4                        	MOV	EAX,DWORD [-28+EBP]
  1262 00000BC0 C7 45 0C [00000127]             	MOV	DWORD [12+EBP],LC27
  1263 00000BC7 89 45 08                        	MOV	DWORD [8+EBP],EAX
  1264 00000BCA 8D 65 F4                        	LEA	ESP,DWORD [-12+EBP]
  1265 00000BCD 5B                              	POP	EBX
  1266 00000BCE 5E                              	POP	ESI
  1267 00000BCF 5F                              	POP	EDI
  1268 00000BD0 5D                              	POP	EBP
  1269 00000BD1 E9 FFFFFDED                     	JMP	_cons_putstr0
  1270 00000BD6                                 L226:
  1271 00000BD6 68 [00000136]                   	PUSH	LC26
  1272 00000BDB FF 75 E4                        	PUSH	DWORD [-28+EBP]
  1273 00000BDE E8 FFFFFDE0                     	CALL	_cons_putstr0
  1274 00000BE3 8B 7D E4                        	MOV	EDI,DWORD [-28+EBP]
  1275 00000BE6 58                              	POP	EAX
  1276 00000BE7 8B 45 E8                        	MOV	EAX,DWORD [-24+EBP]
  1277 00000BEA 5A                              	POP	EDX
  1278 00000BEB 89 7D 08                        	MOV	DWORD [8+EBP],EDI
  1279 00000BEE 89 45 10                        	MOV	DWORD [16+EBP],EAX
  1280 00000BF1 89 5D 0C                        	MOV	DWORD [12+EBP],EBX
  1281 00000BF4 8D 65 F4                        	LEA	ESP,DWORD [-12+EBP]
  1282 00000BF7 5B                              	POP	EBX
  1283 00000BF8 5E                              	POP	ESI
  1284 00000BF9 5F                              	POP	EDI
  1285 00000BFA 5D                              	POP	EBP
  1286 00000BFB E9 000001BD                     	JMP	_cd
  1287 00000C00                                 L225:
  1288 00000C00 8B 45 E4                        	MOV	EAX,DWORD [-28+EBP]
  1289 00000C03 89 45 08                        	MOV	DWORD [8+EBP],EAX
  1290 00000C06 8D 65 F4                        	LEA	ESP,DWORD [-12+EBP]
  1291 00000C09 5B                              	POP	EBX
  1292 00000C0A 5E                              	POP	ESI
  1293 00000C0B 5F                              	POP	EDI
  1294 00000C0C 5D                              	POP	EBP
  1295 00000C0D E9 000000D8                     	JMP	_ps
  1296 00000C12                                 L224:
  1297 00000C12 8B 45 E4                        	MOV	EAX,DWORD [-28+EBP]
  1298 00000C15 89 45 08                        	MOV	DWORD [8+EBP],EAX
  1299 00000C18 8D 65 F4                        	LEA	ESP,DWORD [-12+EBP]
  1300 00000C1B 5B                              	POP	EBX
  1301 00000C1C 5E                              	POP	ESI
  1302 00000C1D 5F                              	POP	EDI
  1303 00000C1E 5D                              	POP	EBP
  1304 00000C1F E9 FFFFF76E                     	JMP	_hdinfo
  1305 00000C24                                 L214:
  1306 00000C24 8B 45 E4                        	MOV	EAX,DWORD [-28+EBP]
  1307 00000C27 89 45 08                        	MOV	DWORD [8+EBP],EAX
  1308 00000C2A 8D 65 F4                        	LEA	ESP,DWORD [-12+EBP]
  1309 00000C2D 5B                              	POP	EBX
  1310 00000C2E 5E                              	POP	ESI
  1311 00000C2F 5F                              	POP	EDI
  1312 00000C30 5D                              	POP	EBP
  1313 00000C31 E9 0000018C                     	JMP	_ver
  1314 00000C36                                 L223:
  1315 00000C36 8D 65 F4                        	LEA	ESP,DWORD [-12+EBP]
  1316 00000C39 5B                              	POP	EBX
  1317 00000C3A 5E                              	POP	ESI
  1318 00000C3B 5F                              	POP	EDI
  1319 00000C3C 5D                              	POP	EBP
  1320 00000C3D E9 [00000000]                   	JMP	_acpiPowerOff
  1321 00000C42                                 L222:
  1322 00000C42 8B 45 E4                        	MOV	EAX,DWORD [-28+EBP]
  1323 00000C45 89 45 08                        	MOV	DWORD [8+EBP],EAX
  1324 00000C48 8D 65 F4                        	LEA	ESP,DWORD [-12+EBP]
  1325 00000C4B 5B                              	POP	EBX
  1326 00000C4C 5E                              	POP	ESI
  1327 00000C4D 5F                              	POP	EDI
  1328 00000C4E 5D                              	POP	EBP
  1329 00000C4F E9 FFFFF4D9                     	JMP	_printtime
  1330 00000C54                                 L221:
  1331 00000C54 8B 45 E4                        	MOV	EAX,DWORD [-28+EBP]
  1332 00000C57 89 5D 0C                        	MOV	DWORD [12+EBP],EBX
  1333 00000C5A 89 45 08                        	MOV	DWORD [8+EBP],EAX
  1334 00000C5D 8D 65 F4                        	LEA	ESP,DWORD [-12+EBP]
  1335 00000C60 5B                              	POP	EBX
  1336 00000C61 5E                              	POP	ESI
  1337 00000C62 5F                              	POP	EDI
  1338 00000C63 5D                              	POP	EBP
  1339 00000C64 E9 00000424                     	JMP	_cmd_langmode
  1340 00000C69                                 L220:
  1341 00000C69 8B 7D E4                        	MOV	EDI,DWORD [-28+EBP]
  1342 00000C6C 8B 45 EC                        	MOV	EAX,DWORD [-20+EBP]
  1343 00000C6F 89 45 10                        	MOV	DWORD [16+EBP],EAX
  1344 00000C72 89 5D 0C                        	MOV	DWORD [12+EBP],EBX
  1345 00000C75 89 7D 08                        	MOV	DWORD [8+EBP],EDI
  1346 00000C78 8D 65 F4                        	LEA	ESP,DWORD [-12+EBP]
  1347 00000C7B 5B                              	POP	EBX
  1348 00000C7C 5E                              	POP	ESI
  1349 00000C7D 5F                              	POP	EDI
  1350 00000C7E 5D                              	POP	EBP
  1351 00000C7F E9 000003A5                     	JMP	_cmd_ncst
  1352 00000C84                                 L219:
  1353 00000C84 8B 7D E4                        	MOV	EDI,DWORD [-28+EBP]
  1354 00000C87 8B 45 EC                        	MOV	EAX,DWORD [-20+EBP]
  1355 00000C8A 89 45 10                        	MOV	DWORD [16+EBP],EAX
  1356 00000C8D 89 5D 0C                        	MOV	DWORD [12+EBP],EBX
  1357 00000C90 89 7D 08                        	MOV	DWORD [8+EBP],EDI
  1358 00000C93 8D 65 F4                        	LEA	ESP,DWORD [-12+EBP]
  1359 00000C96 5B                              	POP	EBX
  1360 00000C97 5E                              	POP	ESI
  1361 00000C98 5F                              	POP	EDI
  1362 00000C99 5D                              	POP	EBP
  1363 00000C9A E9 00000300                     	JMP	_cmd_start
  1364 00000C9F                                 L218:
  1365 00000C9F 8B 7D E4                        	MOV	EDI,DWORD [-28+EBP]
  1366 00000CA2 8B 45 F0                        	MOV	EAX,DWORD [-16+EBP]
  1367 00000CA5 89 45 0C                        	MOV	DWORD [12+EBP],EAX
  1368 00000CA8 89 7D 08                        	MOV	DWORD [8+EBP],EDI
  1369 00000CAB 8D 65 F4                        	LEA	ESP,DWORD [-12+EBP]
  1370 00000CAE 5B                              	POP	EBX
  1371 00000CAF 5E                              	POP	ESI
  1372 00000CB0 5F                              	POP	EDI
  1373 00000CB1 5D                              	POP	EBP
  1374 00000CB2 E9 00000250                     	JMP	_cmd_exit
  1375 00000CB7                                 L217:
  1376 00000CB7 89 45 08                        	MOV	DWORD [8+EBP],EAX
  1377 00000CBA 8D 65 F4                        	LEA	ESP,DWORD [-12+EBP]
  1378 00000CBD 5B                              	POP	EBX
  1379 00000CBE 5E                              	POP	ESI
  1380 00000CBF 5F                              	POP	EDI
  1381 00000CC0 5D                              	POP	EBP
  1382 00000CC1 E9 000001AB                     	JMP	_cmd_dir
  1383 00000CC6                                 L216:
  1384 00000CC6 89 45 08                        	MOV	DWORD [8+EBP],EAX
  1385 00000CC9 8D 65 F4                        	LEA	ESP,DWORD [-12+EBP]
  1386 00000CCC 5B                              	POP	EBX
  1387 00000CCD 5E                              	POP	ESI
  1388 00000CCE 5F                              	POP	EDI
  1389 00000CCF 5D                              	POP	EBP
  1390 00000CD0 E9 00000143                     	JMP	_cmd_cls
  1391 00000CD5                                 L215:
  1392 00000CD5 8B 7D EC                        	MOV	EDI,DWORD [-20+EBP]
  1393 00000CD8 89 45 08                        	MOV	DWORD [8+EBP],EAX
  1394 00000CDB 89 7D 0C                        	MOV	DWORD [12+EBP],EDI
  1395 00000CDE 8D 65 F4                        	LEA	ESP,DWORD [-12+EBP]
  1396 00000CE1 5B                              	POP	EBX
  1397 00000CE2 5E                              	POP	ESI
  1398 00000CE3 5F                              	POP	EDI
  1399 00000CE4 5D                              	POP	EBP
  1400 00000CE5 E9 000000ED                     	JMP	_cmd_mem
  1401                                          [SECTION .data]
  1402 0000014E                                 LC28:
  1403 0000014E 50 49 44 09 6E 61 6D 65 0A 00   	DB	"PID",0x09,"name",0x0A,0x00
  1404 00000158                                 LC29:
  1405 00000158 25 64 09 48 61 72 69 62 6F 74   	DB	"%d",0x09,"Haribote kernel",0x0A,0x00
       00000162 65 20 6B 65 72 6E 65 6C 0A 00 
  1406 0000016C                                 LC32:
  1407 0000016C 25 64 74 61 73 6B 73 20 72 75   	DB	"%dtasks run",0x0A,0x00
       00000176 6E 0A 00 
  1408 00000179                                 LC31:
  1409 00000179 25 64 09 25 73 0A 00            	DB	"%d",0x09,"%s",0x0A,0x00
  1410 00000180                                 LC30:
  1411 00000180 25 64 09 43 50 55 20 69 64 6C   	DB	"%d",0x09,"CPU idle",0x0A,0x00
       0000018A 65 0A 00 
  1412                                          [SECTION .text]
  1413 00000CEA                                 	GLOBAL	_ps
  1414 00000CEA                                 _ps:
  1415 00000CEA 55                              	PUSH	EBP
  1416 00000CEB 89 E5                           	MOV	EBP,ESP
  1417 00000CED 57                              	PUSH	EDI
  1418 00000CEE 56                              	PUSH	ESI
  1419 00000CEF 31 F6                           	XOR	ESI,ESI
  1420 00000CF1 53                              	PUSH	EBX
  1421 00000CF2 8D 5D D4                        	LEA	EBX,DWORD [-44+EBP]
  1422 00000CF5 83 EC 20                        	SUB	ESP,32
  1423 00000CF8 8B 7D 08                        	MOV	EDI,DWORD [8+EBP]
  1424 00000CFB 68 [0000014E]                   	PUSH	LC28
  1425 00000D00 53                              	PUSH	EBX
  1426 00000D01 E8 [00000000]                   	CALL	_sprintf
  1427 00000D06 53                              	PUSH	EBX
  1428 00000D07 57                              	PUSH	EDI
  1429 00000D08 E8 FFFFFCB6                     	CALL	_cons_putstr0
  1430 00000D0D 6A 00                           	PUSH	0
  1431 00000D0F 68 [00000158]                   	PUSH	LC29
  1432 00000D14 53                              	PUSH	EBX
  1433 00000D15 E8 [00000000]                   	CALL	_sprintf
  1434 00000D1A 53                              	PUSH	EBX
  1435 00000D1B 57                              	PUSH	EDI
  1436 00000D1C BB 00002710                     	MOV	EBX,10000
  1437 00000D21 E8 FFFFFC9D                     	CALL	_cons_putstr0
  1438 00000D26 83 C4 24                        	ADD	ESP,36
  1439 00000D29 3B 1D [00013878]                	CMP	EBX,DWORD [_pid+79992]
  1440 00000D2F 7E 21                           	JLE	L236
  1441 00000D31                                 L238:
  1442 00000D31 8D 46 01                        	LEA	EAX,DWORD [1+ESI]
  1443 00000D34 8D 5D D4                        	LEA	EBX,DWORD [-44+EBP]
  1444 00000D37 50                              	PUSH	EAX
  1445 00000D38 68 [0000016C]                   	PUSH	LC32
  1446 00000D3D 53                              	PUSH	EBX
  1447 00000D3E E8 [00000000]                   	CALL	_sprintf
  1448 00000D43 53                              	PUSH	EBX
  1449 00000D44 57                              	PUSH	EDI
  1450 00000D45 E8 FFFFFC79                     	CALL	_cons_putstr0
  1451 00000D4A 8D 65 F4                        	LEA	ESP,DWORD [-12+EBP]
  1452 00000D4D 5B                              	POP	EBX
  1453 00000D4E 5E                              	POP	ESI
  1454 00000D4F 5F                              	POP	EDI
  1455 00000D50 5D                              	POP	EBP
  1456 00000D51 C3                              	RET
  1457 00000D52                                 L236:
  1458 00000D52 53                              	PUSH	EBX
  1459 00000D53 E8 [00000000]                   	CALL	_pid2task
  1460 00000D58 59                              	POP	ECX
  1461 00000D59 83 B8 00000148 00               	CMP	DWORD [328+EAX],0
  1462 00000D60 75 3A                           	JNE	L231
  1463 00000D62 81 FB 00002711                  	CMP	EBX,10001
  1464 00000D68 74 3D                           	JE	L239
  1465 00000D6A 53                              	PUSH	EBX
  1466 00000D6B 46                              	INC	ESI
  1467 00000D6C E8 [00000000]                   	CALL	_pid2task
  1468 00000D71 5A                              	POP	EDX
  1469 00000D72 FF B0 00000110                  	PUSH	DWORD [272+EAX]
  1470 00000D78 8D 83 FFFFD8F0                  	LEA	EAX,DWORD [-10000+EBX]
  1471 00000D7E 50                              	PUSH	EAX
  1472 00000D7F 8D 45 D4                        	LEA	EAX,DWORD [-44+EBP]
  1473 00000D82 68 [00000179]                   	PUSH	LC31
  1474 00000D87 50                              	PUSH	EAX
  1475 00000D88 E8 [00000000]                   	CALL	_sprintf
  1476 00000D8D 83 C4 10                        	ADD	ESP,16
  1477 00000D90                                 L235:
  1478 00000D90 8D 45 D4                        	LEA	EAX,DWORD [-44+EBP]
  1479 00000D93 50                              	PUSH	EAX
  1480 00000D94 57                              	PUSH	EDI
  1481 00000D95 E8 FFFFFC29                     	CALL	_cons_putstr0
  1482 00000D9A 59                              	POP	ECX
  1483 00000D9B 58                              	POP	EAX
  1484 00000D9C                                 L231:
  1485 00000D9C 43                              	INC	EBX
  1486 00000D9D 3B 1D [00013878]                	CMP	EBX,DWORD [_pid+79992]
  1487 00000DA3 7E AD                           	JLE	L236
  1488 00000DA5 EB 8A                           	JMP	L238
  1489 00000DA7                                 L239:
  1490 00000DA7 6A 01                           	PUSH	1
  1491 00000DA9 8D 45 D4                        	LEA	EAX,DWORD [-44+EBP]
  1492 00000DAC 68 [00000180]                   	PUSH	LC30
  1493 00000DB1 46                              	INC	ESI
  1494 00000DB2 50                              	PUSH	EAX
  1495 00000DB3 E8 [00000000]                   	CALL	_sprintf
  1496 00000DB8 83 C4 0C                        	ADD	ESP,12
  1497 00000DBB EB D3                           	JMP	L235
  1498 00000DBD                                 	GLOBAL	_cd
  1499 00000DBD                                 _cd:
  1500 00000DBD 55                              	PUSH	EBP
  1501 00000DBE 89 E5                           	MOV	EBP,ESP
  1502 00000DC0 5D                              	POP	EBP
  1503 00000DC1 C3                              	RET
  1504                                          [SECTION .data]
  1505 0000018D                                 LC33:
  1506 0000018D 48 61 72 69 62 6F 74 65 20 76   	DB	"Haribote version 0.2B",0x0A,0x0A,0x00
       00000197 65 72 73 69 6F 6E 20 30 2E 32 
       000001A1 42 0A 0A 00 
  1507                                          [SECTION .text]
  1508 00000DC2                                 	GLOBAL	_ver
  1509 00000DC2                                 _ver:
  1510 00000DC2 55                              	PUSH	EBP
  1511 00000DC3 89 E5                           	MOV	EBP,ESP
  1512 00000DC5 83 EC 40                        	SUB	ESP,64
  1513 00000DC8 68 [0000018D]                   	PUSH	LC33
  1514 00000DCD FF 75 08                        	PUSH	DWORD [8+EBP]
  1515 00000DD0 E8 FFFFFBEE                     	CALL	_cons_putstr0
  1516 00000DD5 C9                              	LEAVE
  1517 00000DD6 C3                              	RET
  1518                                          [SECTION .data]
  1519 000001A5                                 LC34:
  1520 000001A5 74 6F 74 61 6C 20 20 20 25 64   	DB	"total   %dMB",0x0A,"free %dKB",0x0A,0x0A,0x00
       000001AF 4D 42 0A 66 72 65 65 20 25 64 
       000001B9 4B 42 0A 0A 00 
  1521                                          [SECTION .text]
  1522 00000DD7                                 	GLOBAL	_cmd_mem
  1523 00000DD7                                 _cmd_mem:
  1524 00000DD7 55                              	PUSH	EBP
  1525 00000DD8 89 E5                           	MOV	EBP,ESP
  1526 00000DDA 53                              	PUSH	EBX
  1527 00000DDB 83 EC 40                        	SUB	ESP,64
  1528 00000DDE 68 003C0000                     	PUSH	3932160
  1529 00000DE3 E8 [00000000]                   	CALL	_memman_total
  1530 00000DE8 BA 00100000                     	MOV	EDX,1048576
  1531 00000DED C1 E8 0A                        	SHR	EAX,10
  1532 00000DF0 89 D3                           	MOV	EBX,EDX
  1533 00000DF2 89 04 24                        	MOV	DWORD [ESP],EAX
  1534 00000DF5 8B 45 0C                        	MOV	EAX,DWORD [12+EBP]
  1535 00000DF8 99                              	CDQ
  1536 00000DF9 F7 FB                           	IDIV	EBX
  1537 00000DFB 50                              	PUSH	EAX
  1538 00000DFC 8D 5D BC                        	LEA	EBX,DWORD [-68+EBP]
  1539 00000DFF 68 [000001A5]                   	PUSH	LC34
  1540 00000E04 53                              	PUSH	EBX
  1541 00000E05 E8 [00000000]                   	CALL	_sprintf
  1542 00000E0A 53                              	PUSH	EBX
  1543 00000E0B FF 75 08                        	PUSH	DWORD [8+EBP]
  1544 00000E0E E8 FFFFFBB0                     	CALL	_cons_putstr0
  1545 00000E13 8B 5D FC                        	MOV	EBX,DWORD [-4+EBP]
  1546 00000E16 C9                              	LEAVE
  1547 00000E17 C3                              	RET
  1548 00000E18                                 	GLOBAL	_cmd_cls
  1549 00000E18                                 _cmd_cls:
  1550 00000E18 55                              	PUSH	EBP
  1551 00000E19 89 E5                           	MOV	EBP,ESP
  1552 00000E1B 57                              	PUSH	EDI
  1553 00000E1C 56                              	PUSH	ESI
  1554 00000E1D BE 0000001C                     	MOV	ESI,28
  1555 00000E22 8B 7D 08                        	MOV	EDI,DWORD [8+EBP]
  1556 00000E25 53                              	PUSH	EBX
  1557 00000E26 8B 1F                           	MOV	EBX,DWORD [EDI]
  1558 00000E28                                 L253:
  1559 00000E28 B9 00000008                     	MOV	ECX,8
  1560 00000E2D                                 L252:
  1561 00000E2D 89 F0                           	MOV	EAX,ESI
  1562 00000E2F 8B 13                           	MOV	EDX,DWORD [EBX]
  1563 00000E31 0F AF 43 04                     	IMUL	EAX,DWORD [4+EBX]
  1564 00000E35 8D 04 08                        	LEA	EAX,DWORD [EAX+ECX*1]
  1565 00000E38 41                              	INC	ECX
  1566 00000E39 81 F9 000000F7                  	CMP	ECX,247
  1567 00000E3F C6 04 10 00                     	MOV	BYTE [EAX+EDX*1],0
  1568 00000E43 7E E8                           	JLE	L252
  1569 00000E45 46                              	INC	ESI
  1570 00000E46 81 FE 0000009B                  	CMP	ESI,155
  1571 00000E4C 7E DA                           	JLE	L253
  1572 00000E4E 68 0000009C                     	PUSH	156
  1573 00000E53 68 000000F8                     	PUSH	248
  1574 00000E58 6A 1C                           	PUSH	28
  1575 00000E5A 6A 08                           	PUSH	8
  1576 00000E5C 53                              	PUSH	EBX
  1577 00000E5D E8 [00000000]                   	CALL	_sheet_refresh
  1578 00000E62 C7 47 08 0000001C               	MOV	DWORD [8+EDI],28
  1579 00000E69 8D 65 F4                        	LEA	ESP,DWORD [-12+EBP]
  1580 00000E6C 5B                              	POP	EBX
  1581 00000E6D 5E                              	POP	ESI
  1582 00000E6E 5F                              	POP	EDI
  1583 00000E6F 5D                              	POP	EBP
  1584 00000E70 C3                              	RET
  1585                                          [SECTION .data]
  1586 000001BE                                 LC35:
  1587 000001BE 66 69 6C 65 6E 61 6D 65 2E 65   	DB	"filename.ext   %7d",0x0A,0x00
       000001C8 78 74 20 20 20 25 37 64 0A 00 
  1588                                          [SECTION .text]
  1589 00000E71                                 	GLOBAL	_cmd_dir
  1590 00000E71                                 _cmd_dir:
  1591 00000E71 55                              	PUSH	EBP
  1592 00000E72 89 E5                           	MOV	EBP,ESP
  1593 00000E74 57                              	PUSH	EDI
  1594 00000E75 56                              	PUSH	ESI
  1595 00000E76 31 F6                           	XOR	ESI,ESI
  1596 00000E78 53                              	PUSH	EBX
  1597 00000E79 31 DB                           	XOR	EBX,EBX
  1598 00000E7B 83 EC 20                        	SUB	ESP,32
  1599 00000E7E 8B 7D 08                        	MOV	EDI,DWORD [8+EBP]
  1600 00000E81                                 L271:
  1601 00000E81 8A 83 00102600                  	MOV	AL,BYTE [1058304+EBX]
  1602 00000E87 84 C0                           	TEST	AL,AL
  1603 00000E89 74 19                           	JE	L260
  1604 00000E8B 3C E5                           	CMP	AL,-27
  1605 00000E8D 74 09                           	JE	L261
  1606 00000E8F F6 83 0010260B 18               	TEST	BYTE [1058315+EBX],24
  1607 00000E96 74 1A                           	JE	L275
  1608 00000E98                                 L261:
  1609 00000E98 46                              	INC	ESI
  1610 00000E99 83 C3 20                        	ADD	EBX,32
  1611 00000E9C 81 FE 000000DF                  	CMP	ESI,223
  1612 00000EA2 7E DD                           	JLE	L271
  1613 00000EA4                                 L260:
  1614 00000EA4 57                              	PUSH	EDI
  1615 00000EA5 E8 FFFFFA31                     	CALL	_cons_newline
  1616 00000EAA 8D 65 F4                        	LEA	ESP,DWORD [-12+EBP]
  1617 00000EAD 5B                              	POP	EBX
  1618 00000EAE 5E                              	POP	ESI
  1619 00000EAF 5F                              	POP	EDI
  1620 00000EB0 5D                              	POP	EBP
  1621 00000EB1 C3                              	RET
  1622 00000EB2                                 L275:
  1623 00000EB2 FF B3 0010261C                  	PUSH	DWORD [1058332+EBX]
  1624 00000EB8 68 [000001BE]                   	PUSH	LC35
  1625 00000EBD 8D 45 D4                        	LEA	EAX,DWORD [-44+EBP]
  1626 00000EC0 50                              	PUSH	EAX
  1627 00000EC1 E8 [00000000]                   	CALL	_sprintf
  1628 00000EC6 8D 93 00102600                  	LEA	EDX,DWORD [1058304+EBX]
  1629 00000ECC 31 C9                           	XOR	ECX,ECX
  1630 00000ECE 83 C4 0C                        	ADD	ESP,12
  1631 00000ED1                                 L270:
  1632 00000ED1 8A 02                           	MOV	AL,BYTE [EDX]
  1633 00000ED3 42                              	INC	EDX
  1634 00000ED4 88 44 0D D4                     	MOV	BYTE [-44+EBP+ECX*1],AL
  1635 00000ED8 41                              	INC	ECX
  1636 00000ED9 83 F9 07                        	CMP	ECX,7
  1637 00000EDC 7E F3                           	JLE	L270
  1638 00000EDE 8A 83 00102608                  	MOV	AL,BYTE [1058312+EBX]
  1639 00000EE4 88 45 DD                        	MOV	BYTE [-35+EBP],AL
  1640 00000EE7 8A 83 00102609                  	MOV	AL,BYTE [1058313+EBX]
  1641 00000EED 88 45 DE                        	MOV	BYTE [-34+EBP],AL
  1642 00000EF0 8A 83 0010260A                  	MOV	AL,BYTE [1058314+EBX]
  1643 00000EF6 88 45 DF                        	MOV	BYTE [-33+EBP],AL
  1644 00000EF9 8D 45 D4                        	LEA	EAX,DWORD [-44+EBP]
  1645 00000EFC 50                              	PUSH	EAX
  1646 00000EFD 57                              	PUSH	EDI
  1647 00000EFE E8 FFFFFAC0                     	CALL	_cons_putstr0
  1648 00000F03 58                              	POP	EAX
  1649 00000F04 5A                              	POP	EDX
  1650 00000F05 EB 91                           	JMP	L261
  1651 00000F07                                 	GLOBAL	_cmd_exit
  1652 00000F07                                 _cmd_exit:
  1653 00000F07 55                              	PUSH	EBP
  1654 00000F08 89 E5                           	MOV	EBP,ESP
  1655 00000F0A 57                              	PUSH	EDI
  1656 00000F0B 56                              	PUSH	ESI
  1657 00000F0C 53                              	PUSH	EBX
  1658 00000F0D 50                              	PUSH	EAX
  1659 00000F0E 8B 5D 08                        	MOV	EBX,DWORD [8+EBP]
  1660 00000F11 E8 [00000000]                   	CALL	_task_now
  1661 00000F16 8B 35 00000FE4                  	MOV	ESI,DWORD [4068]
  1662 00000F1C 8B 3D 00000FEC                  	MOV	EDI,DWORD [4076]
  1663 00000F22 89 45 F0                        	MOV	DWORD [-16+EBP],EAX
  1664 00000F25 83 3B 00                        	CMP	DWORD [EBX],0
  1665 00000F28 74 09                           	JE	L277
  1666 00000F2A FF 73 10                        	PUSH	DWORD [16+EBX]
  1667 00000F2D E8 [00000000]                   	CALL	_timer_cancel
  1668 00000F32 58                              	POP	EAX
  1669 00000F33                                 L277:
  1670 00000F33 68 00002D00                     	PUSH	11520
  1671 00000F38 FF 75 0C                        	PUSH	DWORD [12+EBP]
  1672 00000F3B 68 003C0000                     	PUSH	3932160
  1673 00000F40 E8 [00000000]                   	CALL	_memman_free_4k
  1674 00000F45 E8 [00000000]                   	CALL	_io_cli
  1675 00000F4A 8B 03                           	MOV	EAX,DWORD [EBX]
  1676 00000F4C 83 C4 0C                        	ADD	ESP,12
  1677 00000F4F 85 C0                           	TEST	EAX,EAX
  1678 00000F51 74 2E                           	JE	L278
  1679 00000F53 29 F0                           	SUB	EAX,ESI
  1680 00000F55 2D 00000414                     	SUB	EAX,1044
  1681 00000F5A C1 F8 03                        	SAR	EAX,3
  1682 00000F5D 69 C0 CCCCCCCD                  	IMUL	EAX,EAX,-858993459
  1683 00000F63 05 00000300                     	ADD	EAX,768
  1684 00000F68                                 L283:
  1685 00000F68 50                              	PUSH	EAX
  1686 00000F69 57                              	PUSH	EDI
  1687 00000F6A E8 [00000000]                   	CALL	_fifo32_put
  1688 00000F6F 5B                              	POP	EBX
  1689 00000F70 5E                              	POP	ESI
  1690 00000F71 E8 [00000000]                   	CALL	_io_sti
  1691 00000F76                                 L280:
  1692 00000F76 FF 75 F0                        	PUSH	DWORD [-16+EBP]
  1693 00000F79 E8 [00000000]                   	CALL	_task_sleep
  1694 00000F7E 59                              	POP	ECX
  1695 00000F7F EB F5                           	JMP	L280
  1696 00000F81                                 L278:
  1697 00000F81 8B 45 F0                        	MOV	EAX,DWORD [-16+EBP]
  1698 00000F84 2B 05 [00000000]                	SUB	EAX,DWORD [_taskctl]
  1699 00000F8A 2D 00000FFC                     	SUB	EAX,4092
  1700 00000F8F C1 F8 02                        	SAR	EAX,2
  1701 00000F92 69 C0 2B2E43DB                  	IMUL	EAX,EAX,724452315
  1702 00000F98 05 00000400                     	ADD	EAX,1024
  1703 00000F9D EB C9                           	JMP	L283
  1704 00000F9F                                 	GLOBAL	_cmd_start
  1705 00000F9F                                 _cmd_start:
  1706 00000F9F 55                              	PUSH	EBP
  1707 00000FA0 89 E5                           	MOV	EBP,ESP
  1708 00000FA2 57                              	PUSH	EDI
  1709 00000FA3 56                              	PUSH	ESI
  1710 00000FA4 53                              	PUSH	EBX
  1711 00000FA5 57                              	PUSH	EDI
  1712 00000FA6 57                              	PUSH	EDI
  1713 00000FA7 8B 45 08                        	MOV	EAX,DWORD [8+EBP]
  1714 00000FAA 8B 7D 0C                        	MOV	EDI,DWORD [12+EBP]
  1715 00000FAD 8B 35 00000FE4                  	MOV	ESI,DWORD [4068]
  1716 00000FB3 89 45 F0                        	MOV	DWORD [-16+EBP],EAX
  1717 00000FB6 FF 75 10                        	PUSH	DWORD [16+EBP]
  1718 00000FB9 56                              	PUSH	ESI
  1719 00000FBA E8 [00000000]                   	CALL	_open_console
  1720 00000FBF 89 C3                           	MOV	EBX,EAX
  1721 00000FC1 8B 40 24                        	MOV	EAX,DWORD [36+EAX]
  1722 00000FC4 83 C0 10                        	ADD	EAX,16
  1723 00000FC7 89 45 EC                        	MOV	DWORD [-20+EBP],EAX
  1724 00000FCA 6A 04                           	PUSH	4
  1725 00000FCC 6A 20                           	PUSH	32
  1726 00000FCE 53                              	PUSH	EBX
  1727 00000FCF E8 [00000000]                   	CALL	_sheet_slide
  1728 00000FD4 FF 76 10                        	PUSH	DWORD [16+ESI]
  1729 00000FD7 53                              	PUSH	EBX
  1730 00000FD8 BB 00000006                     	MOV	EBX,6
  1731 00000FDD E8 [00000000]                   	CALL	_sheet_updown
  1732 00000FE2 83 C4 1C                        	ADD	ESP,28
  1733 00000FE5 80 7F 06 00                     	CMP	BYTE [6+EDI],0
  1734 00000FE9 75 21                           	JNE	L289
  1735 00000FEB                                 L291:
  1736 00000FEB 68 0000010A                     	PUSH	266
  1737 00000FF0 FF 75 EC                        	PUSH	DWORD [-20+EBP]
  1738 00000FF3 E8 [00000000]                   	CALL	_fifo32_put
  1739 00000FF8 58                              	POP	EAX
  1740 00000FF9 8B 45 F0                        	MOV	EAX,DWORD [-16+EBP]
  1741 00000FFC 5A                              	POP	EDX
  1742 00000FFD 89 45 08                        	MOV	DWORD [8+EBP],EAX
  1743 00001000 8D 65 F4                        	LEA	ESP,DWORD [-12+EBP]
  1744 00001003 5B                              	POP	EBX
  1745 00001004 5E                              	POP	ESI
  1746 00001005 5F                              	POP	EDI
  1747 00001006 5D                              	POP	EBP
  1748 00001007 E9 FFFFF8CF                     	JMP	_cons_newline
  1749 0000100C                                 L289:
  1750 0000100C 0F BE 04 3B                     	MOVSX	EAX,BYTE [EBX+EDI*1]
  1751 00001010 05 00000100                     	ADD	EAX,256
  1752 00001015 43                              	INC	EBX
  1753 00001016 50                              	PUSH	EAX
  1754 00001017 FF 75 EC                        	PUSH	DWORD [-20+EBP]
  1755 0000101A E8 [00000000]                   	CALL	_fifo32_put
  1756 0000101F 80 3C 3B 00                     	CMP	BYTE [EBX+EDI*1],0
  1757 00001023 59                              	POP	ECX
  1758 00001024 5E                              	POP	ESI
  1759 00001025 75 E5                           	JNE	L289
  1760 00001027 EB C2                           	JMP	L291
  1761 00001029                                 	GLOBAL	_cmd_ncst
  1762 00001029                                 _cmd_ncst:
  1763 00001029 55                              	PUSH	EBP
  1764 0000102A 89 E5                           	MOV	EBP,ESP
  1765 0000102C 57                              	PUSH	EDI
  1766 0000102D 56                              	PUSH	ESI
  1767 0000102E BE 00000005                     	MOV	ESI,5
  1768 00001033 53                              	PUSH	EBX
  1769 00001034 51                              	PUSH	ECX
  1770 00001035 8B 45 08                        	MOV	EAX,DWORD [8+EBP]
  1771 00001038 8B 5D 0C                        	MOV	EBX,DWORD [12+EBP]
  1772 0000103B 89 45 F0                        	MOV	DWORD [-16+EBP],EAX
  1773 0000103E FF 75 10                        	PUSH	DWORD [16+EBP]
  1774 00001041 6A 00                           	PUSH	0
  1775 00001043 E8 [00000000]                   	CALL	_open_constask
  1776 00001048 80 7B 05 00                     	CMP	BYTE [5+EBX],0
  1777 0000104C 8D 78 10                        	LEA	EDI,DWORD [16+EAX]
  1778 0000104F 58                              	POP	EAX
  1779 00001050 5A                              	POP	EDX
  1780 00001051 75 1F                           	JNE	L297
  1781 00001053                                 L299:
  1782 00001053 68 0000010A                     	PUSH	266
  1783 00001058 57                              	PUSH	EDI
  1784 00001059 E8 [00000000]                   	CALL	_fifo32_put
  1785 0000105E 58                              	POP	EAX
  1786 0000105F 8B 45 F0                        	MOV	EAX,DWORD [-16+EBP]
  1787 00001062 5A                              	POP	EDX
  1788 00001063 89 45 08                        	MOV	DWORD [8+EBP],EAX
  1789 00001066 8D 65 F4                        	LEA	ESP,DWORD [-12+EBP]
  1790 00001069 5B                              	POP	EBX
  1791 0000106A 5E                              	POP	ESI
  1792 0000106B 5F                              	POP	EDI
  1793 0000106C 5D                              	POP	EBP
  1794 0000106D E9 FFFFF869                     	JMP	_cons_newline
  1795 00001072                                 L297:
  1796 00001072 0F BE 04 1E                     	MOVSX	EAX,BYTE [ESI+EBX*1]
  1797 00001076 05 00000100                     	ADD	EAX,256
  1798 0000107B 46                              	INC	ESI
  1799 0000107C 50                              	PUSH	EAX
  1800 0000107D 57                              	PUSH	EDI
  1801 0000107E E8 [00000000]                   	CALL	_fifo32_put
  1802 00001083 80 3C 1E 00                     	CMP	BYTE [ESI+EBX*1],0
  1803 00001087 59                              	POP	ECX
  1804 00001088 58                              	POP	EAX
  1805 00001089 75 E7                           	JNE	L297
  1806 0000108B EB C6                           	JMP	L299
  1807                                          [SECTION .data]
  1808 000001D2                                 LC36:
  1809 000001D2 6D 6F 64 65 20 6E 75 6D 62 65   	DB	"mode number error.",0x0A,0x00
       000001DC 72 20 65 72 72 6F 72 2E 0A 00 
  1810                                          [SECTION .text]
  1811 0000108D                                 	GLOBAL	_cmd_langmode
  1812 0000108D                                 _cmd_langmode:
  1813 0000108D 55                              	PUSH	EBP
  1814 0000108E 89 E5                           	MOV	EBP,ESP
  1815 00001090 56                              	PUSH	ESI
  1816 00001091 53                              	PUSH	EBX
  1817 00001092 8B 5D 0C                        	MOV	EBX,DWORD [12+EBP]
  1818 00001095 8B 75 08                        	MOV	ESI,DWORD [8+EBP]
  1819 00001098 E8 [00000000]                   	CALL	_task_now
  1820 0000109D 8A 53 09                        	MOV	DL,BYTE [9+EBX]
  1821 000010A0 83 EA 30                        	SUB	EDX,48
  1822 000010A3 80 FA 02                        	CMP	DL,2
  1823 000010A6 77 14                           	JA	L301
  1824 000010A8 88 90 0000012C                  	MOV	BYTE [300+EAX],DL
  1825 000010AE                                 L302:
  1826 000010AE 89 75 08                        	MOV	DWORD [8+EBP],ESI
  1827 000010B1 8D 65 F8                        	LEA	ESP,DWORD [-8+EBP]
  1828 000010B4 5B                              	POP	EBX
  1829 000010B5 5E                              	POP	ESI
  1830 000010B6 5D                              	POP	EBP
  1831 000010B7 E9 FFFFF81F                     	JMP	_cons_newline
  1832 000010BC                                 L301:
  1833 000010BC 68 [000001D2]                   	PUSH	LC36
  1834 000010C1 56                              	PUSH	ESI
  1835 000010C2 E8 FFFFF8FC                     	CALL	_cons_putstr0
  1836 000010C7 5B                              	POP	EBX
  1837 000010C8 58                              	POP	EAX
  1838 000010C9 EB E3                           	JMP	L302
  1839                                          [SECTION .data]
  1840 000001E6                                 LC37:
  1841 000001E6 25 73 00                        	DB	"%s",0x00
  1842 000001E9                                 LC38:
  1843 000001E9 25 30 32 58 20 25 30 32 58 20   	DB	"%02X %02X %02X %02X %02X %02X %02X %02X",0x0D,0x0A,"%02X %02X %02X %02X %02X %02X %02X %02X",0x00
       000001F3 25 30 32 58 20 25 30 32 58 20 
       000001FD 25 30 32 58 20 25 30 32 58 20 
       00000207 25 30 32 58 20 25 30 32 58 0D 
       00000211 0A 25 30 32 58 20 25 30 32 58 
       0000021B 20 25 30 32 58 20 25 30 32 58 
       00000225 20 25 30 32 58 20 25 30 32 58 
       0000022F 20 25 30 32 58 20 25 30 32 58 
       00000239 00 
  1844 0000023A                                 LC39:
  1845 0000023A 48 61 72 69 00                  	DB	"Hari",0x00
  1846 0000023F                                 LC40:
  1847 0000023F 2E 68 72 62 20 66 69 6C 65 20   	DB	".hrb file format error.",0x0A,0x00
       00000249 66 6F 72 6D 61 74 20 65 72 72 
       00000253 6F 72 2E 0A 00 
  1848                                          [SECTION .text]
  1849 000010CB                                 	GLOBAL	_cmd_app
  1850 000010CB                                 _cmd_app:
  1851 000010CB 55                              	PUSH	EBP
  1852 000010CC 89 E5                           	MOV	EBP,ESP
  1853 000010CE 57                              	PUSH	EDI
  1854 000010CF 56                              	PUSH	ESI
  1855 000010D0 31 F6                           	XOR	ESI,ESI
  1856 000010D2 53                              	PUSH	EBX
  1857 000010D3 81 EC 00000118                  	SUB	ESP,280
  1858 000010D9 8B 5D 10                        	MOV	EBX,DWORD [16+EBP]
  1859 000010DC E8 [00000000]                   	CALL	_task_now
  1860 000010E1 89 85 FFFFFEE8                  	MOV	DWORD [-280+EBP],EAX
  1861 000010E7                                 L309:
  1862 000010E7 8A 04 1E                        	MOV	AL,BYTE [ESI+EBX*1]
  1863 000010EA 84 C0                           	TEST	AL,AL
  1864 000010EC 74 10                           	JE	L305
  1865 000010EE 88 84 35 FFFFFEF4               	MOV	BYTE [-268+EBP+ESI*1],AL
  1866 000010F5 46                              	INC	ESI
  1867 000010F6 81 FE 000000FE                  	CMP	ESI,254
  1868 000010FC 7E E9                           	JLE	L309
  1869 000010FE                                 L305:
  1870 000010FE 8D 9D FFFFFEF4                  	LEA	EBX,DWORD [-268+EBP]
  1871 00001104 53                              	PUSH	EBX
  1872 00001105 68 [000001E6]                   	PUSH	LC37
  1873 0000110A C6 84 35 FFFFFEF4 00            	MOV	BYTE [-268+EBP+ESI*1],0
  1874 00001112 E8 FFFFEEE9                     	CALL	_printk
  1875 00001117 68 000000E0                     	PUSH	224
  1876 0000111C 68 00102600                     	PUSH	1058304
  1877 00001121 53                              	PUSH	EBX
  1878 00001122 E8 [00000000]                   	CALL	_file_search
  1879 00001127 83 C4 14                        	ADD	ESP,20
  1880 0000112A 89 C2                           	MOV	EDX,EAX
  1881 0000112C 85 C0                           	TEST	EAX,EAX
  1882 0000112E 0F 84 00000284                  	JE	L339
  1883 00001134                                 L338:
  1884 00001134 8B 42 1C                        	MOV	EAX,DWORD [28+EDX]
  1885 00001137 89 85 FFFFFEF0                  	MOV	DWORD [-272+EBP],EAX
  1886 0000113D 8D 85 FFFFFEF0                  	LEA	EAX,DWORD [-272+EBP]
  1887 00001143 FF 75 0C                        	PUSH	DWORD [12+EBP]
  1888 00001146 50                              	PUSH	EAX
  1889 00001147 0F B7 42 1A                     	MOVZX	EAX,WORD [26+EDX]
  1890 0000114B 50                              	PUSH	EAX
  1891 0000114C E8 [00000000]                   	CALL	_file_loadfile2
  1892 00001151 89 85 FFFFFEDC                  	MOV	DWORD [-292+EBP],EAX
  1893 00001157 0F BE 40 0F                     	MOVSX	EAX,BYTE [15+EAX]
  1894 0000115B 8B 95 FFFFFEDC                  	MOV	EDX,DWORD [-292+EBP]
  1895 00001161 50                              	PUSH	EAX
  1896 00001162 0F BE 42 0E                     	MOVSX	EAX,BYTE [14+EDX]
  1897 00001166 50                              	PUSH	EAX
  1898 00001167 0F BE 42 0D                     	MOVSX	EAX,BYTE [13+EDX]
  1899 0000116B 50                              	PUSH	EAX
  1900 0000116C 0F BE 42 0C                     	MOVSX	EAX,BYTE [12+EDX]
  1901 00001170 50                              	PUSH	EAX
  1902 00001171 0F BE 42 0B                     	MOVSX	EAX,BYTE [11+EDX]
  1903 00001175 50                              	PUSH	EAX
  1904 00001176 0F BE 42 0A                     	MOVSX	EAX,BYTE [10+EDX]
  1905 0000117A 50                              	PUSH	EAX
  1906 0000117B 0F BE 42 09                     	MOVSX	EAX,BYTE [9+EDX]
  1907 0000117F 50                              	PUSH	EAX
  1908 00001180 0F BE 42 08                     	MOVSX	EAX,BYTE [8+EDX]
  1909 00001184 50                              	PUSH	EAX
  1910 00001185 0F BE 42 07                     	MOVSX	EAX,BYTE [7+EDX]
  1911 00001189 50                              	PUSH	EAX
  1912 0000118A 0F BE 42 06                     	MOVSX	EAX,BYTE [6+EDX]
  1913 0000118E 50                              	PUSH	EAX
  1914 0000118F 0F BE 42 05                     	MOVSX	EAX,BYTE [5+EDX]
  1915 00001193 50                              	PUSH	EAX
  1916 00001194 0F BE 42 04                     	MOVSX	EAX,BYTE [4+EDX]
  1917 00001198 50                              	PUSH	EAX
  1918 00001199 0F BE 42 03                     	MOVSX	EAX,BYTE [3+EDX]
  1919 0000119D 50                              	PUSH	EAX
  1920 0000119E 0F BE 42 02                     	MOVSX	EAX,BYTE [2+EDX]
  1921 000011A2 50                              	PUSH	EAX
  1922 000011A3 0F BE 42 01                     	MOVSX	EAX,BYTE [1+EDX]
  1923 000011A7 50                              	PUSH	EAX
  1924 000011A8 0F BE 02                        	MOVSX	EAX,BYTE [EDX]
  1925 000011AB 50                              	PUSH	EAX
  1926 000011AC 68 [000001E9]                   	PUSH	LC38
  1927 000011B1 E8 FFFFEE4A                     	CALL	_printk
  1928 000011B6 83 C4 50                        	ADD	ESP,80
  1929 000011B9 83 BD FFFFFEF0 23               	CMP	DWORD [-272+EBP],35
  1930 000011C0 7E 25                           	JLE	L312
  1931 000011C2 8B B5 FFFFFEDC                  	MOV	ESI,DWORD [-292+EBP]
  1932 000011C8 B8 [0000023A]                   	MOV	EAX,LC39
  1933 000011CD FC                              	CLD
  1934 000011CE 83 C6 04                        	ADD	ESI,4
  1935 000011D1 B9 00000004                     	MOV	ECX,4
  1936 000011D6 89 C7                           	MOV	EDI,EAX
  1937 000011D8 F3                              	REPE
  1938 000011D9 A6                              	CMPSB
  1939 000011DA 75 0B                           	JNE	L312
  1940 000011DC 8B 85 FFFFFEDC                  	MOV	EAX,DWORD [-292+EBP]
  1941 000011E2 80 38 00                        	CMP	BYTE [EAX],0
  1942 000011E5 74 3A                           	JE	L340
  1943 000011E7                                 L312:
  1944 000011E7 68 [0000023F]                   	PUSH	LC40
  1945 000011EC FF 75 08                        	PUSH	DWORD [8+EBP]
  1946 000011EF E8 FFFFF7CF                     	CALL	_cons_putstr0
  1947 000011F4 58                              	POP	EAX
  1948 000011F5 5A                              	POP	EDX
  1949 000011F6                                 L330:
  1950 000011F6 FF B5 FFFFFEF0                  	PUSH	DWORD [-272+EBP]
  1951 000011FC FF B5 FFFFFEDC                  	PUSH	DWORD [-292+EBP]
  1952 00001202 68 003C0000                     	PUSH	3932160
  1953 00001207 E8 [00000000]                   	CALL	_memman_free_4k
  1954 0000120C FF 75 08                        	PUSH	DWORD [8+EBP]
  1955 0000120F E8 FFFFF6C7                     	CALL	_cons_newline
  1956 00001214 B8 00000001                     	MOV	EAX,1
  1957 00001219                                 L303:
  1958 00001219 8D 65 F4                        	LEA	ESP,DWORD [-12+EBP]
  1959 0000121C 5B                              	POP	EBX
  1960 0000121D 5E                              	POP	ESI
  1961 0000121E 5F                              	POP	EDI
  1962 0000121F 5D                              	POP	EBP
  1963 00001220 C3                              	RET
  1964 00001221                                 L340:
  1965 00001221 8B 10                           	MOV	EDX,DWORD [EAX]
  1966 00001223 8B 78 0C                        	MOV	EDI,DWORD [12+EAX]
  1967 00001226 8B 58 10                        	MOV	EBX,DWORD [16+EAX]
  1968 00001229 8B 70 14                        	MOV	ESI,DWORD [20+EAX]
  1969 0000122C 52                              	PUSH	EDX
  1970 0000122D 89 95 FFFFFEE4                  	MOV	DWORD [-284+EBP],EDX
  1971 00001233 68 003C0000                     	PUSH	3932160
  1972 00001238 89 BD FFFFFEE0                  	MOV	DWORD [-288+EBP],EDI
  1973 0000123E E8 [00000000]                   	CALL	_memman_alloc_4k
  1974 00001243 8B 95 FFFFFEE8                  	MOV	EDX,DWORD [-280+EBP]
  1975 00001249 89 85 FFFFFEEC                  	MOV	DWORD [-276+EBP],EAX
  1976 0000124F 89 82 00000118                  	MOV	DWORD [280+EDX],EAX
  1977 00001255 68 000040FA                     	PUSH	16634
  1978 0000125A 8B 85 FFFFFEF0                  	MOV	EAX,DWORD [-272+EBP]
  1979 00001260 FF B5 FFFFFEDC                  	PUSH	DWORD [-292+EBP]
  1980 00001266 48                              	DEC	EAX
  1981 00001267 50                              	PUSH	EAX
  1982 00001268 89 D0                           	MOV	EAX,EDX
  1983 0000126A 05 00000100                     	ADD	EAX,256
  1984 0000126F 50                              	PUSH	EAX
  1985 00001270 E8 [00000000]                   	CALL	_set_segmdesc
  1986 00001275 8B 85 FFFFFEE4                  	MOV	EAX,DWORD [-284+EBP]
  1987 0000127B 68 000040F2                     	PUSH	16626
  1988 00001280 48                              	DEC	EAX
  1989 00001281 FF B5 FFFFFEEC                  	PUSH	DWORD [-276+EBP]
  1990 00001287 50                              	PUSH	EAX
  1991 00001288 8B 85 FFFFFEE8                  	MOV	EAX,DWORD [-280+EBP]
  1992 0000128E 05 00000108                     	ADD	EAX,264
  1993 00001293 50                              	PUSH	EAX
  1994 00001294 E8 [00000000]                   	CALL	_set_segmdesc
  1995 00001299 83 C4 28                        	ADD	ESP,40
  1996 0000129C 85 DB                           	TEST	EBX,EBX
  1997 0000129E 7E 1C                           	JLE	L333
  1998 000012A0 89 F9                           	MOV	ECX,EDI
  1999 000012A2 8B BD FFFFFEDC                  	MOV	EDI,DWORD [-292+EBP]
  2000 000012A8 03 8D FFFFFEEC                  	ADD	ECX,DWORD [-276+EBP]
  2001 000012AE 8D 14 37                        	LEA	EDX,DWORD [EDI+ESI*1]
  2002 000012B1 89 DE                           	MOV	ESI,EBX
  2003 000012B3                                 L317:
  2004 000012B3 8A 02                           	MOV	AL,BYTE [EDX]
  2005 000012B5 42                              	INC	EDX
  2006 000012B6 88 01                           	MOV	BYTE [ECX],AL
  2007 000012B8 41                              	INC	ECX
  2008 000012B9 4E                              	DEC	ESI
  2009 000012BA 75 F7                           	JNE	L317
  2010 000012BC                                 L333:
  2011 000012BC 8B 85 FFFFFEE8                  	MOV	EAX,DWORD [-280+EBP]
  2012 000012C2 BE 000000FF                     	MOV	ESI,255
  2013 000012C7 83 C0 30                        	ADD	EAX,48
  2014 000012CA 50                              	PUSH	EAX
  2015 000012CB 6A 0C                           	PUSH	12
  2016 000012CD FF B5 FFFFFEE0                  	PUSH	DWORD [-288+EBP]
  2017 000012D3 6A 04                           	PUSH	4
  2018 000012D5 6A 1B                           	PUSH	27
  2019 000012D7 E8 [00000000]                   	CALL	_start_app
  2020 000012DC 8B 1D 00000FE4                  	MOV	EBX,DWORD [4068]
  2021 000012E2 83 C4 14                        	ADD	ESP,20
  2022 000012E5 81 C3 00000414                  	ADD	EBX,1044
  2023 000012EB                                 L323:
  2024 000012EB 8B 43 1C                        	MOV	EAX,DWORD [28+EBX]
  2025 000012EE 83 E0 11                        	AND	EAX,17
  2026 000012F1 83 F8 11                        	CMP	EAX,17
  2027 000012F4 0F 84 000000A3                  	JE	L341
  2028 000012FA                                 L320:
  2029 000012FA 83 C3 28                        	ADD	EBX,40
  2030 000012FD 4E                              	DEC	ESI
  2031 000012FE 79 EB                           	JNS	L323
  2032 00001300 31 DB                           	XOR	EBX,EBX
  2033 00001302 BE 00000007                     	MOV	ESI,7
  2034 00001307                                 L329:
  2035 00001307 8B 95 FFFFFEE8                  	MOV	EDX,DWORD [-280+EBP]
  2036 0000130D 8B 82 00000120                  	MOV	EAX,DWORD [288+EDX]
  2037 00001313 83 3C 18 00                     	CMP	DWORD [EAX+EBX*1],0
  2038 00001317 75 52                           	JNE	L342
  2039 00001319                                 L326:
  2040 00001319 83 C3 0C                        	ADD	EBX,12
  2041 0000131C 4E                              	DEC	ESI
  2042 0000131D 79 E8                           	JNS	L329
  2043 0000131F 6A 61                           	PUSH	97
  2044 00001321 E8 [00000000]                   	CALL	_io_in8
  2045 00001326 83 E0 0D                        	AND	EAX,13
  2046 00001329 50                              	PUSH	EAX
  2047 0000132A 6A 61                           	PUSH	97
  2048 0000132C E8 [00000000]                   	CALL	_io_out8
  2049 00001331 8B 85 FFFFFEE8                  	MOV	EAX,DWORD [-280+EBP]
  2050 00001337 83 C0 10                        	ADD	EAX,16
  2051 0000133A 50                              	PUSH	EAX
  2052 0000133B E8 [00000000]                   	CALL	_timer_cancelall
  2053 00001340 FF B5 FFFFFEE4                  	PUSH	DWORD [-284+EBP]
  2054 00001346 FF B5 FFFFFEEC                  	PUSH	DWORD [-276+EBP]
  2055 0000134C 68 003C0000                     	PUSH	3932160
  2056 00001351 E8 [00000000]                   	CALL	_memman_free_4k
  2057 00001356 83 C4 1C                        	ADD	ESP,28
  2058 00001359 8B 85 FFFFFEE8                  	MOV	EAX,DWORD [-280+EBP]
  2059 0000135F C6 80 0000012D 00               	MOV	BYTE [301+EAX],0
  2060 00001366 E9 FFFFFE8B                     	JMP	L330
  2061 0000136B                                 L342:
  2062 0000136B FF 74 18 04                     	PUSH	DWORD [4+EAX+EBX*1]
  2063 0000136F 8B 82 00000120                  	MOV	EAX,DWORD [288+EDX]
  2064 00001375 FF 34 18                        	PUSH	DWORD [EAX+EBX*1]
  2065 00001378 68 003C0000                     	PUSH	3932160
  2066 0000137D E8 [00000000]                   	CALL	_memman_free_4k
  2067 00001382 83 C4 0C                        	ADD	ESP,12
  2068 00001385 8B BD FFFFFEE8                  	MOV	EDI,DWORD [-280+EBP]
  2069 0000138B 8B 87 00000120                  	MOV	EAX,DWORD [288+EDI]
  2070 00001391 C7 04 18 00000000               	MOV	DWORD [EAX+EBX*1],0
  2071 00001398 E9 FFFFFF7C                     	JMP	L326
  2072 0000139D                                 L341:
  2073 0000139D 8B 85 FFFFFEE8                  	MOV	EAX,DWORD [-280+EBP]
  2074 000013A3 39 43 24                        	CMP	DWORD [36+EBX],EAX
  2075 000013A6 0F 85 FFFFFF4E                  	JNE	L320
  2076 000013AC 53                              	PUSH	EBX
  2077 000013AD E8 [00000000]                   	CALL	_sheet_free
  2078 000013B2 59                              	POP	ECX
  2079 000013B3 E9 FFFFFF42                     	JMP	L320
  2080 000013B8                                 L339:
  2081 000013B8 80 BC 35 FFFFFEF3 2E            	CMP	BYTE [-269+EBP+ESI*1],46
  2082 000013C0 74 3D                           	JE	L310
  2083 000013C2 68 000000E0                     	PUSH	224
  2084 000013C7 68 00102600                     	PUSH	1058304
  2085 000013CC 53                              	PUSH	EBX
  2086 000013CD C6 84 35 FFFFFEF4 2E            	MOV	BYTE [-268+EBP+ESI*1],46
  2087 000013D5 C6 84 35 FFFFFEF5 48            	MOV	BYTE [-267+EBP+ESI*1],72
  2088 000013DD C6 84 35 FFFFFEF6 52            	MOV	BYTE [-266+EBP+ESI*1],82
  2089 000013E5 C6 84 35 FFFFFEF7 42            	MOV	BYTE [-265+EBP+ESI*1],66
  2090 000013ED C6 84 35 FFFFFEF8 00            	MOV	BYTE [-264+EBP+ESI*1],0
  2091 000013F5 E8 [00000000]                   	CALL	_file_search
  2092 000013FA 83 C4 0C                        	ADD	ESP,12
  2093 000013FD 89 C2                           	MOV	EDX,EAX
  2094 000013FF                                 L310:
  2095 000013FF 85 D2                           	TEST	EDX,EDX
  2096 00001401 0F 85 FFFFFD2D                  	JNE	L338
  2097 00001407 31 C0                           	XOR	EAX,EAX
  2098 00001409 E9 FFFFFE0B                     	JMP	L303
  2099 0000140E                                 	GLOBAL	_hrb_api
  2100 0000140E                                 _hrb_api:
  2101 0000140E 55                              	PUSH	EBP
  2102 0000140F 89 E5                           	MOV	EBP,ESP
  2103 00001411 57                              	PUSH	EDI
  2104 00001412 56                              	PUSH	ESI
  2105 00001413 53                              	PUSH	EBX
  2106 00001414 83 EC 14                        	SUB	ESP,20
  2107 00001417 8B 75 1C                        	MOV	ESI,DWORD [28+EBP]
  2108 0000141A E8 [00000000]                   	CALL	_task_now
  2109 0000141F 8B 0D 00000FE4                  	MOV	ECX,DWORD [4068]
  2110 00001425 89 45 F0                        	MOV	DWORD [-16+EBP],EAX
  2111 00001428 89 4D E8                        	MOV	DWORD [-24+EBP],ECX
  2112 0000142B 8B 80 00000118                  	MOV	EAX,DWORD [280+EAX]
  2113 00001431 8B 55 F0                        	MOV	EDX,DWORD [-16+EBP]
  2114 00001434 89 45 EC                        	MOV	DWORD [-20+EBP],EAX
  2115 00001437 A1 00000FEC                     	MOV	EAX,DWORD [4076]
  2116 0000143C 8B 9A 00000114                  	MOV	EBX,DWORD [276+EDX]
  2117 00001442 89 45 E4                        	MOV	DWORD [-28+EBP],EAX
  2118 00001445 E8 FFFFEF37                     	CALL	_time2TIME
  2119 0000144A 83 FE 01                        	CMP	ESI,1
  2120 0000144D 0F 84 0000067D                  	JE	L461
  2121 00001453 83 FE 02                        	CMP	ESI,2
  2122 00001456 0F 84 00000662                  	JE	L462
  2123 0000145C 83 FE 03                        	CMP	ESI,3
  2124 0000145F 0F 84 00000644                  	JE	L463
  2125 00001465 83 FE 04                        	CMP	ESI,4
  2126 00001468 0F 84 00000630                  	JE	L464
  2127 0000146E 83 FE 05                        	CMP	ESI,5
  2128 00001471 0F 84 000005AC                  	JE	L465
  2129 00001477 83 FE 06                        	CMP	ESI,6
  2130 0000147A 0F 84 00000557                  	JE	L466
  2131 00001480 83 FE 07                        	CMP	ESI,7
  2132 00001483 0F 84 00000518                  	JE	L467
  2133 00001489 83 FE 08                        	CMP	ESI,8
  2134 0000148C 0F 84 000004EB                  	JE	L468
  2135 00001492 83 FE 09                        	CMP	ESI,9
  2136 00001495 0F 84 000004C4                  	JE	L469
  2137 0000149B 83 FE 0A                        	CMP	ESI,10
  2138 0000149E 0F 84 0000049D                  	JE	L470
  2139 000014A4 83 FE 0B                        	CMP	ESI,11
  2140 000014A7 0F 84 0000045D                  	JE	L471
  2141 000014AD 83 FE 0C                        	CMP	ESI,12
  2142 000014B0 0F 84 00000443                  	JE	L472
  2143 000014B6 83 FE 0D                        	CMP	ESI,13
  2144 000014B9 0F 84 000003CF                  	JE	L473
  2145 000014BF 83 FE 0E                        	CMP	ESI,14
  2146 000014C2 0F 84 000003B9                  	JE	L474
  2147 000014C8 83 FE 0F                        	CMP	ESI,15
  2148 000014CB 0F 84 000002C8                  	JE	L379
  2149 000014D1 83 FE 10                        	CMP	ESI,16
  2150 000014D4 0F 84 000002AE                  	JE	L475
  2151 000014DA 83 FE 11                        	CMP	ESI,17
  2152 000014DD 0F 84 00000288                  	JE	L476
  2153 000014E3 83 FE 12                        	CMP	ESI,18
  2154 000014E6 0F 84 0000026D                  	JE	L477
  2155 000014EC 83 FE 13                        	CMP	ESI,19
  2156 000014EF 0F 84 00000256                  	JE	L478
  2157 000014F5 83 FE 14                        	CMP	ESI,20
  2158 000014F8 0F 84 000001DA                  	JE	L479
  2159 000014FE 83 FE 15                        	CMP	ESI,21
  2160 00001501 0F 84 0000014E                  	JE	L480
  2161 00001507 83 FE 16                        	CMP	ESI,22
  2162 0000150A 0F 84 00000125                  	JE	L481
  2163 00001510 83 FE 17                        	CMP	ESI,23
  2164 00001513 0F 84 000000CE                  	JE	L482
  2165 00001519 83 FE 18                        	CMP	ESI,24
  2166 0000151C 0F 84 00000094                  	JE	L483
  2167 00001522 83 FE 19                        	CMP	ESI,25
  2168 00001525 74 64                           	JE	L484
  2169 00001527 83 FE 1A                        	CMP	ESI,26
  2170 0000152A 74 2F                           	JE	L485
  2171 0000152C 83 FE 1B                        	CMP	ESI,27
  2172 0000152F 74 1E                           	JE	L486
  2173 00001531 83 FE 1C                        	CMP	ESI,28
  2174 00001534 74 14                           	JE	L454
  2175 00001536 83 FE 1D                        	CMP	ESI,29
  2176 00001539 74 0A                           	JE	L487
  2177 0000153B                                 L345:
  2178 0000153B 31 C0                           	XOR	EAX,EAX
  2179 0000153D                                 L343:
  2180 0000153D 8D 65 F4                        	LEA	ESP,DWORD [-12+EBP]
  2181 00001540 5B                              	POP	EBX
  2182 00001541 5E                              	POP	ESI
  2183 00001542 5F                              	POP	EDI
  2184 00001543 5D                              	POP	EBP
  2185 00001544 C3                              	RET
  2186 00001545                                 L487:
  2187 00001545 E8 FFFFECAF                     	CALL	_time
  2188 0000154A                                 L454:
  2189 0000154A 89 45 44                        	MOV	DWORD [68+EBP],EAX
  2190 0000154D EB EC                           	JMP	L345
  2191 0000154F                                 L486:
  2192 0000154F 8B 5D F0                        	MOV	EBX,DWORD [-16+EBP]
  2193 00001552 0F B6 83 0000012C               	MOVZX	EAX,BYTE [300+EBX]
  2194 00001559 EB EF                           	JMP	L454
  2195 0000155B                                 L485:
  2196 0000155B 31 F6                           	XOR	ESI,ESI
  2197 0000155D                                 L440:
  2198 0000155D 8B 4D F0                        	MOV	ECX,DWORD [-16+EBP]
  2199 00001560 8B 55 18                        	MOV	EDX,DWORD [24+EBP]
  2200 00001563 03 55 EC                        	ADD	EDX,DWORD [-20+EBP]
  2201 00001566 8B 81 00000128                  	MOV	EAX,DWORD [296+ECX]
  2202 0000156C 8A 04 06                        	MOV	AL,BYTE [ESI+EAX*1]
  2203 0000156F 88 04 16                        	MOV	BYTE [ESI+EDX*1],AL
  2204 00001572 8B 81 00000128                  	MOV	EAX,DWORD [296+ECX]
  2205 00001578 80 3C 06 00                     	CMP	BYTE [ESI+EAX*1],0
  2206 0000157C 74 08                           	JE	L441
  2207 0000157E 3B 75 20                        	CMP	ESI,DWORD [32+EBP]
  2208 00001581 7D 03                           	JGE	L441
  2209 00001583 46                              	INC	ESI
  2210 00001584 EB D7                           	JMP	L440
  2211 00001586                                 L441:
  2212 00001586 89 75 44                        	MOV	DWORD [68+EBP],ESI
  2213 00001589 EB B0                           	JMP	L345
  2214 0000158B                                 L484:
  2215 0000158B 31 F6                           	XOR	ESI,ESI
  2216 0000158D 8B 5D 24                        	MOV	EBX,DWORD [36+EBP]
  2217 00001590 3B 75 20                        	CMP	ESI,DWORD [32+EBP]
  2218 00001593 7D F1                           	JGE	L441
  2219 00001595                                 L437:
  2220 00001595 8B 4B 08                        	MOV	ECX,DWORD [8+EBX]
  2221 00001598 3B 4B 04                        	CMP	ECX,DWORD [4+EBX]
  2222 0000159B 74 E9                           	JE	L441
  2223 0000159D 8B 45 18                        	MOV	EAX,DWORD [24+EBP]
  2224 000015A0 8B 13                           	MOV	EDX,DWORD [EBX]
  2225 000015A2 03 45 EC                        	ADD	EAX,DWORD [-20+EBP]
  2226 000015A5 8A 14 11                        	MOV	DL,BYTE [ECX+EDX*1]
  2227 000015A8 88 14 06                        	MOV	BYTE [ESI+EAX*1],DL
  2228 000015AB 46                              	INC	ESI
  2229 000015AC FF 43 08                        	INC	DWORD [8+EBX]
  2230 000015AF 3B 75 20                        	CMP	ESI,DWORD [32+EBP]
  2231 000015B2 7C E1                           	JL	L437
  2232 000015B4 EB D0                           	JMP	L441
  2233 000015B6                                 L483:
  2234 000015B6 8B 5D 24                        	MOV	EBX,DWORD [36+EBP]
  2235 000015B9 83 7D 20 00                     	CMP	DWORD [32+EBP],0
  2236 000015BD 75 05                           	JNE	L425
  2237 000015BF 8B 43 04                        	MOV	EAX,DWORD [4+EBX]
  2238 000015C2 EB 86                           	JMP	L454
  2239 000015C4                                 L425:
  2240 000015C4 83 7D 20 01                     	CMP	DWORD [32+EBP],1
  2241 000015C8 74 15                           	JE	L488
  2242 000015CA 83 7D 20 02                     	CMP	DWORD [32+EBP],2
  2243 000015CE 0F 85 FFFFFF67                  	JNE	L345
  2244 000015D4 8B 43 08                        	MOV	EAX,DWORD [8+EBX]
  2245 000015D7 2B 43 04                        	SUB	EAX,DWORD [4+EBX]
  2246 000015DA E9 FFFFFF6B                     	JMP	L454
  2247 000015DF                                 L488:
  2248 000015DF 8B 43 08                        	MOV	EAX,DWORD [8+EBX]
  2249 000015E2 E9 FFFFFF63                     	JMP	L454
  2250 000015E7                                 L482:
  2251 000015E7 8B 5D 24                        	MOV	EBX,DWORD [36+EBP]
  2252 000015EA 83 7D 20 00                     	CMP	DWORD [32+EBP],0
  2253 000015EE 74 35                           	JE	L453
  2254 000015F0 83 7D 20 01                     	CMP	DWORD [32+EBP],1
  2255 000015F4 74 37                           	JE	L489
  2256 000015F6 83 7D 20 02                     	CMP	DWORD [32+EBP],2
  2257 000015FA 74 23                           	JE	L490
  2258 000015FC                                 L417:
  2259 000015FC 83 7B 08 00                     	CMP	DWORD [8+EBX],0
  2260 00001600 78 14                           	JS	L491
  2261 00001602                                 L421:
  2262 00001602 8B 43 04                        	MOV	EAX,DWORD [4+EBX]
  2263 00001605 39 43 08                        	CMP	DWORD [8+EBX],EAX
  2264 00001608 0F 8E FFFFFF2D                  	JLE	L345
  2265 0000160E 89 43 08                        	MOV	DWORD [8+EBX],EAX
  2266 00001611 E9 FFFFFF25                     	JMP	L345
  2267 00001616                                 L491:
  2268 00001616 C7 43 08 00000000               	MOV	DWORD [8+EBX],0
  2269 0000161D EB E3                           	JMP	L421
  2270 0000161F                                 L490:
  2271 0000161F 8B 43 04                        	MOV	EAX,DWORD [4+EBX]
  2272 00001622 01 45 18                        	ADD	DWORD [24+EBP],EAX
  2273 00001625                                 L453:
  2274 00001625 8B 55 18                        	MOV	EDX,DWORD [24+EBP]
  2275 00001628 89 53 08                        	MOV	DWORD [8+EBX],EDX
  2276 0000162B EB CF                           	JMP	L417
  2277 0000162D                                 L489:
  2278 0000162D 8B 4D 18                        	MOV	ECX,DWORD [24+EBP]
  2279 00001630 01 4B 08                        	ADD	DWORD [8+EBX],ECX
  2280 00001633 EB C7                           	JMP	L417
  2281 00001635                                 L481:
  2282 00001635 8B 5D 24                        	MOV	EBX,DWORD [36+EBP]
  2283 00001638 FF 73 04                        	PUSH	DWORD [4+EBX]
  2284 0000163B FF 33                           	PUSH	DWORD [EBX]
  2285 0000163D 68 003C0000                     	PUSH	3932160
  2286 00001642 E8 [00000000]                   	CALL	_memman_free_4k
  2287 00001647 C7 03 00000000                  	MOV	DWORD [EBX],0
  2288 0000164D                                 L455:
  2289 0000164D 83 C4 0C                        	ADD	ESP,12
  2290 00001650 E9 FFFFFEE6                     	JMP	L345
  2291 00001655                                 L480:
  2292 00001655 31 F6                           	XOR	ESI,ESI
  2293 00001657 31 C0                           	XOR	EAX,EAX
  2294 00001659                                 L409:
  2295 00001659 8B 4D F0                        	MOV	ECX,DWORD [-16+EBP]
  2296 0000165C 8B 91 00000120                  	MOV	EDX,DWORD [288+ECX]
  2297 00001662 83 3C 02 00                     	CMP	DWORD [EDX+EAX*1],0
  2298 00001666 74 09                           	JE	L405
  2299 00001668 46                              	INC	ESI
  2300 00001669 83 C0 0C                        	ADD	EAX,12
  2301 0000166C 83 FE 07                        	CMP	ESI,7
  2302 0000166F 7E E8                           	JLE	L409
  2303 00001671                                 L405:
  2304 00001671 6B C6 0C                        	IMUL	EAX,ESI,12
  2305 00001674 C7 45 44 00000000               	MOV	DWORD [68+EBP],0
  2306 0000167B 8D 1C 10                        	LEA	EBX,DWORD [EAX+EDX*1]
  2307 0000167E 83 FE 07                        	CMP	ESI,7
  2308 00001681 0F 8F FFFFFEB4                  	JG	L345
  2309 00001687 8B 45 18                        	MOV	EAX,DWORD [24+EBP]
  2310 0000168A 68 000000E0                     	PUSH	224
  2311 0000168F 03 45 EC                        	ADD	EAX,DWORD [-20+EBP]
  2312 00001692 68 00102600                     	PUSH	1058304
  2313 00001697 50                              	PUSH	EAX
  2314 00001698 E8 [00000000]                   	CALL	_file_search
  2315 0000169D 83 C4 0C                        	ADD	ESP,12
  2316 000016A0 89 C2                           	MOV	EDX,EAX
  2317 000016A2 85 C0                           	TEST	EAX,EAX
  2318 000016A4 0F 84 FFFFFE91                  	JE	L345
  2319 000016AA 89 5D 44                        	MOV	DWORD [68+EBP],EBX
  2320 000016AD 8B 40 1C                        	MOV	EAX,DWORD [28+EAX]
  2321 000016B0 89 43 04                        	MOV	DWORD [4+EBX],EAX
  2322 000016B3 8B 45 F0                        	MOV	EAX,DWORD [-16+EBP]
  2323 000016B6 C7 43 08 00000000               	MOV	DWORD [8+EBX],0
  2324 000016BD FF B0 00000124                  	PUSH	DWORD [292+EAX]
  2325 000016C3 8D 43 04                        	LEA	EAX,DWORD [4+EBX]
  2326 000016C6 50                              	PUSH	EAX
  2327 000016C7 0F B7 42 1A                     	MOVZX	EAX,WORD [26+EDX]
  2328 000016CB 50                              	PUSH	EAX
  2329 000016CC E8 [00000000]                   	CALL	_file_loadfile2
  2330 000016D1 89 03                           	MOV	DWORD [EBX],EAX
  2331 000016D3 E9 FFFFFF75                     	JMP	L455
  2332 000016D8                                 L479:
  2333 000016D8 8B 55 24                        	MOV	EDX,DWORD [36+EBP]
  2334 000016DB 85 D2                           	TEST	EDX,EDX
  2335 000016DD 75 19                           	JNE	L400
  2336 000016DF 6A 61                           	PUSH	97
  2337 000016E1 E8 [00000000]                   	CALL	_io_in8
  2338 000016E6 89 C6                           	MOV	ESI,EAX
  2339 000016E8 83 E6 0D                        	AND	ESI,13
  2340 000016EB 56                              	PUSH	ESI
  2341 000016EC 6A 61                           	PUSH	97
  2342 000016EE E8 [00000000]                   	CALL	_io_out8
  2343 000016F3 E9 FFFFFF55                     	JMP	L455
  2344 000016F8                                 L400:
  2345 000016F8 B9 471E7B60                     	MOV	ECX,1193180000
  2346 000016FD 89 D3                           	MOV	EBX,EDX
  2347 000016FF 89 C8                           	MOV	EAX,ECX
  2348 00001701 68 000000B6                     	PUSH	182
  2349 00001706 99                              	CDQ
  2350 00001707 F7 FB                           	IDIV	EBX
  2351 00001709 6A 43                           	PUSH	67
  2352 0000170B 89 C6                           	MOV	ESI,EAX
  2353 0000170D E8 [00000000]                   	CALL	_io_out8
  2354 00001712 89 F0                           	MOV	EAX,ESI
  2355 00001714 C1 FE 08                        	SAR	ESI,8
  2356 00001717 25 000000FF                     	AND	EAX,255
  2357 0000171C 50                              	PUSH	EAX
  2358 0000171D 6A 42                           	PUSH	66
  2359 0000171F E8 [00000000]                   	CALL	_io_out8
  2360 00001724 56                              	PUSH	ESI
  2361 00001725 6A 42                           	PUSH	66
  2362 00001727 E8 [00000000]                   	CALL	_io_out8
  2363 0000172C 6A 61                           	PUSH	97
  2364 0000172E E8 [00000000]                   	CALL	_io_in8
  2365 00001733 89 C6                           	MOV	ESI,EAX
  2366 00001735 83 CE 03                        	OR	ESI,3
  2367 00001738 83 E6 0F                        	AND	ESI,15
  2368 0000173B 56                              	PUSH	ESI
  2369 0000173C 6A 61                           	PUSH	97
  2370 0000173E E8 [00000000]                   	CALL	_io_out8
  2371 00001743 83 C4 24                        	ADD	ESP,36
  2372 00001746 E9 FFFFFDF0                     	JMP	L345
  2373 0000174B                                 L478:
  2374 0000174B FF 75 18                        	PUSH	DWORD [24+EBP]
  2375 0000174E E8 [00000000]                   	CALL	_timer_free
  2376 00001753                                 L456:
  2377 00001753 5B                              	POP	EBX
  2378 00001754 E9 FFFFFDE2                     	JMP	L345
  2379 00001759                                 L477:
  2380 00001759 FF 75 24                        	PUSH	DWORD [36+EBP]
  2381 0000175C FF 75 18                        	PUSH	DWORD [24+EBP]
  2382 0000175F E8 [00000000]                   	CALL	_timer_settime
  2383 00001764                                 L458:
  2384 00001764 5E                              	POP	ESI
  2385 00001765 5F                              	POP	EDI
  2386 00001766 E9 FFFFFDD0                     	JMP	L345
  2387 0000176B                                 L476:
  2388 0000176B 8B 45 24                        	MOV	EAX,DWORD [36+EBP]
  2389 0000176E 05 00000100                     	ADD	EAX,256
  2390 00001773 50                              	PUSH	EAX
  2391 00001774 8B 45 F0                        	MOV	EAX,DWORD [-16+EBP]
  2392 00001777 83 C0 10                        	ADD	EAX,16
  2393 0000177A 50                              	PUSH	EAX
  2394 0000177B FF 75 18                        	PUSH	DWORD [24+EBP]
  2395 0000177E E8 [00000000]                   	CALL	_timer_init
  2396 00001783 E9 FFFFFEC5                     	JMP	L455
  2397 00001788                                 L475:
  2398 00001788 E8 [00000000]                   	CALL	_timer_alloc
  2399 0000178D 89 45 44                        	MOV	DWORD [68+EBP],EAX
  2400 00001790 C6 40 09 01                     	MOV	BYTE [9+EAX],1
  2401 00001794 E9 FFFFFDA2                     	JMP	L345
  2402 00001799                                 L379:
  2403 00001799 E8 [00000000]                   	CALL	_io_cli
  2404 0000179E 8B 45 F0                        	MOV	EAX,DWORD [-16+EBP]
  2405 000017A1 83 C0 10                        	ADD	EAX,16
  2406 000017A4 50                              	PUSH	EAX
  2407 000017A5 E8 [00000000]                   	CALL	_fifo32_status
  2408 000017AA 5A                              	POP	EDX
  2409 000017AB 85 C0                           	TEST	EAX,EAX
  2410 000017AD 75 13                           	JNE	L382
  2411 000017AF 83 7D 24 00                     	CMP	DWORD [36+EBP],0
  2412 000017B3 0F 84 000000B7                  	JE	L383
  2413 000017B9 FF 75 F0                        	PUSH	DWORD [-16+EBP]
  2414 000017BC E8 [00000000]                   	CALL	_task_sleep
  2415 000017C1 58                              	POP	EAX
  2416 000017C2                                 L382:
  2417 000017C2 8B 7D F0                        	MOV	EDI,DWORD [-16+EBP]
  2418 000017C5 83 C7 10                        	ADD	EDI,16
  2419 000017C8 57                              	PUSH	EDI
  2420 000017C9 E8 [00000000]                   	CALL	_fifo32_get
  2421 000017CE 89 C6                           	MOV	ESI,EAX
  2422 000017D0 E8 [00000000]                   	CALL	_io_sti
  2423 000017D5 58                              	POP	EAX
  2424 000017D6 83 FE 01                        	CMP	ESI,1
  2425 000017D9 7E 73                           	JLE	L492
  2426 000017DB                                 L385:
  2427 000017DB 83 FE 02                        	CMP	ESI,2
  2428 000017DE 74 65                           	JE	L493
  2429 000017E0                                 L386:
  2430 000017E0 83 FE 03                        	CMP	ESI,3
  2431 000017E3 74 57                           	JE	L494
  2432 000017E5                                 L387:
  2433 000017E5 83 FE 04                        	CMP	ESI,4
  2434 000017E8 74 14                           	JE	L495
  2435 000017EA                                 L388:
  2436 000017EA 8D 86 FFFFFF00                  	LEA	EAX,DWORD [-256+ESI]
  2437 000017F0 81 FE 000000FF                  	CMP	ESI,255
  2438 000017F6 0F 8F FFFFFD4E                  	JG	L454
  2439 000017FC EB 9B                           	JMP	L379
  2440 000017FE                                 L495:
  2441 000017FE FF 73 10                        	PUSH	DWORD [16+EBX]
  2442 00001801 E8 [00000000]                   	CALL	_timer_cancel
  2443 00001806 E8 [00000000]                   	CALL	_io_cli
  2444 0000180B 8B 03                           	MOV	EAX,DWORD [EBX]
  2445 0000180D 2B 45 E8                        	SUB	EAX,DWORD [-24+EBP]
  2446 00001810 2D 00000414                     	SUB	EAX,1044
  2447 00001815 C1 F8 03                        	SAR	EAX,3
  2448 00001818 69 C0 CCCCCCCD                  	IMUL	EAX,EAX,-858993459
  2449 0000181E 05 000007E8                     	ADD	EAX,2024
  2450 00001823 50                              	PUSH	EAX
  2451 00001824 FF 75 E4                        	PUSH	DWORD [-28+EBP]
  2452 00001827 E8 [00000000]                   	CALL	_fifo32_put
  2453 0000182C C7 03 00000000                  	MOV	DWORD [EBX],0
  2454 00001832 E8 [00000000]                   	CALL	_io_sti
  2455 00001837 83 C4 0C                        	ADD	ESP,12
  2456 0000183A EB AE                           	JMP	L388
  2457 0000183C                                 L494:
  2458 0000183C C7 43 0C FFFFFFFF               	MOV	DWORD [12+EBX],-1
  2459 00001843 EB A0                           	JMP	L387
  2460 00001845                                 L493:
  2461 00001845 C7 43 0C 00000007               	MOV	DWORD [12+EBX],7
  2462 0000184C EB 92                           	JMP	L386
  2463 0000184E                                 L492:
  2464 0000184E 83 3B 00                        	CMP	DWORD [EBX],0
  2465 00001851 74 88                           	JE	L385
  2466 00001853 6A 01                           	PUSH	1
  2467 00001855 57                              	PUSH	EDI
  2468 00001856 FF 73 10                        	PUSH	DWORD [16+EBX]
  2469 00001859 E8 [00000000]                   	CALL	_timer_init
  2470 0000185E 6A 32                           	PUSH	50
  2471 00001860 FF 73 10                        	PUSH	DWORD [16+EBX]
  2472 00001863 E8 [00000000]                   	CALL	_timer_settime
  2473 00001868 83 C4 14                        	ADD	ESP,20
  2474 0000186B E9 FFFFFF6B                     	JMP	L385
  2475 00001870                                 L383:
  2476 00001870 E8 [00000000]                   	CALL	_io_sti
  2477 00001875 C7 45 44 FFFFFFFF               	MOV	DWORD [68+EBP],-1
  2478 0000187C E9 FFFFFCBA                     	JMP	L345
  2479 00001881                                 L474:
  2480 00001881 FF 75 18                        	PUSH	DWORD [24+EBP]
  2481 00001884 E8 [00000000]                   	CALL	_sheet_free
  2482 00001889 E9 FFFFFEC5                     	JMP	L456
  2483 0000188E                                 L473:
  2484 0000188E FF 75 10                        	PUSH	DWORD [16+EBP]
  2485 00001891 FF 75 08                        	PUSH	DWORD [8+EBP]
  2486 00001894 FF 75 0C                        	PUSH	DWORD [12+EBP]
  2487 00001897 FF 75 20                        	PUSH	DWORD [32+EBP]
  2488 0000189A 8B 7D 18                        	MOV	EDI,DWORD [24+EBP]
  2489 0000189D FF 75 24                        	PUSH	DWORD [36+EBP]
  2490 000018A0 83 E7 FE                        	AND	EDI,-2
  2491 000018A3 57                              	PUSH	EDI
  2492 000018A4 E8 000002CB                     	CALL	_hrb_api_linewin
  2493 000018A9 83 C4 18                        	ADD	ESP,24
  2494 000018AC F7 45 18 00000001               	TEST	DWORD [24+EBP],1
  2495 000018B3 0F 85 FFFFFC82                  	JNE	L345
  2496 000018B9 8B 45 24                        	MOV	EAX,DWORD [36+EBP]
  2497 000018BC 3B 45 0C                        	CMP	EAX,DWORD [12+EBP]
  2498 000018BF 7E 09                           	JLE	L373
  2499 000018C1 8B 4D 0C                        	MOV	ECX,DWORD [12+EBP]
  2500 000018C4 89 45 0C                        	MOV	DWORD [12+EBP],EAX
  2501 000018C7 89 4D 24                        	MOV	DWORD [36+EBP],ECX
  2502 000018CA                                 L373:
  2503 000018CA 8B 5D 08                        	MOV	EBX,DWORD [8+EBP]
  2504 000018CD 39 5D 20                        	CMP	DWORD [32+EBP],EBX
  2505 000018D0 7E 09                           	JLE	L374
  2506 000018D2 8B 75 20                        	MOV	ESI,DWORD [32+EBP]
  2507 000018D5 89 5D 20                        	MOV	DWORD [32+EBP],EBX
  2508 000018D8 89 75 08                        	MOV	DWORD [8+EBP],ESI
  2509 000018DB                                 L374:
  2510 000018DB 8B 45 08                        	MOV	EAX,DWORD [8+EBP]
  2511 000018DE 40                              	INC	EAX
  2512 000018DF 50                              	PUSH	EAX
  2513 000018E0 8B 45 0C                        	MOV	EAX,DWORD [12+EBP]
  2514 000018E3 40                              	INC	EAX
  2515 000018E4 50                              	PUSH	EAX
  2516 000018E5 FF 75 20                        	PUSH	DWORD [32+EBP]
  2517 000018E8 FF 75 24                        	PUSH	DWORD [36+EBP]
  2518 000018EB                                 L460:
  2519 000018EB 57                              	PUSH	EDI
  2520 000018EC                                 L457:
  2521 000018EC E8 [00000000]                   	CALL	_sheet_refresh
  2522 000018F1                                 L459:
  2523 000018F1 83 C4 14                        	ADD	ESP,20
  2524 000018F4 E9 FFFFFC42                     	JMP	L345
  2525 000018F9                                 L472:
  2526 000018F9 FF 75 08                        	PUSH	DWORD [8+EBP]
  2527 000018FC FF 75 0C                        	PUSH	DWORD [12+EBP]
  2528 000018FF FF 75 20                        	PUSH	DWORD [32+EBP]
  2529 00001902 FF 75 24                        	PUSH	DWORD [36+EBP]
  2530 00001905 FF 75 18                        	PUSH	DWORD [24+EBP]
  2531 00001908 EB E2                           	JMP	L457
  2532 0000190A                                 L471:
  2533 0000190A 8B 7D 18                        	MOV	EDI,DWORD [24+EBP]
  2534 0000190D 8B 45 08                        	MOV	EAX,DWORD [8+EBP]
  2535 00001910 83 E7 FE                        	AND	EDI,-2
  2536 00001913 8A 55 24                        	MOV	DL,BYTE [36+EBP]
  2537 00001916 0F AF 47 04                     	IMUL	EAX,DWORD [4+EDI]
  2538 0000191A 03 45 0C                        	ADD	EAX,DWORD [12+EBP]
  2539 0000191D 8B 0F                           	MOV	ECX,DWORD [EDI]
  2540 0000191F 88 14 08                        	MOV	BYTE [EAX+ECX*1],DL
  2541 00001922 F7 45 18 00000001               	TEST	DWORD [24+EBP],1
  2542 00001929 0F 85 FFFFFC0C                  	JNE	L345
  2543 0000192F 8B 45 08                        	MOV	EAX,DWORD [8+EBP]
  2544 00001932 40                              	INC	EAX
  2545 00001933 50                              	PUSH	EAX
  2546 00001934 8B 45 0C                        	MOV	EAX,DWORD [12+EBP]
  2547 00001937 40                              	INC	EAX
  2548 00001938 50                              	PUSH	EAX
  2549 00001939 FF 75 08                        	PUSH	DWORD [8+EBP]
  2550 0000193C FF 75 0C                        	PUSH	DWORD [12+EBP]
  2551 0000193F EB AA                           	JMP	L460
  2552 00001941                                 L470:
  2553 00001941 8B 45 20                        	MOV	EAX,DWORD [32+EBP]
  2554 00001944 83 C0 0F                        	ADD	EAX,15
  2555 00001947 83 E0 F0                        	AND	EAX,-16
  2556 0000194A 50                              	PUSH	EAX
  2557 0000194B 8B 45 18                        	MOV	EAX,DWORD [24+EBP]
  2558 0000194E 03 45 EC                        	ADD	EAX,DWORD [-20+EBP]
  2559 00001951 FF 75 24                        	PUSH	DWORD [36+EBP]
  2560 00001954 50                              	PUSH	EAX
  2561 00001955 E8 [00000000]                   	CALL	_memman_free
  2562 0000195A E9 FFFFFCEE                     	JMP	L455
  2563 0000195F                                 L469:
  2564 0000195F 8B 45 20                        	MOV	EAX,DWORD [32+EBP]
  2565 00001962 83 C0 0F                        	ADD	EAX,15
  2566 00001965 83 E0 F0                        	AND	EAX,-16
  2567 00001968 50                              	PUSH	EAX
  2568 00001969 8B 45 18                        	MOV	EAX,DWORD [24+EBP]
  2569 0000196C 03 45 EC                        	ADD	EAX,DWORD [-20+EBP]
  2570 0000196F 50                              	PUSH	EAX
  2571 00001970 E8 [00000000]                   	CALL	_memman_alloc
  2572 00001975 89 45 44                        	MOV	DWORD [68+EBP],EAX
  2573 00001978 E9 FFFFFDE7                     	JMP	L458
  2574 0000197D                                 L468:
  2575 0000197D 8B 5D 18                        	MOV	EBX,DWORD [24+EBP]
  2576 00001980 03 5D EC                        	ADD	EBX,DWORD [-20+EBP]
  2577 00001983 53                              	PUSH	EBX
  2578 00001984 E8 [00000000]                   	CALL	_memman_init
  2579 00001989 83 65 20 F0                     	AND	DWORD [32+EBP],-16
  2580 0000198D FF 75 20                        	PUSH	DWORD [32+EBP]
  2581 00001990 FF 75 24                        	PUSH	DWORD [36+EBP]
  2582 00001993 53                              	PUSH	EBX
  2583 00001994 E8 [00000000]                   	CALL	_memman_free
  2584 00001999 83 C4 10                        	ADD	ESP,16
  2585 0000199C E9 FFFFFB9A                     	JMP	L345
  2586 000019A1                                 L467:
  2587 000019A1 FF 75 08                        	PUSH	DWORD [8+EBP]
  2588 000019A4 FF 75 0C                        	PUSH	DWORD [12+EBP]
  2589 000019A7 FF 75 20                        	PUSH	DWORD [32+EBP]
  2590 000019AA 8B 7D 18                        	MOV	EDI,DWORD [24+EBP]
  2591 000019AD FF 75 24                        	PUSH	DWORD [36+EBP]
  2592 000019B0 83 E7 FE                        	AND	EDI,-2
  2593 000019B3 0F B6 45 10                     	MOVZX	EAX,BYTE [16+EBP]
  2594 000019B7 50                              	PUSH	EAX
  2595 000019B8 FF 77 04                        	PUSH	DWORD [4+EDI]
  2596 000019BB FF 37                           	PUSH	DWORD [EDI]
  2597 000019BD E8 [00000000]                   	CALL	_boxfill8
  2598 000019C2 83 C4 1C                        	ADD	ESP,28
  2599 000019C5 F7 45 18 00000001               	TEST	DWORD [24+EBP],1
  2600 000019CC 0F 85 FFFFFB69                  	JNE	L345
  2601 000019D2 E9 FFFFFF04                     	JMP	L374
  2602 000019D7                                 L466:
  2603 000019D7 8B 45 10                        	MOV	EAX,DWORD [16+EBP]
  2604 000019DA 8B 7D 18                        	MOV	EDI,DWORD [24+EBP]
  2605 000019DD 03 45 EC                        	ADD	EAX,DWORD [-20+EBP]
  2606 000019E0 83 E7 FE                        	AND	EDI,-2
  2607 000019E3 50                              	PUSH	EAX
  2608 000019E4 0F BE 45 24                     	MOVSX	EAX,BYTE [36+EBP]
  2609 000019E8 50                              	PUSH	EAX
  2610 000019E9 FF 75 08                        	PUSH	DWORD [8+EBP]
  2611 000019EC FF 75 0C                        	PUSH	DWORD [12+EBP]
  2612 000019EF FF 77 04                        	PUSH	DWORD [4+EDI]
  2613 000019F2 FF 37                           	PUSH	DWORD [EDI]
  2614 000019F4 E8 [00000000]                   	CALL	_putfonts8_asc
  2615 000019F9 83 C4 18                        	ADD	ESP,24
  2616 000019FC F7 45 18 00000001               	TEST	DWORD [24+EBP],1
  2617 00001A03 0F 85 FFFFFB32                  	JNE	L345
  2618 00001A09 8B 55 0C                        	MOV	EDX,DWORD [12+EBP]
  2619 00001A0C 8B 45 08                        	MOV	EAX,DWORD [8+EBP]
  2620 00001A0F 8B 5D 20                        	MOV	EBX,DWORD [32+EBP]
  2621 00001A12 83 C0 10                        	ADD	EAX,16
  2622 00001A15 50                              	PUSH	EAX
  2623 00001A16 8D 04 DA                        	LEA	EAX,DWORD [EDX+EBX*8]
  2624 00001A19 50                              	PUSH	EAX
  2625 00001A1A FF 75 08                        	PUSH	DWORD [8+EBP]
  2626 00001A1D 52                              	PUSH	EDX
  2627 00001A1E E9 FFFFFEC8                     	JMP	L460
  2628 00001A23                                 L465:
  2629 00001A23 FF 75 E8                        	PUSH	DWORD [-24+EBP]
  2630 00001A26 E8 [00000000]                   	CALL	_sheet_alloc
  2631 00001A2B 8B 5D 18                        	MOV	EBX,DWORD [24+EBP]
  2632 00001A2E 8B 55 F0                        	MOV	EDX,DWORD [-16+EBP]
  2633 00001A31 89 C7                           	MOV	EDI,EAX
  2634 00001A33 89 50 24                        	MOV	DWORD [36+EAX],EDX
  2635 00001A36 03 5D EC                        	ADD	EBX,DWORD [-20+EBP]
  2636 00001A39 83 48 1C 10                     	OR	DWORD [28+EAX],16
  2637 00001A3D FF 75 24                        	PUSH	DWORD [36+EBP]
  2638 00001A40 FF 75 08                        	PUSH	DWORD [8+EBP]
  2639 00001A43 FF 75 0C                        	PUSH	DWORD [12+EBP]
  2640 00001A46 53                              	PUSH	EBX
  2641 00001A47 50                              	PUSH	EAX
  2642 00001A48 E8 [00000000]                   	CALL	_sheet_setbuf
  2643 00001A4D 8B 45 20                        	MOV	EAX,DWORD [32+EBP]
  2644 00001A50 03 45 EC                        	ADD	EAX,DWORD [-20+EBP]
  2645 00001A53 6A 00                           	PUSH	0
  2646 00001A55 50                              	PUSH	EAX
  2647 00001A56 FF 75 08                        	PUSH	DWORD [8+EBP]
  2648 00001A59 FF 75 0C                        	PUSH	DWORD [12+EBP]
  2649 00001A5C 53                              	PUSH	EBX
  2650 00001A5D BB 00000002                     	MOV	EBX,2
  2651 00001A62 E8 [00000000]                   	CALL	_make_window8
  2652 00001A67 8B 4D E8                        	MOV	ECX,DWORD [-24+EBP]
  2653 00001A6A 83 C4 2C                        	ADD	ESP,44
  2654 00001A6D 8B 41 0C                        	MOV	EAX,DWORD [12+ECX]
  2655 00001A70 2B 45 08                        	SUB	EAX,DWORD [8+EBP]
  2656 00001A73 99                              	CDQ
  2657 00001A74 F7 FB                           	IDIV	EBX
  2658 00001A76 50                              	PUSH	EAX
  2659 00001A77 8B 41 08                        	MOV	EAX,DWORD [8+ECX]
  2660 00001A7A 2B 45 0C                        	SUB	EAX,DWORD [12+EBP]
  2661 00001A7D 99                              	CDQ
  2662 00001A7E F7 FB                           	IDIV	EBX
  2663 00001A80 83 E0 FC                        	AND	EAX,-4
  2664 00001A83 50                              	PUSH	EAX
  2665 00001A84 57                              	PUSH	EDI
  2666 00001A85 E8 [00000000]                   	CALL	_sheet_slide
  2667 00001A8A 8B 4D E8                        	MOV	ECX,DWORD [-24+EBP]
  2668 00001A8D FF 71 10                        	PUSH	DWORD [16+ECX]
  2669 00001A90 57                              	PUSH	EDI
  2670 00001A91 E8 [00000000]                   	CALL	_sheet_updown
  2671 00001A96 89 7D 44                        	MOV	DWORD [68+EBP],EDI
  2672 00001A99 E9 FFFFFE53                     	JMP	L459
  2673 00001A9E                                 L464:
  2674 00001A9E 8B 45 F0                        	MOV	EAX,DWORD [-16+EBP]
  2675 00001AA1 83 C0 30                        	ADD	EAX,48
  2676 00001AA4 E9 FFFFFA94                     	JMP	L343
  2677 00001AA9                                 L463:
  2678 00001AA9 8B 45 18                        	MOV	EAX,DWORD [24+EBP]
  2679 00001AAC 03 45 EC                        	ADD	EAX,DWORD [-20+EBP]
  2680 00001AAF FF 75 20                        	PUSH	DWORD [32+EBP]
  2681 00001AB2 50                              	PUSH	EAX
  2682 00001AB3 53                              	PUSH	EBX
  2683 00001AB4 E8 FFFFEF38                     	CALL	_cons_putstr1
  2684 00001AB9 E9 FFFFFB8F                     	JMP	L455
  2685 00001ABE                                 L462:
  2686 00001ABE 8B 45 18                        	MOV	EAX,DWORD [24+EBP]
  2687 00001AC1 03 45 EC                        	ADD	EAX,DWORD [-20+EBP]
  2688 00001AC4 50                              	PUSH	EAX
  2689 00001AC5 53                              	PUSH	EBX
  2690 00001AC6 E8 FFFFEEF8                     	CALL	_cons_putstr0
  2691 00001ACB E9 FFFFFC94                     	JMP	L458
  2692 00001AD0                                 L461:
  2693 00001AD0 6A 01                           	PUSH	1
  2694 00001AD2 0F B6 45 24                     	MOVZX	EAX,BYTE [36+EBP]
  2695 00001AD6 50                              	PUSH	EAX
  2696 00001AD7 53                              	PUSH	EBX
  2697 00001AD8 E8 FFFFED4D                     	CALL	_cons_putchar
  2698 00001ADD E9 FFFFFB6B                     	JMP	L455
  2699                                          [SECTION .data]
  2700 00000258                                 LC41:
  2701 00000258 0A 49 4E 54 20 30 43 20 3A 0A   	DB	0x0A,"INT 0C :",0x0A," Stack Exception.",0x0A,0x00
       00000262 20 53 74 61 63 6B 20 45 78 63 
       0000026C 65 70 74 69 6F 6E 2E 0A 00 
  2702 00000275                                 LC42:
  2703 00000275 45 49 50 20 3D 20 25 30 38 58   	DB	"EIP = %08X",0x0A,0x00
       0000027F 0A 00 
  2704                                          [SECTION .text]
  2705 00001AE2                                 	GLOBAL	_inthandler0c
  2706 00001AE2                                 _inthandler0c:
  2707 00001AE2 55                              	PUSH	EBP
  2708 00001AE3 89 E5                           	MOV	EBP,ESP
  2709 00001AE5 57                              	PUSH	EDI
  2710 00001AE6 56                              	PUSH	ESI
  2711 00001AE7 53                              	PUSH	EBX
  2712 00001AE8 8D 5D D4                        	LEA	EBX,DWORD [-44+EBP]
  2713 00001AEB 83 EC 20                        	SUB	ESP,32
  2714 00001AEE E8 [00000000]                   	CALL	_task_now
  2715 00001AF3 89 C6                           	MOV	ESI,EAX
  2716 00001AF5 8B B8 00000114                  	MOV	EDI,DWORD [276+EAX]
  2717 00001AFB 83 C6 30                        	ADD	ESI,48
  2718 00001AFE 68 [00000258]                   	PUSH	LC41
  2719 00001B03 57                              	PUSH	EDI
  2720 00001B04 E8 FFFFEEBA                     	CALL	_cons_putstr0
  2721 00001B09 8B 45 08                        	MOV	EAX,DWORD [8+EBP]
  2722 00001B0C FF 70 2C                        	PUSH	DWORD [44+EAX]
  2723 00001B0F 68 [00000275]                   	PUSH	LC42
  2724 00001B14 53                              	PUSH	EBX
  2725 00001B15 E8 [00000000]                   	CALL	_sprintf
  2726 00001B1A 53                              	PUSH	EBX
  2727 00001B1B 57                              	PUSH	EDI
  2728 00001B1C E8 FFFFEEA2                     	CALL	_cons_putstr0
  2729 00001B21 8D 65 F4                        	LEA	ESP,DWORD [-12+EBP]
  2730 00001B24 5B                              	POP	EBX
  2731 00001B25 89 F0                           	MOV	EAX,ESI
  2732 00001B27 5E                              	POP	ESI
  2733 00001B28 5F                              	POP	EDI
  2734 00001B29 5D                              	POP	EBP
  2735 00001B2A C3                              	RET
  2736                                          [SECTION .data]
  2737 00000281                                 LC43:
  2738 00000281 0A 49 4E 54 20 30 44 20 3A 0A   	DB	0x0A,"INT 0D :",0x0A," General Protected Exception.",0x0A,0x00
       0000028B 20 47 65 6E 65 72 61 6C 20 50 
       00000295 72 6F 74 65 63 74 65 64 20 45 
       0000029F 78 63 65 70 74 69 6F 6E 2E 0A 
       000002A9 00 
  2739                                          [SECTION .text]
  2740 00001B2B                                 	GLOBAL	_inthandler0d
  2741 00001B2B                                 _inthandler0d:
  2742 00001B2B 55                              	PUSH	EBP
  2743 00001B2C 89 E5                           	MOV	EBP,ESP
  2744 00001B2E 57                              	PUSH	EDI
  2745 00001B2F 56                              	PUSH	ESI
  2746 00001B30 53                              	PUSH	EBX
  2747 00001B31 8D 5D D4                        	LEA	EBX,DWORD [-44+EBP]
  2748 00001B34 83 EC 20                        	SUB	ESP,32
  2749 00001B37 E8 [00000000]                   	CALL	_task_now
  2750 00001B3C 89 C6                           	MOV	ESI,EAX
  2751 00001B3E 8B B8 00000114                  	MOV	EDI,DWORD [276+EAX]
  2752 00001B44 83 C6 30                        	ADD	ESI,48
  2753 00001B47 68 [00000281]                   	PUSH	LC43
  2754 00001B4C 57                              	PUSH	EDI
  2755 00001B4D E8 FFFFEE71                     	CALL	_cons_putstr0
  2756 00001B52 8B 45 08                        	MOV	EAX,DWORD [8+EBP]
  2757 00001B55 FF 70 2C                        	PUSH	DWORD [44+EAX]
  2758 00001B58 68 [00000275]                   	PUSH	LC42
  2759 00001B5D 53                              	PUSH	EBX
  2760 00001B5E E8 [00000000]                   	CALL	_sprintf
  2761 00001B63 53                              	PUSH	EBX
  2762 00001B64 57                              	PUSH	EDI
  2763 00001B65 E8 FFFFEE59                     	CALL	_cons_putstr0
  2764 00001B6A 8D 65 F4                        	LEA	ESP,DWORD [-12+EBP]
  2765 00001B6D 5B                              	POP	EBX
  2766 00001B6E 89 F0                           	MOV	EAX,ESI
  2767 00001B70 5E                              	POP	ESI
  2768 00001B71 5F                              	POP	EDI
  2769 00001B72 5D                              	POP	EBP
  2770 00001B73 C3                              	RET
  2771 00001B74                                 	GLOBAL	_hrb_api_linewin
  2772 00001B74                                 _hrb_api_linewin:
  2773 00001B74 55                              	PUSH	EBP
  2774 00001B75 89 E5                           	MOV	EBP,ESP
  2775 00001B77 57                              	PUSH	EDI
  2776 00001B78 56                              	PUSH	ESI
  2777 00001B79 53                              	PUSH	EBX
  2778 00001B7A 83 EC 0C                        	SUB	ESP,12
  2779 00001B7D 8B 5D 0C                        	MOV	EBX,DWORD [12+EBP]
  2780 00001B80 8B 45 14                        	MOV	EAX,DWORD [20+EBP]
  2781 00001B83 89 D9                           	MOV	ECX,EBX
  2782 00001B85 8B 55 18                        	MOV	EDX,DWORD [24+EBP]
  2783 00001B88 C1 E1 0A                        	SAL	ECX,10
  2784 00001B8B 89 D7                           	MOV	EDI,EDX
  2785 00001B8D 89 4D F0                        	MOV	DWORD [-16+EBP],ECX
  2786 00001B90 89 C6                           	MOV	ESI,EAX
  2787 00001B92 8B 4D 10                        	MOV	ECX,DWORD [16+EBP]
  2788 00001B95 2B 7D 10                        	SUB	EDI,DWORD [16+EBP]
  2789 00001B98 C1 E1 0A                        	SAL	ECX,10
  2790 00001B9B 29 DE                           	SUB	ESI,EBX
  2791 00001B9D 89 4D EC                        	MOV	DWORD [-20+EBP],ECX
  2792 00001BA0 0F 88 000000A3                  	JS	L520
  2793 00001BA6                                 L499:
  2794 00001BA6 85 FF                           	TEST	EDI,EDI
  2795 00001BA8 0F 88 00000094                  	JS	L521
  2796 00001BAE                                 L500:
  2797 00001BAE 39 FE                           	CMP	ESI,EDI
  2798 00001BB0 7C 62                           	JL	L501
  2799 00001BB2 8D 4E 01                        	LEA	ECX,DWORD [1+ESI]
  2800 00001BB5 39 C3                           	CMP	EBX,EAX
  2801 00001BB7 BE FFFFFC00                     	MOV	ESI,-1024
  2802 00001BBC 7F 05                           	JG	L503
  2803 00001BBE BE 00000400                     	MOV	ESI,1024
  2804 00001BC3                                 L503:
  2805 00001BC3 39 55 10                        	CMP	DWORD [16+EBP],EDX
  2806 00001BC6 7F 46                           	JG	L504
  2807 00001BC8 2B 55 10                        	SUB	EDX,DWORD [16+EBP]
  2808 00001BCB 42                              	INC	EDX
  2809 00001BCC                                 L519:
  2810 00001BCC C1 E2 0A                        	SAL	EDX,10
  2811 00001BCF 89 D0                           	MOV	EAX,EDX
  2812 00001BD1 99                              	CDQ
  2813 00001BD2 F7 F9                           	IDIV	ECX
  2814 00001BD4 89 C7                           	MOV	EDI,EAX
  2815 00001BD6                                 L506:
  2816 00001BD6 85 C9                           	TEST	ECX,ECX
  2817 00001BD8 7E 2C                           	JLE	L517
  2818 00001BDA 89 CB                           	MOV	EBX,ECX
  2819 00001BDC                                 L515:
  2820 00001BDC 8B 55 08                        	MOV	EDX,DWORD [8+EBP]
  2821 00001BDF 8B 45 EC                        	MOV	EAX,DWORD [-20+EBP]
  2822 00001BE2 C1 F8 0A                        	SAR	EAX,10
  2823 00001BE5 8B 4D F0                        	MOV	ECX,DWORD [-16+EBP]
  2824 00001BE8 0F AF 42 04                     	IMUL	EAX,DWORD [4+EDX]
  2825 00001BEC C1 F9 0A                        	SAR	ECX,10
  2826 00001BEF 89 4D E8                        	MOV	DWORD [-24+EBP],ECX
  2827 00001BF2 8B 0A                           	MOV	ECX,DWORD [EDX]
  2828 00001BF4 03 45 E8                        	ADD	EAX,DWORD [-24+EBP]
  2829 00001BF7 8A 55 1C                        	MOV	DL,BYTE [28+EBP]
  2830 00001BFA 88 14 08                        	MOV	BYTE [EAX+ECX*1],DL
  2831 00001BFD 01 75 F0                        	ADD	DWORD [-16+EBP],ESI
  2832 00001C00 01 7D EC                        	ADD	DWORD [-20+EBP],EDI
  2833 00001C03 4B                              	DEC	EBX
  2834 00001C04 75 D6                           	JNE	L515
  2835 00001C06                                 L517:
  2836 00001C06 83 C4 0C                        	ADD	ESP,12
  2837 00001C09 5B                              	POP	EBX
  2838 00001C0A 5E                              	POP	ESI
  2839 00001C0B 5F                              	POP	EDI
  2840 00001C0C 5D                              	POP	EBP
  2841 00001C0D C3                              	RET
  2842 00001C0E                                 L504:
  2843 00001C0E 2B 55 10                        	SUB	EDX,DWORD [16+EBP]
  2844 00001C11 4A                              	DEC	EDX
  2845 00001C12 EB B8                           	JMP	L519
  2846 00001C14                                 L501:
  2847 00001C14 8D 4F 01                        	LEA	ECX,DWORD [1+EDI]
  2848 00001C17 39 55 10                        	CMP	DWORD [16+EBP],EDX
  2849 00001C1A BF FFFFFC00                     	MOV	EDI,-1024
  2850 00001C1F 7F 05                           	JG	L508
  2851 00001C21 BF 00000400                     	MOV	EDI,1024
  2852 00001C26                                 L508:
  2853 00001C26 39 C3                           	CMP	EBX,EAX
  2854 00001C28 7F 11                           	JG	L509
  2855 00001C2A 29 D8                           	SUB	EAX,EBX
  2856 00001C2C 8D 50 01                        	LEA	EDX,DWORD [1+EAX]
  2857 00001C2F                                 L518:
  2858 00001C2F C1 E2 0A                        	SAL	EDX,10
  2859 00001C32 89 D0                           	MOV	EAX,EDX
  2860 00001C34 99                              	CDQ
  2861 00001C35 F7 F9                           	IDIV	ECX
  2862 00001C37 89 C6                           	MOV	ESI,EAX
  2863 00001C39 EB 9B                           	JMP	L506
  2864 00001C3B                                 L509:
  2865 00001C3B 29 D8                           	SUB	EAX,EBX
  2866 00001C3D 8D 50 FF                        	LEA	EDX,DWORD [-1+EAX]
  2867 00001C40 EB ED                           	JMP	L518
  2868 00001C42                                 L521:
  2869 00001C42 F7 DF                           	NEG	EDI
  2870 00001C44 E9 FFFFFF65                     	JMP	L500
  2871 00001C49                                 L520:
  2872 00001C49 F7 DE                           	NEG	ESI
  2873 00001C4B E9 FFFFFF56                     	JMP	L499
  2874 00001C50                                 	GLOBAL	_hrb_dpi
  2875 00001C50                                 _hrb_dpi:
  2876 00001C50 55                              	PUSH	EBP
  2877 00001C51 89 E5                           	MOV	EBP,ESP
  2878 00001C53 57                              	PUSH	EDI
  2879 00001C54 56                              	PUSH	ESI
  2880 00001C55 53                              	PUSH	EBX
  2881 00001C56 8D 7D 28                        	LEA	EDI,DWORD [40+EBP]
  2882 00001C59 50                              	PUSH	EAX
  2883 00001C5A 8B 75 20                        	MOV	ESI,DWORD [32+EBP]
  2884 00001C5D E8 [00000000]                   	CALL	_task_now
  2885 00001C62 89 C3                           	MOV	EBX,EAX
  2886 00001C64 8B 45 1C                        	MOV	EAX,DWORD [28+EBP]
  2887 00001C67 48                              	DEC	EAX
  2888 00001C68 83 F8 09                        	CMP	EAX,9
  2889 00001C6B 0F 87 000000C9                  	JA	L535
  2890 00001C71 FF 24 85 [000002AC]             	JMP	DWORD [L536+EAX*4]
  2891                                          [SECTION .data]
  2892 000002AA 00 00                           	ALIGNB	4
  2893 000002AC                                 L536:
  2894 000002AC [00001C78]                      	DD	L524
  2895 000002B0 [00001C8D]                      	DD	L525
  2896 000002B4 [00001C9B]                      	DD	L526
  2897 000002B8 [00001CA6]                      	DD	L527
  2898 000002BC [00001CB0]                      	DD	L528
  2899 000002C0 [00001CBB]                      	DD	L529
  2900 000002C4 [00001CC5]                      	DD	L530
  2901 000002C8 [00001C83]                      	DD	L523
  2902 000002CC [00001CD3]                      	DD	L532
  2903 000002D0 [00001D04]                      	DD	L533
  2904                                          [SECTION .text]
  2905 00001C78                                 L524:
  2906 00001C78 56                              	PUSH	ESI
  2907 00001C79 FF 75 24                        	PUSH	DWORD [36+EBP]
  2908 00001C7C E8 [00000000]                   	CALL	_io_out8
  2909 00001C81                                 L537:
  2910 00001C81 5F                              	POP	EDI
  2911 00001C82 58                              	POP	EAX
  2912 00001C83                                 L523:
  2913 00001C83 31 C0                           	XOR	EAX,EAX
  2914 00001C85                                 L522:
  2915 00001C85 8D 65 F4                        	LEA	ESP,DWORD [-12+EBP]
  2916 00001C88 5B                              	POP	EBX
  2917 00001C89 5E                              	POP	ESI
  2918 00001C8A 5F                              	POP	EDI
  2919 00001C8B 5D                              	POP	EBP
  2920 00001C8C C3                              	RET
  2921 00001C8D                                 L525:
  2922 00001C8D FF 75 24                        	PUSH	DWORD [36+EBP]
  2923 00001C90 E8 [00000000]                   	CALL	_io_in8
  2924 00001C95                                 L538:
  2925 00001C95 89 47 1C                        	MOV	DWORD [28+EDI],EAX
  2926 00001C98 58                              	POP	EAX
  2927 00001C99 EB E8                           	JMP	L523
  2928 00001C9B                                 L526:
  2929 00001C9B 56                              	PUSH	ESI
  2930 00001C9C FF 75 24                        	PUSH	DWORD [36+EBP]
  2931 00001C9F E8 [00000000]                   	CALL	_io_out16
  2932 00001CA4 EB DB                           	JMP	L537
  2933 00001CA6                                 L527:
  2934 00001CA6 FF 75 24                        	PUSH	DWORD [36+EBP]
  2935 00001CA9 E8 [00000000]                   	CALL	_io_in16
  2936 00001CAE EB E5                           	JMP	L538
  2937 00001CB0                                 L528:
  2938 00001CB0 56                              	PUSH	ESI
  2939 00001CB1 FF 75 24                        	PUSH	DWORD [36+EBP]
  2940 00001CB4 E8 [00000000]                   	CALL	_io_out32
  2941 00001CB9 EB C6                           	JMP	L537
  2942 00001CBB                                 L529:
  2943 00001CBB FF 75 24                        	PUSH	DWORD [36+EBP]
  2944 00001CBE E8 [00000000]                   	CALL	_io_in32
  2945 00001CC3 EB D0                           	JMP	L538
  2946 00001CC5                                 L530:
  2947 00001CC5 56                              	PUSH	ESI
  2948 00001CC6 FF 75 24                        	PUSH	DWORD [36+EBP]
  2949 00001CC9 E8 [00000000]                   	CALL	_message_send
  2950 00001CCE 89 47 1C                        	MOV	DWORD [28+EDI],EAX
  2951 00001CD1 EB AE                           	JMP	L537
  2952 00001CD3                                 L532:
  2953 00001CD3 8B 45 18                        	MOV	EAX,DWORD [24+EBP]
  2954 00001CD6 88 45 F2                        	MOV	BYTE [-14+EBP],AL
  2955 00001CD9 8D 45 F2                        	LEA	EAX,DWORD [-14+EBP]
  2956 00001CDC 50                              	PUSH	EAX
  2957 00001CDD 6A 07                           	PUSH	7
  2958 00001CDF FF 75 24                        	PUSH	DWORD [36+EBP]
  2959 00001CE2 FF 75 24                        	PUSH	DWORD [36+EBP]
  2960 00001CE5 C6 45 F3 00                     	MOV	BYTE [-13+EBP],0
  2961 00001CE9 0F BF 05 00000FF4               	MOVSX	EAX,WORD [4084]
  2962 00001CF0 50                              	PUSH	EAX
  2963 00001CF1 FF 35 00000FF8                  	PUSH	DWORD [4088]
  2964 00001CF7 E8 [00000000]                   	CALL	_putfonts8_asc
  2965 00001CFC 83 C4 18                        	ADD	ESP,24
  2966 00001CFF E9 FFFFFF7F                     	JMP	L523
  2967 00001D04                                 L533:
  2968 00001D04 E8 [00000000]                   	CALL	_io_cli
  2969 00001D09 53                              	PUSH	EBX
  2970 00001D0A E8 [00000000]                   	CALL	_task_delete
  2971 00001D0F E8 [00000000]                   	CALL	_task_switchsub
  2972 00001D14 E8 [00000000]                   	CALL	_task_now
  2973 00001D19 5E                              	POP	ESI
  2974 00001D1A 89 C3                           	MOV	EBX,EAX
  2975 00001D1C 83 B8 00000148 00               	CMP	DWORD [328+EAX],0
  2976 00001D23 74 05                           	JE	L534
  2977 00001D25 89 E0                           	MOV	EAX,ESP
  2978 00001D27 89 43 30                        	MOV	DWORD [48+EBX],EAX
  2979 00001D2A                                 L534:
  2980 00001D2A E8 [00000000]                   	CALL	_io_sti
  2981 00001D2F FF 33                           	PUSH	DWORD [EBX]
  2982 00001D31 6A 00                           	PUSH	0
  2983 00001D33 E8 [00000000]                   	CALL	_farjmp
  2984 00001D38 59                              	POP	ECX
  2985 00001D39 5B                              	POP	EBX
  2986 00001D3A                                 L535:
  2987 00001D3A 83 C8 FF                        	OR	EAX,-1
  2988 00001D3D E9 FFFFFF43                     	JMP	L522
  2989 00001D42                                 	GLOBAL	_now_dir
  2990                                          [SECTION .data]
  2991 000002D4 00 00 00 00 00 00 00 00 00 00   	ALIGNB	16
       000002DE 00 00 
  2992 000002E0                                 _now_dir:
  2993 000002E0 00 00 00 00 00 00 00 00 00 00   	RESB	100000
       000002EA 00 00 00 00 00 00 00 00 00 00 
       000002F4 00 00 00 00 00 00 00 00 00 00 
       000002FE 00 00 00 00 00 00 00 00 00 00 
       00000308 00 00 00 00 00 00 00 00 00 00 
       00000312 00 00 00 00 00 00 00 00 00 00 
       0000031C 00 00 00 00 00 00 00 00 00 00 
       00000326 00 00 00 00 00 00 00 00 00 00 
       00000330 00 00 00 00 00 00 00 00 00 00 
       0000033A 00 00 00 00 00 00 00 00 00 00 
       00000344 00 00 00 00 00 00 00 00 00 00 
       0000034E 00 00 00 00 00 00 00 00 00 00 
       00000358 00 00 00 00 00 00 00 00 00 00 
       00000362 00 00 00 00 00 00 00 00 00 00 
       0000036C 00 00 00 00 00 00 00 00 00 00 
       00000376 00 00 00 00 00 00 00 00 00 00 
       00000380 00 00 00 00 00 00 00 00 00 00 
       0000038A 00 00 00 00 00 00 00 00 00 00 
       00000394 00 00 00 00 00 00 00 00 00 00 
       0000039E 00 00 00 00 00 00 00 00 00 00 
       000003A8 00 00 00 00 00 00 00 00 00 00 
       000003B2 00 00 00 00 00 00 00 00 00 00 
       000003BC 00 00 00 00 00 00 00 00 00 00 
       000003C6 00 00 00 00 00 00 00 00 00 00 
       000003D0 00 00 00 00 00 00 00 00 00 00 
       000003DA 00 00 00 00 00 00 00 00 00 00 
       000003E4 00 00 00 00 00 00 00 00 00 00 
       000003EE 00 00 00 00 00 00 00 00 00 00 
       000003F8 00 00 00 00 00 00 00 00 00 00 
       00000402 00 00 00 00 00 00 00 00 00 00 
       0000040C 00 00 00 00 00 00 00 00 00 00 
       00000416 00 00 00 00 00 00 00 00 00 00 
       00000420 00 00 00 00 00 00 00 00 00 00 
       0000042A 00 00 00 00 00 00 00 00 00 00 
       00000434 00 00 00 00 00 00 00 00 00 00 
       0000043E 00 00 00 00 00 00 00 00 00 00 
       00000448 00 00 00 00 00 00 00 00 00 00 
       00000452 00 00 00 00 00 00 00 00 00 00 
       0000045C 00 00 00 00 00 00 00 00 00 00 
       00000466 00 00 00 00 00 00 00 00 00 00 
       00000470 00 00 00 00 00 00 00 00 00 00 
       0000047A 00 00 00 00 00 00 00 00 00 00 
       00000484 00 00 00 00 00 00 00 00 00 00 
       0000048E 00 00 00 00 00 00 00 00 00 00 
       00000498 00 00 00 00 00 00 00 00 00 00 
       000004A2 00 00 00 00 00 00 00 00 00 00 
       000004AC 00 00 00 00 00 00 00 00 00 00 
       000004B6 00 00 00 00 00 00 00 00 00 00 
       000004C0 00 00 00 00 00 00 00 00 00 00 
       000004CA 00 00 00 00 00 00 00 00 00 00 
       000004D4 00 00 00 00 00 00 00 00 00 00 
       000004DE 00 00 00 00 00 00 00 00 00 00 
       000004E8 00 00 00 00 00 00 00 00 00 00 
       000004F2 00 00 00 00 00 00 00 00 00 00 
       000004FC 00 00 00 00 00 00 00 00 00 00 
       00000506 00 00 00 00 00 00 00 00 00 00 
       00000510 00 00 00 00 00 00 00 00 00 00 
       0000051A 00 00 00 00 00 00 00 00 00 00 
       00000524 00 00 00 00 00 00 00 00 00 00 
       0000052E 00 00 00 00 00 00 00 00 00 00 
       00000538 00 00 00 00 00 00 00 00 00 00 
       00000542 00 00 00 00 00 00 00 00 00 00 
       0000054C 00 00 00 00 00 00 00 00 00 00 
       00000556 00 00 00 00 00 00 00 00 00 00 
       00000560 00 00 00 00 00 00 00 00 00 00 
       0000056A 00 00 00 00 00 00 00 00 00 00 
       00000574 00 00 00 00 00 00 00 00 00 00 
       0000057E 00 00 00 00 00 00 00 00 00 00 
       00000588 00 00 00 00 00 00 00 00 00 00 
       00000592 00 00 00 00 00 00 00 00 00 00 
       0000059C 00 00 00 00 00 00 00 00 00 00 
       000005A6 00 00 00 00 00 00 00 00 00 00 
       000005B0 00 00 00 00 00 00 00 00 00 00 
       000005BA 00 00 00 00 00 00 00 00 00 00 
       000005C4 00 00 00 00 00 00 00 00 00 00 
       000005CE 00 00 00 00 00 00 00 00 00 00 
       000005D8 00 00 00 00 00 00 00 00 00 00 
       000005E2 00 00 00 00 00 00 00 00 00 00 
       000005EC 00 00 00 00 00 00 00 00 00 00 
       000005F6 00 00 00 00 00 00 00 00 00 00 
       00000600 00 00 00 00 00 00 00 00 00 00 
       0000060A 00 00 00 00 00 00 00 00 00 00 
       00000614 00 00 00 00 00 00 00 00 00 00 
       0000061E 00 00 00 00 00 00 00 00 00 00 
       00000628 00 00 00 00 00 00 00 00 00 00 
       00000632 00 00 00 00 00 00 00 00 00 00 
       0000063C 00 00 00 00 00 00 00 00 00 00 
       00000646 00 00 00 00 00 00 00 00 00 00 
       00000650 00 00 00 00 00 00 00 00 00 00 
       0000065A 00 00 00 00 00 00 00 00 00 00 
       00000664 00 00 00 00 00 00 00 00 00 00 
       0000066E 00 00 00 00 00 00 00 00 00 00 
       00000678 00 00 00 00 00 00 00 00 00 00 
       00000682 00 00 00 00 00 00 00 00 00 00 
       0000068C 00 00 00 00 00 00 00 00 00 00 
       00000696 00 00 00 00 00 00 00 00 00 00 
       000006A0 00 00 00 00 00 00 00 00 00 00 
       000006AA 00 00 00 00 00 00 00 00 00 00 
       000006B4 00 00 00 00 00 00 00 00 00 00 
       000006BE 00 00 00 00 00 00 00 00 00 00 
       000006C8 00 00 00 00 00 00 00 00 00 00 
       000006D2 00 00 00 00 00 00 00 00 00 00 
       000006DC 00 00 00 00 00 00 00 00 00 00 
       000006E6 00 00 00 00 00 00 00 00 00 00 
       000006F0 00 00 00 00 00 00 00 00 00 00 
       000006FA 00 00 00 00 00 00 00 00 00 00 
       00000704 00 00 00 00 00 00 00 00 00 00 
       0000070E 00 00 00 00 00 00 00 00 00 00 
       00000718 00 00 00 00 00 00 00 00 00 00 
       00000722 00 00 00 00 00 00 00 00 00 00 
       0000072C 00 00 00 00 00 00 00 00 00 00 
       00000736 00 00 00 00 00 00 00 00 00 00 
       00000740 00 00 00 00 00 00 00 00 00 00 
       0000074A 00 00 00 00 00 00 00 00 00 00 
       00000754 00 00 00 00 00 00 00 00 00 00 
       0000075E 00 00 00 00 00 00 00 00 00 00 
       00000768 00 00 00 00 00 00 00 00 00 00 
       00000772 00 00 00 00 00 00 00 00 00 00 
       0000077C 00 00 00 00 00 00 00 00 00 00 
       00000786 00 00 00 00 00 00 00 00 00 00 
       00000790 00 00 00 00 00 00 00 00 00 00 
       0000079A 00 00 00 00 00 00 00 00 00 00 
       000007A4 00 00 00 00 00 00 00 00 00 00 
       000007AE 00 00 00 00 00 00 00 00 00 00 
       000007B8 00 00 00 00 00 00 00 00 00 00 
       000007C2 00 00 00 00 00 00 00 00 00 00 
       000007CC 00 00 00 00 00 00 00 00 00 00 
       000007D6 00 00 00 00 00 00 00 00 00 00 
       000007E0 00 00 00 00 00 00 00 00 00 00 
       000007EA 00 00 00 00 00 00 00 00 00 00 
       000007F4 00 00 00 00 00 00 00 00 00 00 
       000007FE 00 00 00 00 00 00 00 00 00 00 
       00000808 00 00 00 00 00 00 00 00 00 00 
       00000812 00 00 00 00 00 00 00 00 00 00 
       0000081C 00 00 00 00 00 00 00 00 00 00 
       00000826 00 00 00 00 00 00 00 00 00 00 
       00000830 00 00 00 00 00 00 00 00 00 00 
       0000083A 00 00 00 00 00 00 00 00 00 00 
       00000844 00 00 00 00 00 00 00 00 00 00 
       0000084E 00 00 00 00 00 00 00 00 00 00 
       00000858 00 00 00 00 00 00 00 00 00 00 
       00000862 00 00 00 00 00 00 00 00 00 00 
       0000086C 00 00 00 00 00 00 00 00 00 00 
       00000876 00 00 00 00 00 00 00 00 00 00 
       00000880 00 00 00 00 00 00 00 00 00 00 
       0000088A 00 00 00 00 00 00 00 00 00 00 
       00000894 00 00 00 00 00 00 00 00 00 00 
       0000089E 00 00 00 00 00 00 00 00 00 00 
       000008A8 00 00 00 00 00 00 00 00 00 00 
       000008B2 00 00 00 00 00 00 00 00 00 00 
       000008BC 00 00 00 00 00 00 00 00 00 00 
       000008C6 00 00 00 00 00 00 00 00 00 00 
       000008D0 00 00 00 00 00 00 00 00 00 00 
       000008DA 00 00 00 00 00 00 00 00 00 00 
       000008E4 00 00 00 00 00 00 00 00 00 00 
       000008EE 00 00 00 00 00 00 00 00 00 00 
       000008F8 00 00 00 00 00 00 00 00 00 00 
       00000902 00 00 00 00 00 00 00 00 00 00 
       0000090C 00 00 00 00 00 00 00 00 00 00 
       00000916 00 00 00 00 00 00 00 00 00 00 
       00000920 00 00 00 00 00 00 00 00 00 00 
       0000092A 00 00 00 00 00 00 00 00 00 00 
       00000934 00 00 00 00 00 00 00 00 00 00 
       0000093E 00 00 00 00 00 00 00 00 00 00 
       00000948 00 00 00 00 00 00 00 00 00 00 
       00000952 00 00 00 00 00 00 00 00 00 00 
       0000095C 00 00 00 00 00 00 00 00 00 00 
       00000966 00 00 00 00 00 00 00 00 00 00 
       00000970 00 00 00 00 00 00 00 00 00 00 
       0000097A 00 00 00 00 00 00 00 00 00 00 
       00000984 00 00 00 00 00 00 00 00 00 00 
       0000098E 00 00 00 00 00 00 00 00 00 00 
       00000998 00 00 00 00 00 00 00 00 00 00 
       000009A2 00 00 00 00 00 00 00 00 00 00 
       000009AC 00 00 00 00 00 00 00 00 00 00 
       000009B6 00 00 00 00 00 00 00 00 00 00 
       000009C0 00 00 00 00 00 00 00 00 00 00 
       000009CA 00 00 00 00 00 00 00 00 00 00 
       000009D4 00 00 00 00 00 00 00 00 00 00 
       000009DE 00 00 00 00 00 00 00 00 00 00 
       000009E8 00 00 00 00 00 00 00 00 00 00 
       000009F2 00 00 00 00 00 00 00 00 00 00 
       000009FC 00 00 00 00 00 00 00 00 00 00 
       00000A06 00 00 00 00 00 00 00 00 00 00 
       00000A10 00 00 00 00 00 00 00 00 00 00 
       00000A1A 00 00 00 00 00 00 00 00 00 00 
       00000A24 00 00 00 00 00 00 00 00 00 00 
       00000A2E 00 00 00 00 00 00 00 00 00 00 
       00000A38 00 00 00 00 00 00 00 00 00 00 
       00000A42 00 00 00 00 00 00 00 00 00 00 
       00000A4C 00 00 00 00 00 00 00 00 00 00 
       00000A56 00 00 00 00 00 00 00 00 00 00 
       00000A60 00 00 00 00 00 00 00 00 00 00 
       00000A6A 00 00 00 00 00 00 00 00 00 00 
       00000A74 00 00 00 00 00 00 00 00 00 00 
       00000A7E 00 00 00 00 00 00 00 00 00 00 
       00000A88 00 00 00 00 00 00 00 00 00 00 
       00000A92 00 00 00 00 00 00 00 00 00 00 
       00000A9C 00 00 00 00 00 00 00 00 00 00 
       00000AA6 00 00 00 00 00 00 00 00 00 00 
       00000AB0 00 00 00 00 00 00 00 00 00 00 
       00000ABA 00 00 00 00 00 00 00 00 00 00 
       00000AC4 00 00 00 00 00 00 00 00 00 00 
       00000ACE 00 00 00 00 00 00 00 00 00 00 
       00000AD8 00 00 00 00 00 00 00 00 00 00 
       00000AE2 00 00 00 00 00 00 00 00 00 00 
       00000AEC 00 00 00 00 00 00 00 00 00 00 
       00000AF6 00 00 00 00 00 00 00 00 00 00 
       00000B00 00 00 00 00 00 00 00 00 00 00 
       00000B0A 00 00 00 00 00 00 00 00 00 00 
       00000B14 00 00 00 00 00 00 00 00 00 00 
       00000B1E 00 00 00 00 00 00 00 00 00 00 
       00000B28 00 00 00 00 00 00 00 00 00 00 
       00000B32 00 00 00 00 00 00 00 00 00 00 
       00000B3C 00 00 00 00 00 00 00 00 00 00 
       00000B46 00 00 00 00 00 00 00 00 00 00 
       00000B50 00 00 00 00 00 00 00 00 00 00 
       00000B5A 00 00 00 00 00 00 00 00 00 00 
       00000B64 00 00 00 00 00 00 00 00 00 00 
       00000B6E 00 00 00 00 00 00 00 00 00 00 
       00000B78 00 00 00 00 00 00 00 00 00 00 
       00000B82 00 00 00 00 00 00 00 00 00 00 
       00000B8C 00 00 00 00 00 00 00 00 00 00 
       00000B96 00 00 00 00 00 00 00 00 00 00 
       00000BA0 00 00 00 00 00 00 00 00 00 00 
       00000BAA 00 00 00 00 00 00 00 00 00 00 
       00000BB4 00 00 00 00 00 00 00 00 00 00 
       00000BBE 00 00 00 00 00 00 00 00 00 00 
       00000BC8 00 00 00 00 00 00 00 00 00 00 
       00000BD2 00 00 00 00 00 00 00 00 00 00 
       00000BDC 00 00 00 00 00 00 00 00 00 00 
       00000BE6 00 00 00 00 00 00 00 00 00 00 
       00000BF0 00 00 00 00 00 00 00 00 00 00 
       00000BFA 00 00 00 00 00 00 00 00 00 00 
       00000C04 00 00 00 00 00 00 00 00 00 00 
       00000C0E 00 00 00 00 00 00 00 00 00 00 
       00000C18 00 00 00 00 00 00 00 00 00 00 
       00000C22 00 00 00 00 00 00 00 00 00 00 
       00000C2C 00 00 00 00 00 00 00 00 00 00 
       00000C36 00 00 00 00 00 00 00 00 00 00 
       00000C40 00 00 00 00 00 00 00 00 00 00 
       00000C4A 00 00 00 00 00 00 00 00 00 00 
       00000C54 00 00 00 00 00 00 00 00 00 00 
       00000C5E 00 00 00 00 00 00 00 00 00 00 
       00000C68 00 00 00 00 00 00 00 00 00 00 
       00000C72 00 00 00 00 00 00 00 00 00 00 
       00000C7C 00 00 00 00 00 00 00 00 00 00 
       00000C86 00 00 00 00 00 00 00 00 00 00 
       00000C90 00 00 00 00 00 00 00 00 00 00 
       00000C9A 00 00 00 00 00 00 00 00 00 00 
       00000CA4 00 00 00 00 00 00 00 00 00 00 
       00000CAE 00 00 00 00 00 00 00 00 00 00 
       00000CB8 00 00 00 00 00 00 00 00 00 00 
       00000CC2 00 00 00 00 00 00 00 00 00 00 
       00000CCC 00 00 00 00 00 00 00 00 00 00 
       00000CD6 00 00 00 00 00 00 00 00 00 00 
       00000CE0 00 00 00 00 00 00 00 00 00 00 
       00000CEA 00 00 00 00 00 00 00 00 00 00 
       00000CF4 00 00 00 00 00 00 00 00 00 00 
       00000CFE 00 00 00 00 00 00 00 00 00 00 
       00000D08 00 00 00 00 00 00 00 00 00 00 
       00000D12 00 00 00 00 00 00 00 00 00 00 
       00000D1C 00 00 00 00 00 00 00 00 00 00 
       00000D26 00 00 00 00 00 00 00 00 00 00 
       00000D30 00 00 00 00 00 00 00 00 00 00 
       00000D3A 00 00 00 00 00 00 00 00 00 00 
       00000D44 00 00 00 00 00 00 00 00 00 00 
       00000D4E 00 00 00 00 00 00 00 00 00 00 
       00000D58 00 00 00 00 00 00 00 00 00 00 
       00000D62 00 00 00 00 00 00 00 00 00 00 
       00000D6C 00 00 00 00 00 00 00 00 00 00 
       00000D76 00 00 00 00 00 00 00 00 00 00 
       00000D80 00 00 00 00 00 00 00 00 00 00 
       00000D8A 00 00 00 00 00 00 00 00 00 00 
       00000D94 00 00 00 00 00 00 00 00 00 00 
       00000D9E 00 00 00 00 00 00 00 00 00 00 
       00000DA8 00 00 00 00 00 00 00 00 00 00 
       00000DB2 00 00 00 00 00 00 00 00 00 00 
       00000DBC 00 00 00 00 00 00 00 00 00 00 
       00000DC6 00 00 00 00 00 00 00 00 00 00 
       00000DD0 00 00 00 00 00 00 00 00 00 00 
       00000DDA 00 00 00 00 00 00 00 00 00 00 
       00000DE4 00 00 00 00 00 00 00 00 00 00 
       00000DEE 00 00 00 00 00 00 00 00 00 00 
       00000DF8 00 00 00 00 00 00 00 00 00 00 
       00000E02 00 00 00 00 00 00 00 00 00 00 
       00000E0C 00 00 00 00 00 00 00 00 00 00 
       00000E16 00 00 00 00 00 00 00 00 00 00 
       00000E20 00 00 00 00 00 00 00 00 00 00 
       00000E2A 00 00 00 00 00 00 00 00 00 00 
       00000E34 00 00 00 00 00 00 00 00 00 00 
       00000E3E 00 00 00 00 00 00 00 00 00 00 
       00000E48 00 00 00 00 00 00 00 00 00 00 
       00000E52 00 00 00 00 00 00 00 00 00 00 
       00000E5C 00 00 00 00 00 00 00 00 00 00 
       00000E66 00 00 00 00 00 00 00 00 00 00 
       00000E70 00 00 00 00 00 00 00 00 00 00 
       00000E7A 00 00 00 00 00 00 00 00 00 00 
       00000E84 00 00 00 00 00 00 00 00 00 00 
       00000E8E 00 00 00 00 00 00 00 00 00 00 
       00000E98 00 00 00 00 00 00 00 00 00 00 
       00000EA2 00 00 00 00 00 00 00 00 00 00 
       00000EAC 00 00 00 00 00 00 00 00 00 00 
       00000EB6 00 00 00 00 00 00 00 00 00 00 
       00000EC0 00 00 00 00 00 00 00 00 00 00 
       00000ECA 00 00 00 00 00 00 00 00 00 00 
       00000ED4 00 00 00 00 00 00 00 00 00 00 
       00000EDE 00 00 00 00 00 00 00 00 00 00 
       00000EE8 00 00 00 00 00 00 00 00 00 00 
       00000EF2 00 00 00 00 00 00 00 00 00 00 
       00000EFC 00 00 00 00 00 00 00 00 00 00 
       00000F06 00 00 00 00 00 00 00 00 00 00 
       00000F10 00 00 00 00 00 00 00 00 00 00 
       00000F1A 00 00 00 00 00 00 00 00 00 00 
       00000F24 00 00 00 00 00 00 00 00 00 00 
       00000F2E 00 00 00 00 00 00 00 00 00 00 
       00000F38 00 00 00 00 00 00 00 00 00 00 
       00000F42 00 00 00 00 00 00 00 00 00 00 
       00000F4C 00 00 00 00 00 00 00 00 00 00 
       00000F56 00 00 00 00 00 00 00 00 00 00 
       00000F60 00 00 00 00 00 00 00 00 00 00 
       00000F6A 00 00 00 00 00 00 00 00 00 00 
       00000F74 00 00 00 00 00 00 00 00 00 00 
       00000F7E 00 00 00 00 00 00 00 00 00 00 
       00000F88 00 00 00 00 00 00 00 00 00 00 
       00000F92 00 00 00 00 00 00 00 00 00 00 
       00000F9C 00 00 00 00 00 00 00 00 00 00 
       00000FA6 00 00 00 00 00 00 00 00 00 00 
       00000FB0 00 00 00 00 00 00 00 00 00 00 
       00000FBA 00 00 00 00 00 00 00 00 00 00 
       00000FC4 00 00 00 00 00 00 00 00 00 00 
       00000FCE 00 00 00 00 00 00 00 00 00 00 
       00000FD8 00 00 00 00 00 00 00 00 00 00 
       00000FE2 00 00 00 00 00 00 00 00 00 00 
       00000FEC 00 00 00 00 00 00 00 00 00 00 
       00000FF6 00 00 00 00 00 00 00 00 00 00 
       00001000 00 00 00 00 00 00 00 00 00 00 
       0000100A 00 00 00 00 00 00 00 00 00 00 
       00001014 00 00 00 00 00 00 00 00 00 00 
       0000101E 00 00 00 00 00 00 00 00 00 00 
       00001028 00 00 00 00 00 00 00 00 00 00 
       00001032 00 00 00 00 00 00 00 00 00 00 
       0000103C 00 00 00 00 00 00 00 00 00 00 
       00001046 00 00 00 00 00 00 00 00 00 00 
       00001050 00 00 00 00 00 00 00 00 00 00 
       0000105A 00 00 00 00 00 00 00 00 00 00 
       00001064 00 00 00 00 00 00 00 00 00 00 
       0000106E 00 00 00 00 00 00 00 00 00 00 
       00001078 00 00 00 00 00 00 00 00 00 00 
       00001082 00 00 00 00 00 00 00 00 00 00 
       0000108C 00 00 00 00 00 00 00 00 00 00 
       00001096 00 00 00 00 00 00 00 00 00 00 
       000010A0 00 00 00 00 00 00 00 00 00 00 
       000010AA 00 00 00 00 00 00 00 00 00 00 
       000010B4 00 00 00 00 00 00 00 00 00 00 
       000010BE 00 00 00 00 00 00 00 00 00 00 
       000010C8 00 00 00 00 00 00 00 00 00 00 
       000010D2 00 00 00 00 00 00 00 00 00 00 
       000010DC 00 00 00 00 00 00 00 00 00 00 
       000010E6 00 00 00 00 00 00 00 00 00 00 
       000010F0 00 00 00 00 00 00 00 00 00 00 
       000010FA 00 00 00 00 00 00 00 00 00 00 
       00001104 00 00 00 00 00 00 00 00 00 00 
       0000110E 00 00 00 00 00 00 00 00 00 00 
       00001118 00 00 00 00 00 00 00 00 00 00 
       00001122 00 00 00 00 00 00 00 00 00 00 
       0000112C 00 00 00 00 00 00 00 00 00 00 
       00001136 00 00 00 00 00 00 00 00 00 00 
       00001140 00 00 00 00 00 00 00 00 00 00 
       0000114A 00 00 00 00 00 00 00 00 00 00 
       00001154 00 00 00 00 00 00 00 00 00 00 
       0000115E 00 00 00 00 00 00 00 00 00 00 
       00001168 00 00 00 00 00 00 00 00 00 00 
       00001172 00 00 00 00 00 00 00 00 00 00 
       0000117C 00 00 00 00 00 00 00 00 00 00 
       00001186 00 00 00 00 00 00 00 00 00 00 
       00001190 00 00 00 00 00 00 00 00 00 00 
       0000119A 00 00 00 00 00 00 00 00 00 00 
       000011A4 00 00 00 00 00 00 00 00 00 00 
       000011AE 00 00 00 00 00 00 00 00 00 00 
       000011B8 00 00 00 00 00 00 00 00 00 00 
       000011C2 00 00 00 00 00 00 00 00 00 00 
       000011CC 00 00 00 00 00 00 00 00 00 00 
       000011D6 00 00 00 00 00 00 00 00 00 00 
       000011E0 00 00 00 00 00 00 00 00 00 00 
       000011EA 00 00 00 00 00 00 00 00 00 00 
       000011F4 00 00 00 00 00 00 00 00 00 00 
       000011FE 00 00 00 00 00 00 00 00 00 00 
       00001208 00 00 00 00 00 00 00 00 00 00 
       00001212 00 00 00 00 00 00 00 00 00 00 
       0000121C 00 00 00 00 00 00 00 00 00 00 
       00001226 00 00 00 00 00 00 00 00 00 00 
       00001230 00 00 00 00 00 00 00 00 00 00 
       0000123A 00 00 00 00 00 00 00 00 00 00 
       00001244 00 00 00 00 00 00 00 00 00 00 
       0000124E 00 00 00 00 00 00 00 00 00 00 
       00001258 00 00 00 00 00 00 00 00 00 00 
       00001262 00 00 00 00 00 00 00 00 00 00 
       0000126C 00 00 00 00 00 00 00 00 00 00 
       00001276 00 00 00 00 00 00 00 00 00 00 
       00001280 00 00 00 00 00 00 00 00 00 00 
       0000128A 00 00 00 00 00 00 00 00 00 00 
       00001294 00 00 00 00 00 00 00 00 00 00 
       0000129E 00 00 00 00 00 00 00 00 00 00 
       000012A8 00 00 00 00 00 00 00 00 00 00 
       000012B2 00 00 00 00 00 00 00 00 00 00 
       000012BC 00 00 00 00 00 00 00 00 00 00 
       000012C6 00 00 00 00 00 00 00 00 00 00 
       000012D0 00 00 00 00 00 00 00 00 00 00 
       000012DA 00 00 00 00 00 00 00 00 00 00 
       000012E4 00 00 00 00 00 00 00 00 00 00 
       000012EE 00 00 00 00 00 00 00 00 00 00 
       000012F8 00 00 00 00 00 00 00 00 00 00 
       00001302 00 00 00 00 00 00 00 00 00 00 
       0000130C 00 00 00 00 00 00 00 00 00 00 
       00001316 00 00 00 00 00 00 00 00 00 00 
       00001320 00 00 00 00 00 00 00 00 00 00 
       0000132A 00 00 00 00 00 00 00 00 00 00 
       00001334 00 00 00 00 00 00 00 00 00 00 
       0000133E 00 00 00 00 00 00 00 00 00 00 
       00001348 00 00 00 00 00 00 00 00 00 00 
       00001352 00 00 00 00 00 00 00 00 00 00 
       0000135C 00 00 00 00 00 00 00 00 00 00 
       00001366 00 00 00 00 00 00 00 00 00 00 
       00001370 00 00 00 00 00 00 00 00 00 00 
       0000137A 00 00 00 00 00 00 00 00 00 00 
       00001384 00 00 00 00 00 00 00 00 00 00 
       0000138E 00 00 00 00 00 00 00 00 00 00 
       00001398 00 00 00 00 00 00 00 00 00 00 
       000013A2 00 00 00 00 00 00 00 00 00 00 
       000013AC 00 00 00 00 00 00 00 00 00 00 
       000013B6 00 00 00 00 00 00 00 00 00 00 
       000013C0 00 00 00 00 00 00 00 00 00 00 
       000013CA 00 00 00 00 00 00 00 00 00 00 
       000013D4 00 00 00 00 00 00 00 00 00 00 
       000013DE 00 00 00 00 00 00 00 00 00 00 
       000013E8 00 00 00 00 00 00 00 00 00 00 
       000013F2 00 00 00 00 00 00 00 00 00 00 
       000013FC 00 00 00 00 00 00 00 00 00 00 
       00001406 00 00 00 00 00 00 00 00 00 00 
       00001410 00 00 00 00 00 00 00 00 00 00 
       0000141A 00 00 00 00 00 00 00 00 00 00 
       00001424 00 00 00 00 00 00 00 00 00 00 
       0000142E 00 00 00 00 00 00 00 00 00 00 
       00001438 00 00 00 00 00 00 00 00 00 00 
       00001442 00 00 00 00 00 00 00 00 00 00 
       0000144C 00 00 00 00 00 00 00 00 00 00 
       00001456 00 00 00 00 00 00 00 00 00 00 
       00001460 00 00 00 00 00 00 00 00 00 00 
       0000146A 00 00 00 00 00 00 00 00 00 00 
       00001474 00 00 00 00 00 00 00 00 00 00 
       0000147E 00 00 00 00 00 00 00 00 00 00 
       00001488 00 00 00 00 00 00 00 00 00 00 
       00001492 00 00 00 00 00 00 00 00 00 00 
       0000149C 00 00 00 00 00 00 00 00 00 00 
       000014A6 00 00 00 00 00 00 00 00 00 00 
       000014B0 00 00 00 00 00 00 00 00 00 00 
       000014BA 00 00 00 00 00 00 00 00 00 00 
       000014C4 00 00 00 00 00 00 00 00 00 00 
       000014CE 00 00 00 00 00 00 00 00 00 00 
       000014D8 00 00 00 00 00 00 00 00 00 00 
       000014E2 00 00 00 00 00 00 00 00 00 00 
       000014EC 00 00 00 00 00 00 00 00 00 00 
       000014F6 00 00 00 00 00 00 00 00 00 00 
       00001500 00 00 00 00 00 00 00 00 00 00 
       0000150A 00 00 00 00 00 00 00 00 00 00 
       00001514 00 00 00 00 00 00 00 00 00 00 
       0000151E 00 00 00 00 00 00 00 00 00 00 
       00001528 00 00 00 00 00 00 00 00 00 00 
       00001532 00 00 00 00 00 00 00 00 00 00 
       0000153C 00 00 00 00 00 00 00 00 00 00 
       00001546 00 00 00 00 00 00 00 00 00 00 
       00001550 00 00 00 00 00 00 00 00 00 00 
       0000155A 00 00 00 00 00 00 00 00 00 00 
       00001564 00 00 00 00 00 00 00 00 00 00 
       0000156E 00 00 00 00 00 00 00 00 00 00 
       00001578 00 00 00 00 00 00 00 00 00 00 
       00001582 00 00 00 00 00 00 00 00 00 00 
       0000158C 00 00 00 00 00 00 00 00 00 00 
       00001596 00 00 00 00 00 00 00 00 00 00 
       000015A0 00 00 00 00 00 00 00 00 00 00 
       000015AA 00 00 00 00 00 00 00 00 00 00 
       000015B4 00 00 00 00 00 00 00 00 00 00 
       000015BE 00 00 00 00 00 00 00 00 00 00 
       000015C8 00 00 00 00 00 00 00 00 00 00 
       000015D2 00 00 00 00 00 00 00 00 00 00 
       000015DC 00 00 00 00 00 00 00 00 00 00 
       000015E6 00 00 00 00 00 00 00 00 00 00 
       000015F0 00 00 00 00 00 00 00 00 00 00 
       000015FA 00 00 00 00 00 00 00 00 00 00 
       00001604 00 00 00 00 00 00 00 00 00 00 
       0000160E 00 00 00 00 00 00 00 00 00 00 
       00001618 00 00 00 00 00 00 00 00 00 00 
       00001622 00 00 00 00 00 00 00 00 00 00 
       0000162C 00 00 00 00 00 00 00 00 00 00 
       00001636 00 00 00 00 00 00 00 00 00 00 
       00001640 00 00 00 00 00 00 00 00 00 00 
       0000164A 00 00 00 00 00 00 00 00 00 00 
       00001654 00 00 00 00 00 00 00 00 00 00 
       0000165E 00 00 00 00 00 00 00 00 00 00 
       00001668 00 00 00 00 00 00 00 00 00 00 
       00001672 00 00 00 00 00 00 00 00 00 00 
       0000167C 00 00 00 00 00 00 00 00 00 00 
       00001686 00 00 00 00 00 00 00 00 00 00 
       00001690 00 00 00 00 00 00 00 00 00 00 
       0000169A 00 00 00 00 00 00 00 00 00 00 
       000016A4 00 00 00 00 00 00 00 00 00 00 
       000016AE 00 00 00 00 00 00 00 00 00 00 
       000016B8 00 00 00 00 00 00 00 00 00 00 
       000016C2 00 00 00 00 00 00 00 00 00 00 
       000016CC 00 00 00 00 00 00 00 00 00 00 
       000016D6 00 00 00 00 00 00 00 00 00 00 
       000016E0 00 00 00 00 00 00 00 00 00 00 
       000016EA 00 00 00 00 00 00 00 00 00 00 
       000016F4 00 00 00 00 00 00 00 00 00 00 
       000016FE 00 00 00 00 00 00 00 00 00 00 
       00001708 00 00 00 00 00 00 00 00 00 00 
       00001712 00 00 00 00 00 00 00 00 00 00 
       0000171C 00 00 00 00 00 00 00 00 00 00 
       00001726 00 00 00 00 00 00 00 00 00 00 
       00001730 00 00 00 00 00 00 00 00 00 00 
       0000173A 00 00 00 00 00 00 00 00 00 00 
       00001744 00 00 00 00 00 00 00 00 00 00 
       0000174E 00 00 00 00 00 00 00 00 00 00 
       00001758 00 00 00 00 00 00 00 00 00 00 
       00001762 00 00 00 00 00 00 00 00 00 00 
       0000176C 00 00 00 00 00 00 00 00 00 00 
       00001776 00 00 00 00 00 00 00 00 00 00 
       00001780 00 00 00 00 00 00 00 00 00 00 
       0000178A 00 00 00 00 00 00 00 00 00 00 
       00001794 00 00 00 00 00 00 00 00 00 00 
       0000179E 00 00 00 00 00 00 00 00 00 00 
       000017A8 00 00 00 00 00 00 00 00 00 00 
       000017B2 00 00 00 00 00 00 00 00 00 00 
       000017BC 00 00 00 00 00 00 00 00 00 00 
       000017C6 00 00 00 00 00 00 00 00 00 00 
       000017D0 00 00 00 00 00 00 00 00 00 00 
       000017DA 00 00 00 00 00 00 00 00 00 00 
       000017E4 00 00 00 00 00 00 00 00 00 00 
       000017EE 00 00 00 00 00 00 00 00 00 00 
       000017F8 00 00 00 00 00 00 00 00 00 00 
       00001802 00 00 00 00 00 00 00 00 00 00 
       0000180C 00 00 00 00 00 00 00 00 00 00 
       00001816 00 00 00 00 00 00 00 00 00 00 
       00001820 00 00 00 00 00 00 00 00 00 00 
       0000182A 00 00 00 00 00 00 00 00 00 00 
       00001834 00 00 00 00 00 00 00 00 00 00 
       0000183E 00 00 00 00 00 00 00 00 00 00 
       00001848 00 00 00 00 00 00 00 00 00 00 
       00001852 00 00 00 00 00 00 00 00 00 00 
       0000185C 00 00 00 00 00 00 00 00 00 00 
       00001866 00 00 00 00 00 00 00 00 00 00 
       00001870 00 00 00 00 00 00 00 00 00 00 
       0000187A 00 00 00 00 00 00 00 00 00 00 
       00001884 00 00 00 00 00 00 00 00 00 00 
       0000188E 00 00 00 00 00 00 00 00 00 00 
       00001898 00 00 00 00 00 00 00 00 00 00 
       000018A2 00 00 00 00 00 00 00 00 00 00 
       000018AC 00 00 00 00 00 00 00 00 00 00 
       000018B6 00 00 00 00 00 00 00 00 00 00 
       000018C0 00 00 00 00 00 00 00 00 00 00 
       000018CA 00 00 00 00 00 00 00 00 00 00 
       000018D4 00 00 00 00 00 00 00 00 00 00 
       000018DE 00 00 00 00 00 00 00 00 00 00 
       000018E8 00 00 00 00 00 00 00 00 00 00 
       000018F2 00 00 00 00 00 00 00 00 00 00 
       000018FC 00 00 00 00 00 00 00 00 00 00 
       00001906 00 00 00 00 00 00 00 00 00 00 
       00001910 00 00 00 00 00 00 00 00 00 00 
       0000191A 00 00 00 00 00 00 00 00 00 00 
       00001924 00 00 00 00 00 00 00 00 00 00 
       0000192E 00 00 00 00 00 00 00 00 00 00 
       00001938 00 00 00 00 00 00 00 00 00 00 
       00001942 00 00 00 00 00 00 00 00 00 00 
       0000194C 00 00 00 00 00 00 00 00 00 00 
       00001956 00 00 00 00 00 00 00 00 00 00 
       00001960 00 00 00 00 00 00 00 00 00 00 
       0000196A 00 00 00 00 00 00 00 00 00 00 
       00001974 00 00 00 00 00 00 00 00 00 00 
       0000197E 00 00 00 00 00 00 00 00 00 00 
       00001988 00 00 00 00 00 00 00 00 00 00 
       00001992 00 00 00 00 00 00 00 00 00 00 
       0000199C 00 00 00 00 00 00 00 00 00 00 
       000019A6 00 00 00 00 00 00 00 00 00 00 
       000019B0 00 00 00 00 00 00 00 00 00 00 
       000019BA 00 00 00 00 00 00 00 00 00 00 
       000019C4 00 00 00 00 00 00 00 00 00 00 
       000019CE 00 00 00 00 00 00 00 00 00 00 
       000019D8 00 00 00 00 00 00 00 00 00 00 
       000019E2 00 00 00 00 00 00 00 00 00 00 
       000019EC 00 00 00 00 00 00 00 00 00 00 
       000019F6 00 00 00 00 00 00 00 00 00 00 
       00001A00 00 00 00 00 00 00 00 00 00 00 
       00001A0A 00 00 00 00 00 00 00 00 00 00 
       00001A14 00 00 00 00 00 00 00 00 00 00 
       00001A1E 00 00 00 00 00 00 00 00 00 00 
       00001A28 00 00 00 00 00 00 00 00 00 00 
       00001A32 00 00 00 00 00 00 00 00 00 00 
       00001A3C 00 00 00 00 00 00 00 00 00 00 
       00001A46 00 00 00 00 00 00 00 00 00 00 
       00001A50 00 00 00 00 00 00 00 00 00 00 
       00001A5A 00 00 00 00 00 00 00 00 00 00 
       00001A64 00 00 00 00 00 00 00 00 00 00 
       00001A6E 00 00 00 00 00 00 00 00 00 00 
       00001A78 00 00 00 00 00 00 00 00 00 00 
       00001A82 00 00 00 00 00 00 00 00 00 00 
       00001A8C 00 00 00 00 00 00 00 00 00 00 
       00001A96 00 00 00 00 00 00 00 00 00 00 
       00001AA0 00 00 00 00 00 00 00 00 00 00 
       00001AAA 00 00 00 00 00 00 00 00 00 00 
       00001AB4 00 00 00 00 00 00 00 00 00 00 
       00001ABE 00 00 00 00 00 00 00 00 00 00 
       00001AC8 00 00 00 00 00 00 00 00 00 00 
       00001AD2 00 00 00 00 00 00 00 00 00 00 
       00001ADC 00 00 00 00 00 00 00 00 00 00 
       00001AE6 00 00 00 00 00 00 00 00 00 00 
       00001AF0 00 00 00 00 00 00 00 00 00 00 
       00001AFA 00 00 00 00 00 00 00 00 00 00 
       00001B04 00 00 00 00 00 00 00 00 00 00 
       00001B0E 00 00 00 00 00 00 00 00 00 00 
       00001B18 00 00 00 00 00 00 00 00 00 00 
       00001B22 00 00 00 00 00 00 00 00 00 00 
       00001B2C 00 00 00 00 00 00 00 00 00 00 
       00001B36 00 00 00 00 00 00 00 00 00 00 
       00001B40 00 00 00 00 00 00 00 00 00 00 
       00001B4A 00 00 00 00 00 00 00 00 00 00 
       00001B54 00 00 00 00 00 00 00 00 00 00 
       00001B5E 00 00 00 00 00 00 00 00 00 00 
       00001B68 00 00 00 00 00 00 00 00 00 00 
       00001B72 00 00 00 00 00 00 00 00 00 00 
       00001B7C 00 00 00 00 00 00 00 00 00 00 
       00001B86 00 00 00 00 00 00 00 00 00 00 
       00001B90 00 00 00 00 00 00 00 00 00 00 
       00001B9A 00 00 00 00 00 00 00 00 00 00 
       00001BA4 00 00 00 00 00 00 00 00 00 00 
       00001BAE 00 00 00 00 00 00 00 00 00 00 
       00001BB8 00 00 00 00 00 00 00 00 00 00 
       00001BC2 00 00 00 00 00 00 00 00 00 00 
       00001BCC 00 00 00 00 00 00 00 00 00 00 
       00001BD6 00 00 00 00 00 00 00 00 00 00 
       00001BE0 00 00 00 00 00 00 00 00 00 00 
       00001BEA 00 00 00 00 00 00 00 00 00 00 
       00001BF4 00 00 00 00 00 00 00 00 00 00 
       00001BFE 00 00 00 00 00 00 00 00 00 00 
       00001C08 00 00 00 00 00 00 00 00 00 00 
       00001C12 00 00 00 00 00 00 00 00 00 00 
       00001C1C 00 00 00 00 00 00 00 00 00 00 
       00001C26 00 00 00 00 00 00 00 00 00 00 
       00001C30 00 00 00 00 00 00 00 00 00 00 
       00001C3A 00 00 00 00 00 00 00 00 00 00 
       00001C44 00 00 00 00 00 00 00 00 00 00 
       00001C4E 00 00 00 00 00 00 00 00 00 00 
       00001C58 00 00 00 00 00 00 00 00 00 00 
       00001C62 00 00 00 00 00 00 00 00 00 00 
       00001C6C 00 00 00 00 00 00 00 00 00 00 
       00001C76 00 00 00 00 00 00 00 00 00 00 
       00001C80 00 00 00 00 00 00 00 00 00 00 
       00001C8A 00 00 00 00 00 00 00 00 00 00 
       00001C94 00 00 00 00 00 00 00 00 00 00 
       00001C9E 00 00 00 00 00 00 00 00 00 00 
       00001CA8 00 00 00 00 00 00 00 00 00 00 
       00001CB2 00 00 00 00 00 00 00 00 00 00 
       00001CBC 00 00 00 00 00 00 00 00 00 00 
       00001CC6 00 00 00 00 00 00 00 00 00 00 
       00001CD0 00 00 00 00 00 00 00 00 00 00 
       00001CDA 00 00 00 00 00 00 00 00 00 00 
       00001CE4 00 00 00 00 00 00 00 00 00 00 
       00001CEE 00 00 00 00 00 00 00 00 00 00 
       00001CF8 00 00 00 00 00 00 00 00 00 00 
       00001D02 00 00 00 00 00 00 00 00 00 00 
       00001D0C 00 00 00 00 00 00 00 00 00 00 
       00001D16 00 00 00 00 00 00 00 00 00 00 
       00001D20 00 00 00 00 00 00 00 00 00 00 
       00001D2A 00 00 00 00 00 00 00 00 00 00 
       00001D34 00 00 00 00 00 00 00 00 00 00 
       00001D3E 00 00 00 00 00 00 00 00 00 00 
       00001D48 00 00 00 00 00 00 00 00 00 00 
       00001D52 00 00 00 00 00 00 00 00 00 00 
       00001D5C 00 00 00 00 00 00 00 00 00 00 
       00001D66 00 00 00 00 00 00 00 00 00 00 
       00001D70 00 00 00 00 00 00 00 00 00 00 
       00001D7A 00 00 00 00 00 00 00 00 00 00 
       00001D84 00 00 00 00 00 00 00 00 00 00 
       00001D8E 00 00 00 00 00 00 00 00 00 00 
       00001D98 00 00 00 00 00 00 00 00 00 00 
       00001DA2 00 00 00 00 00 00 00 00 00 00 
       00001DAC 00 00 00 00 00 00 00 00 00 00 
       00001DB6 00 00 00 00 00 00 00 00 00 00 
       00001DC0 00 00 00 00 00 00 00 00 00 00 
       00001DCA 00 00 00 00 00 00 00 00 00 00 
       00001DD4 00 00 00 00 00 00 00 00 00 00 
       00001DDE 00 00 00 00 00 00 00 00 00 00 
       00001DE8 00 00 00 00 00 00 00 00 00 00 
       00001DF2 00 00 00 00 00 00 00 00 00 00 
       00001DFC 00 00 00 00 00 00 00 00 00 00 
       00001E06 00 00 00 00 00 00 00 00 00 00 
       00001E10 00 00 00 00 00 00 00 00 00 00 
       00001E1A 00 00 00 00 00 00 00 00 00 00 
       00001E24 00 00 00 00 00 00 00 00 00 00 
       00001E2E 00 00 00 00 00 00 00 00 00 00 
       00001E38 00 00 00 00 00 00 00 00 00 00 
       00001E42 00 00 00 00 00 00 00 00 00 00 
       00001E4C 00 00 00 00 00 00 00 00 00 00 
       00001E56 00 00 00 00 00 00 00 00 00 00 
       00001E60 00 00 00 00 00 00 00 00 00 00 
       00001E6A 00 00 00 00 00 00 00 00 00 00 
       00001E74 00 00 00 00 00 00 00 00 00 00 
       00001E7E 00 00 00 00 00 00 00 00 00 00 
       00001E88 00 00 00 00 00 00 00 00 00 00 
       00001E92 00 00 00 00 00 00 00 00 00 00 
       00001E9C 00 00 00 00 00 00 00 00 00 00 
       00001EA6 00 00 00 00 00 00 00 00 00 00 
       00001EB0 00 00 00 00 00 00 00 00 00 00 
       00001EBA 00 00 00 00 00 00 00 00 00 00 
       00001EC4 00 00 00 00 00 00 00 00 00 00 
       00001ECE 00 00 00 00 00 00 00 00 00 00 
       00001ED8 00 00 00 00 00 00 00 00 00 00 
       00001EE2 00 00 00 00 00 00 00 00 00 00 
       00001EEC 00 00 00 00 00 00 00 00 00 00 
       00001EF6 00 00 00 00 00 00 00 00 00 00 
       00001F00 00 00 00 00 00 00 00 00 00 00 
       00001F0A 00 00 00 00 00 00 00 00 00 00 
       00001F14 00 00 00 00 00 00 00 00 00 00 
       00001F1E 00 00 00 00 00 00 00 00 00 00 
       00001F28 00 00 00 00 00 00 00 00 00 00 
       00001F32 00 00 00 00 00 00 00 00 00 00 
       00001F3C 00 00 00 00 00 00 00 00 00 00 
       00001F46 00 00 00 00 00 00 00 00 00 00 
       00001F50 00 00 00 00 00 00 00 00 00 00 
       00001F5A 00 00 00 00 00 00 00 00 00 00 
       00001F64 00 00 00 00 00 00 00 00 00 00 
       00001F6E 00 00 00 00 00 00 00 00 00 00 
       00001F78 00 00 00 00 00 00 00 00 00 00 
       00001F82 00 00 00 00 00 00 00 00 00 00 
       00001F8C 00 00 00 00 00 00 00 00 00 00 
       00001F96 00 00 00 00 00 00 00 00 00 00 
       00001FA0 00 00 00 00 00 00 00 00 00 00 
       00001FAA 00 00 00 00 00 00 00 00 00 00 
       00001FB4 00 00 00 00 00 00 00 00 00 00 
       00001FBE 00 00 00 00 00 00 00 00 00 00 
       00001FC8 00 00 00 00 00 00 00 00 00 00 
       00001FD2 00 00 00 00 00 00 00 00 00 00 
       00001FDC 00 00 00 00 00 00 00 00 00 00 
       00001FE6 00 00 00 00 00 00 00 00 00 00 
       00001FF0 00 00 00 00 00 00 00 00 00 00 
       00001FFA 00 00 00 00 00 00 00 00 00 00 
       00002004 00 00 00 00 00 00 00 00 00 00 
       0000200E 00 00 00 00 00 00 00 00 00 00 
       00002018 00 00 00 00 00 00 00 00 00 00 
       00002022 00 00 00 00 00 00 00 00 00 00 
       0000202C 00 00 00 00 00 00 00 00 00 00 
       00002036 00 00 00 00 00 00 00 00 00 00 
       00002040 00 00 00 00 00 00 00 00 00 00 
       0000204A 00 00 00 00 00 00 00 00 00 00 
       00002054 00 00 00 00 00 00 00 00 00 00 
       0000205E 00 00 00 00 00 00 00 00 00 00 
       00002068 00 00 00 00 00 00 00 00 00 00 
       00002072 00 00 00 00 00 00 00 00 00 00 
       0000207C 00 00 00 00 00 00 00 00 00 00 
       00002086 00 00 00 00 00 00 00 00 00 00 
       00002090 00 00 00 00 00 00 00 00 00 00 
       0000209A 00 00 00 00 00 00 00 00 00 00 
       000020A4 00 00 00 00 00 00 00 00 00 00 
       000020AE 00 00 00 00 00 00 00 00 00 00 
       000020B8 00 00 00 00 00 00 00 00 00 00 
       000020C2 00 00 00 00 00 00 00 00 00 00 
       000020CC 00 00 00 00 00 00 00 00 00 00 
       000020D6 00 00 00 00 00 00 00 00 00 00 
       000020E0 00 00 00 00 00 00 00 00 00 00 
       000020EA 00 00 00 00 00 00 00 00 00 00 
       000020F4 00 00 00 00 00 00 00 00 00 00 
       000020FE 00 00 00 00 00 00 00 00 00 00 
       00002108 00 00 00 00 00 00 00 00 00 00 
       00002112 00 00 00 00 00 00 00 00 00 00 
       0000211C 00 00 00 00 00 00 00 00 00 00 
       00002126 00 00 00 00 00 00 00 00 00 00 
       00002130 00 00 00 00 00 00 00 00 00 00 
       0000213A 00 00 00 00 00 00 00 00 00 00 
       00002144 00 00 00 00 00 00 00 00 00 00 
       0000214E 00 00 00 00 00 00 00 00 00 00 
       00002158 00 00 00 00 00 00 00 00 00 00 
       00002162 00 00 00 00 00 00 00 00 00 00 
       0000216C 00 00 00 00 00 00 00 00 00 00 
       00002176 00 00 00 00 00 00 00 00 00 00 
       00002180 00 00 00 00 00 00 00 00 00 00 
       0000218A 00 00 00 00 00 00 00 00 00 00 
       00002194 00 00 00 00 00 00 00 00 00 00 
       0000219E 00 00 00 00 00 00 00 00 00 00 
       000021A8 00 00 00 00 00 00 00 00 00 00 
       000021B2 00 00 00 00 00 00 00 00 00 00 
       000021BC 00 00 00 00 00 00 00 00 00 00 
       000021C6 00 00 00 00 00 00 00 00 00 00 
       000021D0 00 00 00 00 00 00 00 00 00 00 
       000021DA 00 00 00 00 00 00 00 00 00 00 
       000021E4 00 00 00 00 00 00 00 00 00 00 
       000021EE 00 00 00 00 00 00 00 00 00 00 
       000021F8 00 00 00 00 00 00 00 00 00 00 
       00002202 00 00 00 00 00 00 00 00 00 00 
       0000220C 00 00 00 00 00 00 00 00 00 00 
       00002216 00 00 00 00 00 00 00 00 00 00 
       00002220 00 00 00 00 00 00 00 00 00 00 
       0000222A 00 00 00 00 00 00 00 00 00 00 
       00002234 00 00 00 00 00 00 00 00 00 00 
       0000223E 00 00 00 00 00 00 00 00 00 00 
       00002248 00 00 00 00 00 00 00 00 00 00 
       00002252 00 00 00 00 00 00 00 00 00 00 
       0000225C 00 00 00 00 00 00 00 00 00 00 
       00002266 00 00 00 00 00 00 00 00 00 00 
       00002270 00 00 00 00 00 00 00 00 00 00 
       0000227A 00 00 00 00 00 00 00 00 00 00 
       00002284 00 00 00 00 00 00 00 00 00 00 
       0000228E 00 00 00 00 00 00 00 00 00 00 
       00002298 00 00 00 00 00 00 00 00 00 00 
       000022A2 00 00 00 00 00 00 00 00 00 00 
       000022AC 00 00 00 00 00 00 00 00 00 00 
       000022B6 00 00 00 00 00 00 00 00 00 00 
       000022C0 00 00 00 00 00 00 00 00 00 00 
       000022CA 00 00 00 00 00 00 00 00 00 00 
       000022D4 00 00 00 00 00 00 00 00 00 00 
       000022DE 00 00 00 00 00 00 00 00 00 00 
       000022E8 00 00 00 00 00 00 00 00 00 00 
       000022F2 00 00 00 00 00 00 00 00 00 00 
       000022FC 00 00 00 00 00 00 00 00 00 00 
       00002306 00 00 00 00 00 00 00 00 00 00 
       00002310 00 00 00 00 00 00 00 00 00 00 
       0000231A 00 00 00 00 00 00 00 00 00 00 
       00002324 00 00 00 00 00 00 00 00 00 00 
       0000232E 00 00 00 00 00 00 00 00 00 00 
       00002338 00 00 00 00 00 00 00 00 00 00 
       00002342 00 00 00 00 00 00 00 00 00 00 
       0000234C 00 00 00 00 00 00 00 00 00 00 
       00002356 00 00 00 00 00 00 00 00 00 00 
       00002360 00 00 00 00 00 00 00 00 00 00 
       0000236A 00 00 00 00 00 00 00 00 00 00 
       00002374 00 00 00 00 00 00 00 00 00 00 
       0000237E 00 00 00 00 00 00 00 00 00 00 
       00002388 00 00 00 00 00 00 00 00 00 00 
       00002392 00 00 00 00 00 00 00 00 00 00 
       0000239C 00 00 00 00 00 00 00 00 00 00 
       000023A6 00 00 00 00 00 00 00 00 00 00 
       000023B0 00 00 00 00 00 00 00 00 00 00 
       000023BA 00 00 00 00 00 00 00 00 00 00 
       000023C4 00 00 00 00 00 00 00 00 00 00 
       000023CE 00 00 00 00 00 00 00 00 00 00 
       000023D8 00 00 00 00 00 00 00 00 00 00 
       000023E2 00 00 00 00 00 00 00 00 00 00 
       000023EC 00 00 00 00 00 00 00 00 00 00 
       000023F6 00 00 00 00 00 00 00 00 00 00 
       00002400 00 00 00 00 00 00 00 00 00 00 
       0000240A 00 00 00 00 00 00 00 00 00 00 
       00002414 00 00 00 00 00 00 00 00 00 00 
       0000241E 00 00 00 00 00 00 00 00 00 00 
       00002428 00 00 00 00 00 00 00 00 00 00 
       00002432 00 00 00 00 00 00 00 00 00 00 
       0000243C 00 00 00 00 00 00 00 00 00 00 
       00002446 00 00 00 00 00 00 00 00 00 00 
       00002450 00 00 00 00 00 00 00 00 00 00 
       0000245A 00 00 00 00 00 00 00 00 00 00 
       00002464 00 00 00 00 00 00 00 00 00 00 
       0000246E 00 00 00 00 00 00 00 00 00 00 
       00002478 00 00 00 00 00 00 00 00 00 00 
       00002482 00 00 00 00 00 00 00 00 00 00 
       0000248C 00 00 00 00 00 00 00 00 00 00 
       00002496 00 00 00 00 00 00 00 00 00 00 
       000024A0 00 00 00 00 00 00 00 00 00 00 
       000024AA 00 00 00 00 00 00 00 00 00 00 
       000024B4 00 00 00 00 00 00 00 00 00 00 
       000024BE 00 00 00 00 00 00 00 00 00 00 
       000024C8 00 00 00 00 00 00 00 00 00 00 
       000024D2 00 00 00 00 00 00 00 00 00 00 
       000024DC 00 00 00 00 00 00 00 00 00 00 
       000024E6 00 00 00 00 00 00 00 00 00 00 
       000024F0 00 00 00 00 00 00 00 00 00 00 
       000024FA 00 00 00 00 00 00 00 00 00 00 
       00002504 00 00 00 00 00 00 00 00 00 00 
       0000250E 00 00 00 00 00 00 00 00 00 00 
       00002518 00 00 00 00 00 00 00 00 00 00 
       00002522 00 00 00 00 00 00 00 00 00 00 
       0000252C 00 00 00 00 00 00 00 00 00 00 
       00002536 00 00 00 00 00 00 00 00 00 00 
       00002540 00 00 00 00 00 00 00 00 00 00 
       0000254A 00 00 00 00 00 00 00 00 00 00 
       00002554 00 00 00 00 00 00 00 00 00 00 
       0000255E 00 00 00 00 00 00 00 00 00 00 
       00002568 00 00 00 00 00 00 00 00 00 00 
       00002572 00 00 00 00 00 00 00 00 00 00 
       0000257C 00 00 00 00 00 00 00 00 00 00 
       00002586 00 00 00 00 00 00 00 00 00 00 
       00002590 00 00 00 00 00 00 00 00 00 00 
       0000259A 00 00 00 00 00 00 00 00 00 00 
       000025A4 00 00 00 00 00 00 00 00 00 00 
       000025AE 00 00 00 00 00 00 00 00 00 00 
       000025B8 00 00 00 00 00 00 00 00 00 00 
       000025C2 00 00 00 00 00 00 00 00 00 00 
       000025CC 00 00 00 00 00 00 00 00 00 00 
       000025D6 00 00 00 00 00 00 00 00 00 00 
       000025E0 00 00 00 00 00 00 00 00 00 00 
       000025EA 00 00 00 00 00 00 00 00 00 00 
       000025F4 00 00 00 00 00 00 00 00 00 00 
       000025FE 00 00 00 00 00 00 00 00 00 00 
       00002608 00 00 00 00 00 00 00 00 00 00 
       00002612 00 00 00 00 00 00 00 00 00 00 
       0000261C 00 00 00 00 00 00 00 00 00 00 
       00002626 00 00 00 00 00 00 00 00 00 00 
       00002630 00 00 00 00 00 00 00 00 00 00 
       0000263A 00 00 00 00 00 00 00 00 00 00 
       00002644 00 00 00 00 00 00 00 00 00 00 
       0000264E 00 00 00 00 00 00 00 00 00 00 
       00002658 00 00 00 00 00 00 00 00 00 00 
       00002662 00 00 00 00 00 00 00 00 00 00 
       0000266C 00 00 00 00 00 00 00 00 00 00 
       00002676 00 00 00 00 00 00 00 00 00 00 
       00002680 00 00 00 00 00 00 00 00 00 00 
       0000268A 00 00 00 00 00 00 00 00 00 00 
       00002694 00 00 00 00 00 00 00 00 00 00 
       0000269E 00 00 00 00 00 00 00 00 00 00 
       000026A8 00 00 00 00 00 00 00 00 00 00 
       000026B2 00 00 00 00 00 00 00 00 00 00 
       000026BC 00 00 00 00 00 00 00 00 00 00 
       000026C6 00 00 00 00 00 00 00 00 00 00 
       000026D0 00 00 00 00 00 00 00 00 00 00 
       000026DA 00 00 00 00 00 00 00 00 00 00 
       000026E4 00 00 00 00 00 00 00 00 00 00 
       000026EE 00 00 00 00 00 00 00 00 00 00 
       000026F8 00 00 00 00 00 00 00 00 00 00 
       00002702 00 00 00 00 00 00 00 00 00 00 
       0000270C 00 00 00 00 00 00 00 00 00 00 
       00002716 00 00 00 00 00 00 00 00 00 00 
       00002720 00 00 00 00 00 00 00 00 00 00 
       0000272A 00 00 00 00 00 00 00 00 00 00 
       00002734 00 00 00 00 00 00 00 00 00 00 
       0000273E 00 00 00 00 00 00 00 00 00 00 
       00002748 00 00 00 00 00 00 00 00 00 00 
       00002752 00 00 00 00 00 00 00 00 00 00 
       0000275C 00 00 00 00 00 00 00 00 00 00 
       00002766 00 00 00 00 00 00 00 00 00 00 
       00002770 00 00 00 00 00 00 00 00 00 00 
       0000277A 00 00 00 00 00 00 00 00 00 00 
       00002784 00 00 00 00 00 00 00 00 00 00 
       0000278E 00 00 00 00 00 00 00 00 00 00 
       00002798 00 00 00 00 00 00 00 00 00 00 
       000027A2 00 00 00 00 00 00 00 00 00 00 
       000027AC 00 00 00 00 00 00 00 00 00 00 
       000027B6 00 00 00 00 00 00 00 00 00 00 
       000027C0 00 00 00 00 00 00 00 00 00 00 
       000027CA 00 00 00 00 00 00 00 00 00 00 
       000027D4 00 00 00 00 00 00 00 00 00 00 
       000027DE 00 00 00 00 00 00 00 00 00 00 
       000027E8 00 00 00 00 00 00 00 00 00 00 
       000027F2 00 00 00 00 00 00 00 00 00 00 
       000027FC 00 00 00 00 00 00 00 00 00 00 
       00002806 00 00 00 00 00 00 00 00 00 00 
       00002810 00 00 00 00 00 00 00 00 00 00 
       0000281A 00 00 00 00 00 00 00 00 00 00 
       00002824 00 00 00 00 00 00 00 00 00 00 
       0000282E 00 00 00 00 00 00 00 00 00 00 
       00002838 00 00 00 00 00 00 00 00 00 00 
       00002842 00 00 00 00 00 00 00 00 00 00 
       0000284C 00 00 00 00 00 00 00 00 00 00 
       00002856 00 00 00 00 00 00 00 00 00 00 
       00002860 00 00 00 00 00 00 00 00 00 00 
       0000286A 00 00 00 00 00 00 00 00 00 00 
       00002874 00 00 00 00 00 00 00 00 00 00 
       0000287E 00 00 00 00 00 00 00 00 00 00 
       00002888 00 00 00 00 00 00 00 00 00 00 
       00002892 00 00 00 00 00 00 00 00 00 00 
       0000289C 00 00 00 00 00 00 00 00 00 00 
       000028A6 00 00 00 00 00 00 00 00 00 00 
       000028B0 00 00 00 00 00 00 00 00 00 00 
       000028BA 00 00 00 00 00 00 00 00 00 00 
       000028C4 00 00 00 00 00 00 00 00 00 00 
       000028CE 00 00 00 00 00 00 00 00 00 00 
       000028D8 00 00 00 00 00 00 00 00 00 00 
       000028E2 00 00 00 00 00 00 00 00 00 00 
       000028EC 00 00 00 00 00 00 00 00 00 00 
       000028F6 00 00 00 00 00 00 00 00 00 00 
       00002900 00 00 00 00 00 00 00 00 00 00 
       0000290A 00 00 00 00 00 00 00 00 00 00 
       00002914 00 00 00 00 00 00 00 00 00 00 
       0000291E 00 00 00 00 00 00 00 00 00 00 
       00002928 00 00 00 00 00 00 00 00 00 00 
       00002932 00 00 00 00 00 00 00 00 00 00 
       0000293C 00 00 00 00 00 00 00 00 00 00 
       00002946 00 00 00 00 00 00 00 00 00 00 
       00002950 00 00 00 00 00 00 00 00 00 00 
       0000295A 00 00 00 00 00 00 00 00 00 00 
       00002964 00 00 00 00 00 00 00 00 00 00 
       0000296E 00 00 00 00 00 00 00 00 00 00 
       00002978 00 00 00 00 00 00 00 00 00 00 
       00002982 00 00 00 00 00 00 00 00 00 00 
       0000298C 00 00 00 00 00 00 00 00 00 00 
       00002996 00 00 00 00 00 00 00 00 00 00 
       000029A0 00 00 00 00 00 00 00 00 00 00 
       000029AA 00 00 00 00 00 00 00 00 00 00 
       000029B4 00 00 00 00 00 00 00 00 00 00 
       000029BE 00 00 00 00 00 00 00 00 00 00 
       000029C8 00 00 00 00 00 00 00 00 00 00 
       000029D2 00 00 00 00 00 00 00 00 00 00 
       000029DC 00 00 00 00 00 00 00 00 00 00 
       000029E6 00 00 00 00 00 00 00 00 00 00 
       000029F0 00 00 00 00 00 00 00 00 00 00 
       000029FA 00 00 00 00 00 00 00 00 00 00 
       00002A04 00 00 00 00 00 00 00 00 00 00 
       00002A0E 00 00 00 00 00 00 00 00 00 00 
       00002A18 00 00 00 00 00 00 00 00 00 00 
       00002A22 00 00 00 00 00 00 00 00 00 00 
       00002A2C 00 00 00 00 00 00 00 00 00 00 
       00002A36 00 00 00 00 00 00 00 00 00 00 
       00002A40 00 00 00 00 00 00 00 00 00 00 
       00002A4A 00 00 00 00 00 00 00 00 00 00 
       00002A54 00 00 00 00 00 00 00 00 00 00 
       00002A5E 00 00 00 00 00 00 00 00 00 00 
       00002A68 00 00 00 00 00 00 00 00 00 00 
       00002A72 00 00 00 00 00 00 00 00 00 00 
       00002A7C 00 00 00 00 00 00 00 00 00 00 
       00002A86 00 00 00 00 00 00 00 00 00 00 
       00002A90 00 00 00 00 00 00 00 00 00 00 
       00002A9A 00 00 00 00 00 00 00 00 00 00 
       00002AA4 00 00 00 00 00 00 00 00 00 00 
       00002AAE 00 00 00 00 00 00 00 00 00 00 
       00002AB8 00 00 00 00 00 00 00 00 00 00 
       00002AC2 00 00 00 00 00 00 00 00 00 00 
       00002ACC 00 00 00 00 00 00 00 00 00 00 
       00002AD6 00 00 00 00 00 00 00 00 00 00 
       00002AE0 00 00 00 00 00 00 00 00 00 00 
       00002AEA 00 00 00 00 00 00 00 00 00 00 
       00002AF4 00 00 00 00 00 00 00 00 00 00 
       00002AFE 00 00 00 00 00 00 00 00 00 00 
       00002B08 00 00 00 00 00 00 00 00 00 00 
       00002B12 00 00 00 00 00 00 00 00 00 00 
       00002B1C 00 00 00 00 00 00 00 00 00 00 
       00002B26 00 00 00 00 00 00 00 00 00 00 
       00002B30 00 00 00 00 00 00 00 00 00 00 
       00002B3A 00 00 00 00 00 00 00 00 00 00 
       00002B44 00 00 00 00 00 00 00 00 00 00 
       00002B4E 00 00 00 00 00 00 00 00 00 00 
       00002B58 00 00 00 00 00 00 00 00 00 00 
       00002B62 00 00 00 00 00 00 00 00 00 00 
       00002B6C 00 00 00 00 00 00 00 00 00 00 
       00002B76 00 00 00 00 00 00 00 00 00 00 
       00002B80 00 00 00 00 00 00 00 00 00 00 
       00002B8A 00 00 00 00 00 00 00 00 00 00 
       00002B94 00 00 00 00 00 00 00 00 00 00 
       00002B9E 00 00 00 00 00 00 00 00 00 00 
       00002BA8 00 00 00 00 00 00 00 00 00 00 
       00002BB2 00 00 00 00 00 00 00 00 00 00 
       00002BBC 00 00 00 00 00 00 00 00 00 00 
       00002BC6 00 00 00 00 00 00 00 00 00 00 
       00002BD0 00 00 00 00 00 00 00 00 00 00 
       00002BDA 00 00 00 00 00 00 00 00 00 00 
       00002BE4 00 00 00 00 00 00 00 00 00 00 
       00002BEE 00 00 00 00 00 00 00 00 00 00 
       00002BF8 00 00 00 00 00 00 00 00 00 00 
       00002C02 00 00 00 00 00 00 00 00 00 00 
       00002C0C 00 00 00 00 00 00 00 00 00 00 
       00002C16 00 00 00 00 00 00 00 00 00 00 
       00002C20 00 00 00 00 00 00 00 00 00 00 
       00002C2A 00 00 00 00 00 00 00 00 00 00 
       00002C34 00 00 00 00 00 00 00 00 00 00 
       00002C3E 00 00 00 00 00 00 00 00 00 00 
       00002C48 00 00 00 00 00 00 00 00 00 00 
       00002C52 00 00 00 00 00 00 00 00 00 00 
       00002C5C 00 00 00 00 00 00 00 00 00 00 
       00002C66 00 00 00 00 00 00 00 00 00 00 
       00002C70 00 00 00 00 00 00 00 00 00 00 
       00002C7A 00 00 00 00 00 00 00 00 00 00 
       00002C84 00 00 00 00 00 00 00 00 00 00 
       00002C8E 00 00 00 00 00 00 00 00 00 00 
       00002C98 00 00 00 00 00 00 00 00 00 00 
       00002CA2 00 00 00 00 00 00 00 00 00 00 
       00002CAC 00 00 00 00 00 00 00 00 00 00 
       00002CB6 00 00 00 00 00 00 00 00 00 00 
       00002CC0 00 00 00 00 00 00 00 00 00 00 
       00002CCA 00 00 00 00 00 00 00 00 00 00 
       00002CD4 00 00 00 00 00 00 00 00 00 00 
       00002CDE 00 00 00 00 00 00 00 00 00 00 
       00002CE8 00 00 00 00 00 00 00 00 00 00 
       00002CF2 00 00 00 00 00 00 00 00 00 00 
       00002CFC 00 00 00 00 00 00 00 00 00 00 
       00002D06 00 00 00 00 00 00 00 00 00 00 
       00002D10 00 00 00 00 00 00 00 00 00 00 
       00002D1A 00 00 00 00 00 00 00 00 00 00 
       00002D24 00 00 00 00 00 00 00 00 00 00 
       00002D2E 00 00 00 00 00 00 00 00 00 00 
       00002D38 00 00 00 00 00 00 00 00 00 00 
       00002D42 00 00 00 00 00 00 00 00 00 00 
       00002D4C 00 00 00 00 00 00 00 00 00 00 
       00002D56 00 00 00 00 00 00 00 00 00 00 
       00002D60 00 00 00 00 00 00 00 00 00 00 
       00002D6A 00 00 00 00 00 00 00 00 00 00 
       00002D74 00 00 00 00 00 00 00 00 00 00 
       00002D7E 00 00 00 00 00 00 00 00 00 00 
       00002D88 00 00 00 00 00 00 00 00 00 00 
       00002D92 00 00 00 00 00 00 00 00 00 00 
       00002D9C 00 00 00 00 00 00 00 00 00 00 
       00002DA6 00 00 00 00 00 00 00 00 00 00 
       00002DB0 00 00 00 00 00 00 00 00 00 00 
       00002DBA 00 00 00 00 00 00 00 00 00 00 
       00002DC4 00 00 00 00 00 00 00 00 00 00 
       00002DCE 00 00 00 00 00 00 00 00 00 00 
       00002DD8 00 00 00 00 00 00 00 00 00 00 
       00002DE2 00 00 00 00 00 00 00 00 00 00 
       00002DEC 00 00 00 00 00 00 00 00 00 00 
       00002DF6 00 00 00 00 00 00 00 00 00 00 
       00002E00 00 00 00 00 00 00 00 00 00 00 
       00002E0A 00 00 00 00 00 00 00 00 00 00 
       00002E14 00 00 00 00 00 00 00 00 00 00 
       00002E1E 00 00 00 00 00 00 00 00 00 00 
       00002E28 00 00 00 00 00 00 00 00 00 00 
       00002E32 00 00 00 00 00 00 00 00 00 00 
       00002E3C 00 00 00 00 00 00 00 00 00 00 
       00002E46 00 00 00 00 00 00 00 00 00 00 
       00002E50 00 00 00 00 00 00 00 00 00 00 
       00002E5A 00 00 00 00 00 00 00 00 00 00 
       00002E64 00 00 00 00 00 00 00 00 00 00 
       00002E6E 00 00 00 00 00 00 00 00 00 00 
       00002E78 00 00 00 00 00 00 00 00 00 00 
       00002E82 00 00 00 00 00 00 00 00 00 00 
       00002E8C 00 00 00 00 00 00 00 00 00 00 
       00002E96 00 00 00 00 00 00 00 00 00 00 
       00002EA0 00 00 00 00 00 00 00 00 00 00 
       00002EAA 00 00 00 00 00 00 00 00 00 00 
       00002EB4 00 00 00 00 00 00 00 00 00 00 
       00002EBE 00 00 00 00 00 00 00 00 00 00 
       00002EC8 00 00 00 00 00 00 00 00 00 00 
       00002ED2 00 00 00 00 00 00 00 00 00 00 
       00002EDC 00 00 00 00 00 00 00 00 00 00 
       00002EE6 00 00 00 00 00 00 00 00 00 00 
       00002EF0 00 00 00 00 00 00 00 00 00 00 
       00002EFA 00 00 00 00 00 00 00 00 00 00 
       00002F04 00 00 00 00 00 00 00 00 00 00 
       00002F0E 00 00 00 00 00 00 00 00 00 00 
       00002F18 00 00 00 00 00 00 00 00 00 00 
       00002F22 00 00 00 00 00 00 00 00 00 00 
       00002F2C 00 00 00 00 00 00 00 00 00 00 
       00002F36 00 00 00 00 00 00 00 00 00 00 
       00002F40 00 00 00 00 00 00 00 00 00 00 
       00002F4A 00 00 00 00 00 00 00 00 00 00 
       00002F54 00 00 00 00 00 00 00 00 00 00 
       00002F5E 00 00 00 00 00 00 00 00 00 00 
       00002F68 00 00 00 00 00 00 00 00 00 00 
       00002F72 00 00 00 00 00 00 00 00 00 00 
       00002F7C 00 00 00 00 00 00 00 00 00 00 
       00002F86 00 00 00 00 00 00 00 00 00 00 
       00002F90 00 00 00 00 00 00 00 00 00 00 
       00002F9A 00 00 00 00 00 00 00 00 00 00 
       00002FA4 00 00 00 00 00 00 00 00 00 00 
       00002FAE 00 00 00 00 00 00 00 00 00 00 
       00002FB8 00 00 00 00 00 00 00 00 00 00 
       00002FC2 00 00 00 00 00 00 00 00 00 00 
       00002FCC 00 00 00 00 00 00 00 00 00 00 
       00002FD6 00 00 00 00 00 00 00 00 00 00 
       00002FE0 00 00 00 00 00 00 00 00 00 00 
       00002FEA 00 00 00 00 00 00 00 00 00 00 
       00002FF4 00 00 00 00 00 00 00 00 00 00 
       00002FFE 00 00 00 00 00 00 00 00 00 00 
       00003008 00 00 00 00 00 00 00 00 00 00 
       00003012 00 00 00 00 00 00 00 00 00 00 
       0000301C 00 00 00 00 00 00 00 00 00 00 
       00003026 00 00 00 00 00 00 00 00 00 00 
       00003030 00 00 00 00 00 00 00 00 00 00 
       0000303A 00 00 00 00 00 00 00 00 00 00 
       00003044 00 00 00 00 00 00 00 00 00 00 
       0000304E 00 00 00 00 00 00 00 00 00 00 
       00003058 00 00 00 00 00 00 00 00 00 00 
       00003062 00 00 00 00 00 00 00 00 00 00 
       0000306C 00 00 00 00 00 00 00 00 00 00 
       00003076 00 00 00 00 00 00 00 00 00 00 
       00003080 00 00 00 00 00 00 00 00 00 00 
       0000308A 00 00 00 00 00 00 00 00 00 00 
       00003094 00 00 00 00 00 00 00 00 00 00 
       0000309E 00 00 00 00 00 00 00 00 00 00 
       000030A8 00 00 00 00 00 00 00 00 00 00 
       000030B2 00 00 00 00 00 00 00 00 00 00 
       000030BC 00 00 00 00 00 00 00 00 00 00 
       000030C6 00 00 00 00 00 00 00 00 00 00 
       000030D0 00 00 00 00 00 00 00 00 00 00 
       000030DA 00 00 00 00 00 00 00 00 00 00 
       000030E4 00 00 00 00 00 00 00 00 00 00 
       000030EE 00 00 00 00 00 00 00 00 00 00 
       000030F8 00 00 00 00 00 00 00 00 00 00 
       00003102 00 00 00 00 00 00 00 00 00 00 
       0000310C 00 00 00 00 00 00 00 00 00 00 
       00003116 00 00 00 00 00 00 00 00 00 00 
       00003120 00 00 00 00 00 00 00 00 00 00 
       0000312A 00 00 00 00 00 00 00 00 00 00 
       00003134 00 00 00 00 00 00 00 00 00 00 
       0000313E 00 00 00 00 00 00 00 00 00 00 
       00003148 00 00 00 00 00 00 00 00 00 00 
       00003152 00 00 00 00 00 00 00 00 00 00 
       0000315C 00 00 00 00 00 00 00 00 00 00 
       00003166 00 00 00 00 00 00 00 00 00 00 
       00003170 00 00 00 00 00 00 00 00 00 00 
       0000317A 00 00 00 00 00 00 00 00 00 00 
       00003184 00 00 00 00 00 00 00 00 00 00 
       0000318E 00 00 00 00 00 00 00 00 00 00 
       00003198 00 00 00 00 00 00 00 00 00 00 
       000031A2 00 00 00 00 00 00 00 00 00 00 
       000031AC 00 00 00 00 00 00 00 00 00 00 
       000031B6 00 00 00 00 00 00 00 00 00 00 
       000031C0 00 00 00 00 00 00 00 00 00 00 
       000031CA 00 00 00 00 00 00 00 00 00 00 
       000031D4 00 00 00 00 00 00 00 00 00 00 
       000031DE 00 00 00 00 00 00 00 00 00 00 
       000031E8 00 00 00 00 00 00 00 00 00 00 
       000031F2 00 00 00 00 00 00 00 00 00 00 
       000031FC 00 00 00 00 00 00 00 00 00 00 
       00003206 00 00 00 00 00 00 00 00 00 00 
       00003210 00 00 00 00 00 00 00 00 00 00 
       0000321A 00 00 00 00 00 00 00 00 00 00 
       00003224 00 00 00 00 00 00 00 00 00 00 
       0000322E 00 00 00 00 00 00 00 00 00 00 
       00003238 00 00 00 00 00 00 00 00 00 00 
       00003242 00 00 00 00 00 00 00 00 00 00 
       0000324C 00 00 00 00 00 00 00 00 00 00 
       00003256 00 00 00 00 00 00 00 00 00 00 
       00003260 00 00 00 00 00 00 00 00 00 00 
       0000326A 00 00 00 00 00 00 00 00 00 00 
       00003274 00 00 00 00 00 00 00 00 00 00 
       0000327E 00 00 00 00 00 00 00 00 00 00 
       00003288 00 00 00 00 00 00 00 00 00 00 
       00003292 00 00 00 00 00 00 00 00 00 00 
       0000329C 00 00 00 00 00 00 00 00 00 00 
       000032A6 00 00 00 00 00 00 00 00 00 00 
       000032B0 00 00 00 00 00 00 00 00 00 00 
       000032BA 00 00 00 00 00 00 00 00 00 00 
       000032C4 00 00 00 00 00 00 00 00 00 00 
       000032CE 00 00 00 00 00 00 00 00 00 00 
       000032D8 00 00 00 00 00 00 00 00 00 00 
       000032E2 00 00 00 00 00 00 00 00 00 00 
       000032EC 00 00 00 00 00 00 00 00 00 00 
       000032F6 00 00 00 00 00 00 00 00 00 00 
       00003300 00 00 00 00 00 00 00 00 00 00 
       0000330A 00 00 00 00 00 00 00 00 00 00 
       00003314 00 00 00 00 00 00 00 00 00 00 
       0000331E 00 00 00 00 00 00 00 00 00 00 
       00003328 00 00 00 00 00 00 00 00 00 00 
       00003332 00 00 00 00 00 00 00 00 00 00 
       0000333C 00 00 00 00 00 00 00 00 00 00 
       00003346 00 00 00 00 00 00 00 00 00 00 
       00003350 00 00 00 00 00 00 00 00 00 00 
       0000335A 00 00 00 00 00 00 00 00 00 00 
       00003364 00 00 00 00 00 00 00 00 00 00 
       0000336E 00 00 00 00 00 00 00 00 00 00 
       00003378 00 00 00 00 00 00 00 00 00 00 
       00003382 00 00 00 00 00 00 00 00 00 00 
       0000338C 00 00 00 00 00 00 00 00 00 00 
       00003396 00 00 00 00 00 00 00 00 00 00 
       000033A0 00 00 00 00 00 00 00 00 00 00 
       000033AA 00 00 00 00 00 00 00 00 00 00 
       000033B4 00 00 00 00 00 00 00 00 00 00 
       000033BE 00 00 00 00 00 00 00 00 00 00 
       000033C8 00 00 00 00 00 00 00 00 00 00 
       000033D2 00 00 00 00 00 00 00 00 00 00 
       000033DC 00 00 00 00 00 00 00 00 00 00 
       000033E6 00 00 00 00 00 00 00 00 00 00 
       000033F0 00 00 00 00 00 00 00 00 00 00 
       000033FA 00 00 00 00 00 00 00 00 00 00 
       00003404 00 00 00 00 00 00 00 00 00 00 
       0000340E 00 00 00 00 00 00 00 00 00 00 
       00003418 00 00 00 00 00 00 00 00 00 00 
       00003422 00 00 00 00 00 00 00 00 00 00 
       0000342C 00 00 00 00 00 00 00 00 00 00 
       00003436 00 00 00 00 00 00 00 00 00 00 
       00003440 00 00 00 00 00 00 00 00 00 00 
       0000344A 00 00 00 00 00 00 00 00 00 00 
       00003454 00 00 00 00 00 00 00 00 00 00 
       0000345E 00 00 00 00 00 00 00 00 00 00 
       00003468 00 00 00 00 00 00 00 00 00 00 
       00003472 00 00 00 00 00 00 00 00 00 00 
       0000347C 00 00 00 00 00 00 00 00 00 00 
       00003486 00 00 00 00 00 00 00 00 00 00 
       00003490 00 00 00 00 00 00 00 00 00 00 
       0000349A 00 00 00 00 00 00 00 00 00 00 
       000034A4 00 00 00 00 00 00 00 00 00 00 
       000034AE 00 00 00 00 00 00 00 00 00 00 
       000034B8 00 00 00 00 00 00 00 00 00 00 
       000034C2 00 00 00 00 00 00 00 00 00 00 
       000034CC 00 00 00 00 00 00 00 00 00 00 
       000034D6 00 00 00 00 00 00 00 00 00 00 
       000034E0 00 00 00 00 00 00 00 00 00 00 
       000034EA 00 00 00 00 00 00 00 00 00 00 
       000034F4 00 00 00 00 00 00 00 00 00 00 
       000034FE 00 00 00 00 00 00 00 00 00 00 
       00003508 00 00 00 00 00 00 00 00 00 00 
       00003512 00 00 00 00 00 00 00 00 00 00 
       0000351C 00 00 00 00 00 00 00 00 00 00 
       00003526 00 00 00 00 00 00 00 00 00 00 
       00003530 00 00 00 00 00 00 00 00 00 00 
       0000353A 00 00 00 00 00 00 00 00 00 00 
       00003544 00 00 00 00 00 00 00 00 00 00 
       0000354E 00 00 00 00 00 00 00 00 00 00 
       00003558 00 00 00 00 00 00 00 00 00 00 
       00003562 00 00 00 00 00 00 00 00 00 00 
       0000356C 00 00 00 00 00 00 00 00 00 00 
       00003576 00 00 00 00 00 00 00 00 00 00 
       00003580 00 00 00 00 00 00 00 00 00 00 
       0000358A 00 00 00 00 00 00 00 00 00 00 
       00003594 00 00 00 00 00 00 00 00 00 00 
       0000359E 00 00 00 00 00 00 00 00 00 00 
       000035A8 00 00 00 00 00 00 00 00 00 00 
       000035B2 00 00 00 00 00 00 00 00 00 00 
       000035BC 00 00 00 00 00 00 00 00 00 00 
       000035C6 00 00 00 00 00 00 00 00 00 00 
       000035D0 00 00 00 00 00 00 00 00 00 00 
       000035DA 00 00 00 00 00 00 00 00 00 00 
       000035E4 00 00 00 00 00 00 00 00 00 00 
       000035EE 00 00 00 00 00 00 00 00 00 00 
       000035F8 00 00 00 00 00 00 00 00 00 00 
       00003602 00 00 00 00 00 00 00 00 00 00 
       0000360C 00 00 00 00 00 00 00 00 00 00 
       00003616 00 00 00 00 00 00 00 00 00 00 
       00003620 00 00 00 00 00 00 00 00 00 00 
       0000362A 00 00 00 00 00 00 00 00 00 00 
       00003634 00 00 00 00 00 00 00 00 00 00 
       0000363E 00 00 00 00 00 00 00 00 00 00 
       00003648 00 00 00 00 00 00 00 00 00 00 
       00003652 00 00 00 00 00 00 00 00 00 00 
       0000365C 00 00 00 00 00 00 00 00 00 00 
       00003666 00 00 00 00 00 00 00 00 00 00 
       00003670 00 00 00 00 00 00 00 00 00 00 
       0000367A 00 00 00 00 00 00 00 00 00 00 
       00003684 00 00 00 00 00 00 00 00 00 00 
       0000368E 00 00 00 00 00 00 00 00 00 00 
       00003698 00 00 00 00 00 00 00 00 00 00 
       000036A2 00 00 00 00 00 00 00 00 00 00 
       000036AC 00 00 00 00 00 00 00 00 00 00 
       000036B6 00 00 00 00 00 00 00 00 00 00 
       000036C0 00 00 00 00 00 00 00 00 00 00 
       000036CA 00 00 00 00 00 00 00 00 00 00 
       000036D4 00 00 00 00 00 00 00 00 00 00 
       000036DE 00 00 00 00 00 00 00 00 00 00 
       000036E8 00 00 00 00 00 00 00 00 00 00 
       000036F2 00 00 00 00 00 00 00 00 00 00 
       000036FC 00 00 00 00 00 00 00 00 00 00 
       00003706 00 00 00 00 00 00 00 00 00 00 
       00003710 00 00 00 00 00 00 00 00 00 00 
       0000371A 00 00 00 00 00 00 00 00 00 00 
       00003724 00 00 00 00 00 00 00 00 00 00 
       0000372E 00 00 00 00 00 00 00 00 00 00 
       00003738 00 00 00 00 00 00 00 00 00 00 
       00003742 00 00 00 00 00 00 00 00 00 00 
       0000374C 00 00 00 00 00 00 00 00 00 00 
       00003756 00 00 00 00 00 00 00 00 00 00 
       00003760 00 00 00 00 00 00 00 00 00 00 
       0000376A 00 00 00 00 00 00 00 00 00 00 
       00003774 00 00 00 00 00 00 00 00 00 00 
       0000377E 00 00 00 00 00 00 00 00 00 00 
       00003788 00 00 00 00 00 00 00 00 00 00 
       00003792 00 00 00 00 00 00 00 00 00 00 
       0000379C 00 00 00 00 00 00 00 00 00 00 
       000037A6 00 00 00 00 00 00 00 00 00 00 
       000037B0 00 00 00 00 00 00 00 00 00 00 
       000037BA 00 00 00 00 00 00 00 00 00 00 
       000037C4 00 00 00 00 00 00 00 00 00 00 
       000037CE 00 00 00 00 00 00 00 00 00 00 
       000037D8 00 00 00 00 00 00 00 00 00 00 
       000037E2 00 00 00 00 00 00 00 00 00 00 
       000037EC 00 00 00 00 00 00 00 00 00 00 
       000037F6 00 00 00 00 00 00 00 00 00 00 
       00003800 00 00 00 00 00 00 00 00 00 00 
       0000380A 00 00 00 00 00 00 00 00 00 00 
       00003814 00 00 00 00 00 00 00 00 00 00 
       0000381E 00 00 00 00 00 00 00 00 00 00 
       00003828 00 00 00 00 00 00 00 00 00 00 
       00003832 00 00 00 00 00 00 00 00 00 00 
       0000383C 00 00 00 00 00 00 00 00 00 00 
       00003846 00 00 00 00 00 00 00 00 00 00 
       00003850 00 00 00 00 00 00 00 00 00 00 
       0000385A 00 00 00 00 00 00 00 00 00 00 
       00003864 00 00 00 00 00 00 00 00 00 00 
       0000386E 00 00 00 00 00 00 00 00 00 00 
       00003878 00 00 00 00 00 00 00 00 00 00 
       00003882 00 00 00 00 00 00 00 00 00 00 
       0000388C 00 00 00 00 00 00 00 00 00 00 
       00003896 00 00 00 00 00 00 00 00 00 00 
       000038A0 00 00 00 00 00 00 00 00 00 00 
       000038AA 00 00 00 00 00 00 00 00 00 00 
       000038B4 00 00 00 00 00 00 00 00 00 00 
       000038BE 00 00 00 00 00 00 00 00 00 00 
       000038C8 00 00 00 00 00 00 00 00 00 00 
       000038D2 00 00 00 00 00 00 00 00 00 00 
       000038DC 00 00 00 00 00 00 00 00 00 00 
       000038E6 00 00 00 00 00 00 00 00 00 00 
       000038F0 00 00 00 00 00 00 00 00 00 00 
       000038FA 00 00 00 00 00 00 00 00 00 00 
       00003904 00 00 00 00 00 00 00 00 00 00 
       0000390E 00 00 00 00 00 00 00 00 00 00 
       00003918 00 00 00 00 00 00 00 00 00 00 
       00003922 00 00 00 00 00 00 00 00 00 00 
       0000392C 00 00 00 00 00 00 00 00 00 00 
       00003936 00 00 00 00 00 00 00 00 00 00 
       00003940 00 00 00 00 00 00 00 00 00 00 
       0000394A 00 00 00 00 00 00 00 00 00 00 
       00003954 00 00 00 00 00 00 00 00 00 00 
       0000395E 00 00 00 00 00 00 00 00 00 00 
       00003968 00 00 00 00 00 00 00 00 00 00 
       00003972 00 00 00 00 00 00 00 00 00 00 
       0000397C 00 00 00 00 00 00 00 00 00 00 
       00003986 00 00 00 00 00 00 00 00 00 00 
       00003990 00 00 00 00 00 00 00 00 00 00 
       0000399A 00 00 00 00 00 00 00 00 00 00 
       000039A4 00 00 00 00 00 00 00 00 00 00 
       000039AE 00 00 00 00 00 00 00 00 00 00 
       000039B8 00 00 00 00 00 00 00 00 00 00 
       000039C2 00 00 00 00 00 00 00 00 00 00 
       000039CC 00 00 00 00 00 00 00 00 00 00 
       000039D6 00 00 00 00 00 00 00 00 00 00 
       000039E0 00 00 00 00 00 00 00 00 00 00 
       000039EA 00 00 00 00 00 00 00 00 00 00 
       000039F4 00 00 00 00 00 00 00 00 00 00 
       000039FE 00 00 00 00 00 00 00 00 00 00 
       00003A08 00 00 00 00 00 00 00 00 00 00 
       00003A12 00 00 00 00 00 00 00 00 00 00 
       00003A1C 00 00 00 00 00 00 00 00 00 00 
       00003A26 00 00 00 00 00 00 00 00 00 00 
       00003A30 00 00 00 00 00 00 00 00 00 00 
       00003A3A 00 00 00 00 00 00 00 00 00 00 
       00003A44 00 00 00 00 00 00 00 00 00 00 
       00003A4E 00 00 00 00 00 00 00 00 00 00 
       00003A58 00 00 00 00 00 00 00 00 00 00 
       00003A62 00 00 00 00 00 00 00 00 00 00 
       00003A6C 00 00 00 00 00 00 00 00 00 00 
       00003A76 00 00 00 00 00 00 00 00 00 00 
       00003A80 00 00 00 00 00 00 00 00 00 00 
       00003A8A 00 00 00 00 00 00 00 00 00 00 
       00003A94 00 00 00 00 00 00 00 00 00 00 
       00003A9E 00 00 00 00 00 00 00 00 00 00 
       00003AA8 00 00 00 00 00 00 00 00 00 00 
       00003AB2 00 00 00 00 00 00 00 00 00 00 
       00003ABC 00 00 00 00 00 00 00 00 00 00 
       00003AC6 00 00 00 00 00 00 00 00 00 00 
       00003AD0 00 00 00 00 00 00 00 00 00 00 
       00003ADA 00 00 00 00 00 00 00 00 00 00 
       00003AE4 00 00 00 00 00 00 00 00 00 00 
       00003AEE 00 00 00 00 00 00 00 00 00 00 
       00003AF8 00 00 00 00 00 00 00 00 00 00 
       00003B02 00 00 00 00 00 00 00 00 00 00 
       00003B0C 00 00 00 00 00 00 00 00 00 00 
       00003B16 00 00 00 00 00 00 00 00 00 00 
       00003B20 00 00 00 00 00 00 00 00 00 00 
       00003B2A 00 00 00 00 00 00 00 00 00 00 
       00003B34 00 00 00 00 00 00 00 00 00 00 
       00003B3E 00 00 00 00 00 00 00 00 00 00 
       00003B48 00 00 00 00 00 00 00 00 00 00 
       00003B52 00 00 00 00 00 00 00 00 00 00 
       00003B5C 00 00 00 00 00 00 00 00 00 00 
       00003B66 00 00 00 00 00 00 00 00 00 00 
       00003B70 00 00 00 00 00 00 00 00 00 00 
       00003B7A 00 00 00 00 00 00 00 00 00 00 
       00003B84 00 00 00 00 00 00 00 00 00 00 
       00003B8E 00 00 00 00 00 00 00 00 00 00 
       00003B98 00 00 00 00 00 00 00 00 00 00 
       00003BA2 00 00 00 00 00 00 00 00 00 00 
       00003BAC 00 00 00 00 00 00 00 00 00 00 
       00003BB6 00 00 00 00 00 00 00 00 00 00 
       00003BC0 00 00 00 00 00 00 00 00 00 00 
       00003BCA 00 00 00 00 00 00 00 00 00 00 
       00003BD4 00 00 00 00 00 00 00 00 00 00 
       00003BDE 00 00 00 00 00 00 00 00 00 00 
       00003BE8 00 00 00 00 00 00 00 00 00 00 
       00003BF2 00 00 00 00 00 00 00 00 00 00 
       00003BFC 00 00 00 00 00 00 00 00 00 00 
       00003C06 00 00 00 00 00 00 00 00 00 00 
       00003C10 00 00 00 00 00 00 00 00 00 00 
       00003C1A 00 00 00 00 00 00 00 00 00 00 
       00003C24 00 00 00 00 00 00 00 00 00 00 
       00003C2E 00 00 00 00 00 00 00 00 00 00 
       00003C38 00 00 00 00 00 00 00 00 00 00 
       00003C42 00 00 00 00 00 00 00 00 00 00 
       00003C4C 00 00 00 00 00 00 00 00 00 00 
       00003C56 00 00 00 00 00 00 00 00 00 00 
       00003C60 00 00 00 00 00 00 00 00 00 00 
       00003C6A 00 00 00 00 00 00 00 00 00 00 
       00003C74 00 00 00 00 00 00 00 00 00 00 
       00003C7E 00 00 00 00 00 00 00 00 00 00 
       00003C88 00 00 00 00 00 00 00 00 00 00 
       00003C92 00 00 00 00 00 00 00 00 00 00 
       00003C9C 00 00 00 00 00 00 00 00 00 00 
       00003CA6 00 00 00 00 00 00 00 00 00 00 
       00003CB0 00 00 00 00 00 00 00 00 00 00 
       00003CBA 00 00 00 00 00 00 00 00 00 00 
       00003CC4 00 00 00 00 00 00 00 00 00 00 
       00003CCE 00 00 00 00 00 00 00 00 00 00 
       00003CD8 00 00 00 00 00 00 00 00 00 00 
       00003CE2 00 00 00 00 00 00 00 00 00 00 
       00003CEC 00 00 00 00 00 00 00 00 00 00 
       00003CF6 00 00 00 00 00 00 00 00 00 00 
       00003D00 00 00 00 00 00 00 00 00 00 00 
       00003D0A 00 00 00 00 00 00 00 00 00 00 
       00003D14 00 00 00 00 00 00 00 00 00 00 
       00003D1E 00 00 00 00 00 00 00 00 00 00 
       00003D28 00 00 00 00 00 00 00 00 00 00 
       00003D32 00 00 00 00 00 00 00 00 00 00 
       00003D3C 00 00 00 00 00 00 00 00 00 00 
       00003D46 00 00 00 00 00 00 00 00 00 00 
       00003D50 00 00 00 00 00 00 00 00 00 00 
       00003D5A 00 00 00 00 00 00 00 00 00 00 
       00003D64 00 00 00 00 00 00 00 00 00 00 
       00003D6E 00 00 00 00 00 00 00 00 00 00 
       00003D78 00 00 00 00 00 00 00 00 00 00 
       00003D82 00 00 00 00 00 00 00 00 00 00 
       00003D8C 00 00 00 00 00 00 00 00 00 00 
       00003D96 00 00 00 00 00 00 00 00 00 00 
       00003DA0 00 00 00 00 00 00 00 00 00 00 
       00003DAA 00 00 00 00 00 00 00 00 00 00 
       00003DB4 00 00 00 00 00 00 00 00 00 00 
       00003DBE 00 00 00 00 00 00 00 00 00 00 
       00003DC8 00 00 00 00 00 00 00 00 00 00 
       00003DD2 00 00 00 00 00 00 00 00 00 00 
       00003DDC 00 00 00 00 00 00 00 00 00 00 
       00003DE6 00 00 00 00 00 00 00 00 00 00 
       00003DF0 00 00 00 00 00 00 00 00 00 00 
       00003DFA 00 00 00 00 00 00 00 00 00 00 
       00003E04 00 00 00 00 00 00 00 00 00 00 
       00003E0E 00 00 00 00 00 00 00 00 00 00 
       00003E18 00 00 00 00 00 00 00 00 00 00 
       00003E22 00 00 00 00 00 00 00 00 00 00 
       00003E2C 00 00 00 00 00 00 00 00 00 00 
       00003E36 00 00 00 00 00 00 00 00 00 00 
       00003E40 00 00 00 00 00 00 00 00 00 00 
       00003E4A 00 00 00 00 00 00 00 00 00 00 
       00003E54 00 00 00 00 00 00 00 00 00 00 
       00003E5E 00 00 00 00 00 00 00 00 00 00 
       00003E68 00 00 00 00 00 00 00 00 00 00 
       00003E72 00 00 00 00 00 00 00 00 00 00 
       00003E7C 00 00 00 00 00 00 00 00 00 00 
       00003E86 00 00 00 00 00 00 00 00 00 00 
       00003E90 00 00 00 00 00 00 00 00 00 00 
       00003E9A 00 00 00 00 00 00 00 00 00 00 
       00003EA4 00 00 00 00 00 00 00 00 00 00 
       00003EAE 00 00 00 00 00 00 00 00 00 00 
       00003EB8 00 00 00 00 00 00 00 00 00 00 
       00003EC2 00 00 00 00 00 00 00 00 00 00 
       00003ECC 00 00 00 00 00 00 00 00 00 00 
       00003ED6 00 00 00 00 00 00 00 00 00 00 
       00003EE0 00 00 00 00 00 00 00 00 00 00 
       00003EEA 00 00 00 00 00 00 00 00 00 00 
       00003EF4 00 00 00 00 00 00 00 00 00 00 
       00003EFE 00 00 00 00 00 00 00 00 00 00 
       00003F08 00 00 00 00 00 00 00 00 00 00 
       00003F12 00 00 00 00 00 00 00 00 00 00 
       00003F1C 00 00 00 00 00 00 00 00 00 00 
       00003F26 00 00 00 00 00 00 00 00 00 00 
       00003F30 00 00 00 00 00 00 00 00 00 00 
       00003F3A 00 00 00 00 00 00 00 00 00 00 
       00003F44 00 00 00 00 00 00 00 00 00 00 
       00003F4E 00 00 00 00 00 00 00 00 00 00 
       00003F58 00 00 00 00 00 00 00 00 00 00 
       00003F62 00 00 00 00 00 00 00 00 00 00 
       00003F6C 00 00 00 00 00 00 00 00 00 00 
       00003F76 00 00 00 00 00 00 00 00 00 00 
       00003F80 00 00 00 00 00 00 00 00 00 00 
       00003F8A 00 00 00 00 00 00 00 00 00 00 
       00003F94 00 00 00 00 00 00 00 00 00 00 
       00003F9E 00 00 00 00 00 00 00 00 00 00 
       00003FA8 00 00 00 00 00 00 00 00 00 00 
       00003FB2 00 00 00 00 00 00 00 00 00 00 
       00003FBC 00 00 00 00 00 00 00 00 00 00 
       00003FC6 00 00 00 00 00 00 00 00 00 00 
       00003FD0 00 00 00 00 00 00 00 00 00 00 
       00003FDA 00 00 00 00 00 00 00 00 00 00 
       00003FE4 00 00 00 00 00 00 00 00 00 00 
       00003FEE 00 00 00 00 00 00 00 00 00 00 
       00003FF8 00 00 00 00 00 00 00 00 00 00 
       00004002 00 00 00 00 00 00 00 00 00 00 
       0000400C 00 00 00 00 00 00 00 00 00 00 
       00004016 00 00 00 00 00 00 00 00 00 00 
       00004020 00 00 00 00 00 00 00 00 00 00 
       0000402A 00 00 00 00 00 00 00 00 00 00 
       00004034 00 00 00 00 00 00 00 00 00 00 
       0000403E 00 00 00 00 00 00 00 00 00 00 
       00004048 00 00 00 00 00 00 00 00 00 00 
       00004052 00 00 00 00 00 00 00 00 00 00 
       0000405C 00 00 00 00 00 00 00 00 00 00 
       00004066 00 00 00 00 00 00 00 00 00 00 
       00004070 00 00 00 00 00 00 00 00 00 00 
       0000407A 00 00 00 00 00 00 00 00 00 00 
       00004084 00 00 00 00 00 00 00 00 00 00 
       0000408E 00 00 00 00 00 00 00 00 00 00 
       00004098 00 00 00 00 00 00 00 00 00 00 
       000040A2 00 00 00 00 00 00 00 00 00 00 
       000040AC 00 00 00 00 00 00 00 00 00 00 
       000040B6 00 00 00 00 00 00 00 00 00 00 
       000040C0 00 00 00 00 00 00 00 00 00 00 
       000040CA 00 00 00 00 00 00 00 00 00 00 
       000040D4 00 00 00 00 00 00 00 00 00 00 
       000040DE 00 00 00 00 00 00 00 00 00 00 
       000040E8 00 00 00 00 00 00 00 00 00 00 
       000040F2 00 00 00 00 00 00 00 00 00 00 
       000040FC 00 00 00 00 00 00 00 00 00 00 
       00004106 00 00 00 00 00 00 00 00 00 00 
       00004110 00 00 00 00 00 00 00 00 00 00 
       0000411A 00 00 00 00 00 00 00 00 00 00 
       00004124 00 00 00 00 00 00 00 00 00 00 
       0000412E 00 00 00 00 00 00 00 00 00 00 
       00004138 00 00 00 00 00 00 00 00 00 00 
       00004142 00 00 00 00 00 00 00 00 00 00 
       0000414C 00 00 00 00 00 00 00 00 00 00 
       00004156 00 00 00 00 00 00 00 00 00 00 
       00004160 00 00 00 00 00 00 00 00 00 00 
       0000416A 00 00 00 00 00 00 00 00 00 00 
       00004174 00 00 00 00 00 00 00 00 00 00 
       0000417E 00 00 00 00 00 00 00 00 00 00 
       00004188 00 00 00 00 00 00 00 00 00 00 
       00004192 00 00 00 00 00 00 00 00 00 00 
       0000419C 00 00 00 00 00 00 00 00 00 00 
       000041A6 00 00 00 00 00 00 00 00 00 00 
       000041B0 00 00 00 00 00 00 00 00 00 00 
       000041BA 00 00 00 00 00 00 00 00 00 00 
       000041C4 00 00 00 00 00 00 00 00 00 00 
       000041CE 00 00 00 00 00 00 00 00 00 00 
       000041D8 00 00 00 00 00 00 00 00 00 00 
       000041E2 00 00 00 00 00 00 00 00 00 00 
       000041EC 00 00 00 00 00 00 00 00 00 00 
       000041F6 00 00 00 00 00 00 00 00 00 00 
       00004200 00 00 00 00 00 00 00 00 00 00 
       0000420A 00 00 00 00 00 00 00 00 00 00 
       00004214 00 00 00 00 00 00 00 00 00 00 
       0000421E 00 00 00 00 00 00 00 00 00 00 
       00004228 00 00 00 00 00 00 00 00 00 00 
       00004232 00 00 00 00 00 00 00 00 00 00 
       0000423C 00 00 00 00 00 00 00 00 00 00 
       00004246 00 00 00 00 00 00 00 00 00 00 
       00004250 00 00 00 00 00 00 00 00 00 00 
       0000425A 00 00 00 00 00 00 00 00 00 00 
       00004264 00 00 00 00 00 00 00 00 00 00 
       0000426E 00 00 00 00 00 00 00 00 00 00 
       00004278 00 00 00 00 00 00 00 00 00 00 
       00004282 00 00 00 00 00 00 00 00 00 00 
       0000428C 00 00 00 00 00 00 00 00 00 00 
       00004296 00 00 00 00 00 00 00 00 00 00 
       000042A0 00 00 00 00 00 00 00 00 00 00 
       000042AA 00 00 00 00 00 00 00 00 00 00 
       000042B4 00 00 00 00 00 00 00 00 00 00 
       000042BE 00 00 00 00 00 00 00 00 00 00 
       000042C8 00 00 00 00 00 00 00 00 00 00 
       000042D2 00 00 00 00 00 00 00 00 00 00 
       000042DC 00 00 00 00 00 00 00 00 00 00 
       000042E6 00 00 00 00 00 00 00 00 00 00 
       000042F0 00 00 00 00 00 00 00 00 00 00 
       000042FA 00 00 00 00 00 00 00 00 00 00 
       00004304 00 00 00 00 00 00 00 00 00 00 
       0000430E 00 00 00 00 00 00 00 00 00 00 
       00004318 00 00 00 00 00 00 00 00 00 00 
       00004322 00 00 00 00 00 00 00 00 00 00 
       0000432C 00 00 00 00 00 00 00 00 00 00 
       00004336 00 00 00 00 00 00 00 00 00 00 
       00004340 00 00 00 00 00 00 00 00 00 00 
       0000434A 00 00 00 00 00 00 00 00 00 00 
       00004354 00 00 00 00 00 00 00 00 00 00 
       0000435E 00 00 00 00 00 00 00 00 00 00 
       00004368 00 00 00 00 00 00 00 00 00 00 
       00004372 00 00 00 00 00 00 00 00 00 00 
       0000437C 00 00 00 00 00 00 00 00 00 00 
       00004386 00 00 00 00 00 00 00 00 00 00 
       00004390 00 00 00 00 00 00 00 00 00 00 
       0000439A 00 00 00 00 00 00 00 00 00 00 
       000043A4 00 00 00 00 00 00 00 00 00 00 
       000043AE 00 00 00 00 00 00 00 00 00 00 
       000043B8 00 00 00 00 00 00 00 00 00 00 
       000043C2 00 00 00 00 00 00 00 00 00 00 
       000043CC 00 00 00 00 00 00 00 00 00 00 
       000043D6 00 00 00 00 00 00 00 00 00 00 
       000043E0 00 00 00 00 00 00 00 00 00 00 
       000043EA 00 00 00 00 00 00 00 00 00 00 
       000043F4 00 00 00 00 00 00 00 00 00 00 
       000043FE 00 00 00 00 00 00 00 00 00 00 
       00004408 00 00 00 00 00 00 00 00 00 00 
       00004412 00 00 00 00 00 00 00 00 00 00 
       0000441C 00 00 00 00 00 00 00 00 00 00 
       00004426 00 00 00 00 00 00 00 00 00 00 
       00004430 00 00 00 00 00 00 00 00 00 00 
       0000443A 00 00 00 00 00 00 00 00 00 00 
       00004444 00 00 00 00 00 00 00 00 00 00 
       0000444E 00 00 00 00 00 00 00 00 00 00 
       00004458 00 00 00 00 00 00 00 00 00 00 
       00004462 00 00 00 00 00 00 00 00 00 00 
       0000446C 00 00 00 00 00 00 00 00 00 00 
       00004476 00 00 00 00 00 00 00 00 00 00 
       00004480 00 00 00 00 00 00 00 00 00 00 
       0000448A 00 00 00 00 00 00 00 00 00 00 
       00004494 00 00 00 00 00 00 00 00 00 00 
       0000449E 00 00 00 00 00 00 00 00 00 00 
       000044A8 00 00 00 00 00 00 00 00 00 00 
       000044B2 00 00 00 00 00 00 00 00 00 00 
       000044BC 00 00 00 00 00 00 00 00 00 00 
       000044C6 00 00 00 00 00 00 00 00 00 00 
       000044D0 00 00 00 00 00 00 00 00 00 00 
       000044DA 00 00 00 00 00 00 00 00 00 00 
       000044E4 00 00 00 00 00 00 00 00 00 00 
       000044EE 00 00 00 00 00 00 00 00 00 00 
       000044F8 00 00 00 00 00 00 00 00 00 00 
       00004502 00 00 00 00 00 00 00 00 00 00 
       0000450C 00 00 00 00 00 00 00 00 00 00 
       00004516 00 00 00 00 00 00 00 00 00 00 
       00004520 00 00 00 00 00 00 00 00 00 00 
       0000452A 00 00 00 00 00 00 00 00 00 00 
       00004534 00 00 00 00 00 00 00 00 00 00 
       0000453E 00 00 00 00 00 00 00 00 00 00 
       00004548 00 00 00 00 00 00 00 00 00 00 
       00004552 00 00 00 00 00 00 00 00 00 00 
       0000455C 00 00 00 00 00 00 00 00 00 00 
       00004566 00 00 00 00 00 00 00 00 00 00 
       00004570 00 00 00 00 00 00 00 00 00 00 
       0000457A 00 00 00 00 00 00 00 00 00 00 
       00004584 00 00 00 00 00 00 00 00 00 00 
       0000458E 00 00 00 00 00 00 00 00 00 00 
       00004598 00 00 00 00 00 00 00 00 00 00 
       000045A2 00 00 00 00 00 00 00 00 00 00 
       000045AC 00 00 00 00 00 00 00 00 00 00 
       000045B6 00 00 00 00 00 00 00 00 00 00 
       000045C0 00 00 00 00 00 00 00 00 00 00 
       000045CA 00 00 00 00 00 00 00 00 00 00 
       000045D4 00 00 00 00 00 00 00 00 00 00 
       000045DE 00 00 00 00 00 00 00 00 00 00 
       000045E8 00 00 00 00 00 00 00 00 00 00 
       000045F2 00 00 00 00 00 00 00 00 00 00 
       000045FC 00 00 00 00 00 00 00 00 00 00 
       00004606 00 00 00 00 00 00 00 00 00 00 
       00004610 00 00 00 00 00 00 00 00 00 00 
       0000461A 00 00 00 00 00 00 00 00 00 00 
       00004624 00 00 00 00 00 00 00 00 00 00 
       0000462E 00 00 00 00 00 00 00 00 00 00 
       00004638 00 00 00 00 00 00 00 00 00 00 
       00004642 00 00 00 00 00 00 00 00 00 00 
       0000464C 00 00 00 00 00 00 00 00 00 00 
       00004656 00 00 00 00 00 00 00 00 00 00 
       00004660 00 00 00 00 00 00 00 00 00 00 
       0000466A 00 00 00 00 00 00 00 00 00 00 
       00004674 00 00 00 00 00 00 00 00 00 00 
       0000467E 00 00 00 00 00 00 00 00 00 00 
       00004688 00 00 00 00 00 00 00 00 00 00 
       00004692 00 00 00 00 00 00 00 00 00 00 
       0000469C 00 00 00 00 00 00 00 00 00 00 
       000046A6 00 00 00 00 00 00 00 00 00 00 
       000046B0 00 00 00 00 00 00 00 00 00 00 
       000046BA 00 00 00 00 00 00 00 00 00 00 
       000046C4 00 00 00 00 00 00 00 00 00 00 
       000046CE 00 00 00 00 00 00 00 00 00 00 
       000046D8 00 00 00 00 00 00 00 00 00 00 
       000046E2 00 00 00 00 00 00 00 00 00 00 
       000046EC 00 00 00 00 00 00 00 00 00 00 
       000046F6 00 00 00 00 00 00 00 00 00 00 
       00004700 00 00 00 00 00 00 00 00 00 00 
       0000470A 00 00 00 00 00 00 00 00 00 00 
       00004714 00 00 00 00 00 00 00 00 00 00 
       0000471E 00 00 00 00 00 00 00 00 00 00 
       00004728 00 00 00 00 00 00 00 00 00 00 
       00004732 00 00 00 00 00 00 00 00 00 00 
       0000473C 00 00 00 00 00 00 00 00 00 00 
       00004746 00 00 00 00 00 00 00 00 00 00 
       00004750 00 00 00 00 00 00 00 00 00 00 
       0000475A 00 00 00 00 00 00 00 00 00 00 
       00004764 00 00 00 00 00 00 00 00 00 00 
       0000476E 00 00 00 00 00 00 00 00 00 00 
       00004778 00 00 00 00 00 00 00 00 00 00 
       00004782 00 00 00 00 00 00 00 00 00 00 
       0000478C 00 00 00 00 00 00 00 00 00 00 
       00004796 00 00 00 00 00 00 00 00 00 00 
       000047A0 00 00 00 00 00 00 00 00 00 00 
       000047AA 00 00 00 00 00 00 00 00 00 00 
       000047B4 00 00 00 00 00 00 00 00 00 00 
       000047BE 00 00 00 00 00 00 00 00 00 00 
       000047C8 00 00 00 00 00 00 00 00 00 00 
       000047D2 00 00 00 00 00 00 00 00 00 00 
       000047DC 00 00 00 00 00 00 00 00 00 00 
       000047E6 00 00 00 00 00 00 00 00 00 00 
       000047F0 00 00 00 00 00 00 00 00 00 00 
       000047FA 00 00 00 00 00 00 00 00 00 00 
       00004804 00 00 00 00 00 00 00 00 00 00 
       0000480E 00 00 00 00 00 00 00 00 00 00 
       00004818 00 00 00 00 00 00 00 00 00 00 
       00004822 00 00 00 00 00 00 00 00 00 00 
       0000482C 00 00 00 00 00 00 00 00 00 00 
       00004836 00 00 00 00 00 00 00 00 00 00 
       00004840 00 00 00 00 00 00 00 00 00 00 
       0000484A 00 00 00 00 00 00 00 00 00 00 
       00004854 00 00 00 00 00 00 00 00 00 00 
       0000485E 00 00 00 00 00 00 00 00 00 00 
       00004868 00 00 00 00 00 00 00 00 00 00 
       00004872 00 00 00 00 00 00 00 00 00 00 
       0000487C 00 00 00 00 00 00 00 00 00 00 
       00004886 00 00 00 00 00 00 00 00 00 00 
       00004890 00 00 00 00 00 00 00 00 00 00 
       0000489A 00 00 00 00 00 00 00 00 00 00 
       000048A4 00 00 00 00 00 00 00 00 00 00 
       000048AE 00 00 00 00 00 00 00 00 00 00 
       000048B8 00 00 00 00 00 00 00 00 00 00 
       000048C2 00 00 00 00 00 00 00 00 00 00 
       000048CC 00 00 00 00 00 00 00 00 00 00 
       000048D6 00 00 00 00 00 00 00 00 00 00 
       000048E0 00 00 00 00 00 00 00 00 00 00 
       000048EA 00 00 00 00 00 00 00 00 00 00 
       000048F4 00 00 00 00 00 00 00 00 00 00 
       000048FE 00 00 00 00 00 00 00 00 00 00 
       00004908 00 00 00 00 00 00 00 00 00 00 
       00004912 00 00 00 00 00 00 00 00 00 00 
       0000491C 00 00 00 00 00 00 00 00 00 00 
       00004926 00 00 00 00 00 00 00 00 00 00 
       00004930 00 00 00 00 00 00 00 00 00 00 
       0000493A 00 00 00 00 00 00 00 00 00 00 
       00004944 00 00 00 00 00 00 00 00 00 00 
       0000494E 00 00 00 00 00 00 00 00 00 00 
       00004958 00 00 00 00 00 00 00 00 00 00 
       00004962 00 00 00 00 00 00 00 00 00 00 
       0000496C 00 00 00 00 00 00 00 00 00 00 
       00004976 00 00 00 00 00 00 00 00 00 00 
       00004980 00 00 00 00 00 00 00 00 00 00 
       0000498A 00 00 00 00 00 00 00 00 00 00 
       00004994 00 00 00 00 00 00 00 00 00 00 
       0000499E 00 00 00 00 00 00 00 00 00 00 
       000049A8 00 00 00 00 00 00 00 00 00 00 
       000049B2 00 00 00 00 00 00 00 00 00 00 
       000049BC 00 00 00 00 00 00 00 00 00 00 
       000049C6 00 00 00 00 00 00 00 00 00 00 
       000049D0 00 00 00 00 00 00 00 00 00 00 
       000049DA 00 00 00 00 00 00 00 00 00 00 
       000049E4 00 00 00 00 00 00 00 00 00 00 
       000049EE 00 00 00 00 00 00 00 00 00 00 
       000049F8 00 00 00 00 00 00 00 00 00 00 
       00004A02 00 00 00 00 00 00 00 00 00 00 
       00004A0C 00 00 00 00 00 00 00 00 00 00 
       00004A16 00 00 00 00 00 00 00 00 00 00 
       00004A20 00 00 00 00 00 00 00 00 00 00 
       00004A2A 00 00 00 00 00 00 00 00 00 00 
       00004A34 00 00 00 00 00 00 00 00 00 00 
       00004A3E 00 00 00 00 00 00 00 00 00 00 
       00004A48 00 00 00 00 00 00 00 00 00 00 
       00004A52 00 00 00 00 00 00 00 00 00 00 
       00004A5C 00 00 00 00 00 00 00 00 00 00 
       00004A66 00 00 00 00 00 00 00 00 00 00 
       00004A70 00 00 00 00 00 00 00 00 00 00 
       00004A7A 00 00 00 00 00 00 00 00 00 00 
       00004A84 00 00 00 00 00 00 00 00 00 00 
       00004A8E 00 00 00 00 00 00 00 00 00 00 
       00004A98 00 00 00 00 00 00 00 00 00 00 
       00004AA2 00 00 00 00 00 00 00 00 00 00 
       00004AAC 00 00 00 00 00 00 00 00 00 00 
       00004AB6 00 00 00 00 00 00 00 00 00 00 
       00004AC0 00 00 00 00 00 00 00 00 00 00 
       00004ACA 00 00 00 00 00 00 00 00 00 00 
       00004AD4 00 00 00 00 00 00 00 00 00 00 
       00004ADE 00 00 00 00 00 00 00 00 00 00 
       00004AE8 00 00 00 00 00 00 00 00 00 00 
       00004AF2 00 00 00 00 00 00 00 00 00 00 
       00004AFC 00 00 00 00 00 00 00 00 00 00 
       00004B06 00 00 00 00 00 00 00 00 00 00 
       00004B10 00 00 00 00 00 00 00 00 00 00 
       00004B1A 00 00 00 00 00 00 00 00 00 00 
       00004B24 00 00 00 00 00 00 00 00 00 00 
       00004B2E 00 00 00 00 00 00 00 00 00 00 
       00004B38 00 00 00 00 00 00 00 00 00 00 
       00004B42 00 00 00 00 00 00 00 00 00 00 
       00004B4C 00 00 00 00 00 00 00 00 00 00 
       00004B56 00 00 00 00 00 00 00 00 00 00 
       00004B60 00 00 00 00 00 00 00 00 00 00 
       00004B6A 00 00 00 00 00 00 00 00 00 00 
       00004B74 00 00 00 00 00 00 00 00 00 00 
       00004B7E 00 00 00 00 00 00 00 00 00 00 
       00004B88 00 00 00 00 00 00 00 00 00 00 
       00004B92 00 00 00 00 00 00 00 00 00 00 
       00004B9C 00 00 00 00 00 00 00 00 00 00 
       00004BA6 00 00 00 00 00 00 00 00 00 00 
       00004BB0 00 00 00 00 00 00 00 00 00 00 
       00004BBA 00 00 00 00 00 00 00 00 00 00 
       00004BC4 00 00 00 00 00 00 00 00 00 00 
       00004BCE 00 00 00 00 00 00 00 00 00 00 
       00004BD8 00 00 00 00 00 00 00 00 00 00 
       00004BE2 00 00 00 00 00 00 00 00 00 00 
       00004BEC 00 00 00 00 00 00 00 00 00 00 
       00004BF6 00 00 00 00 00 00 00 00 00 00 
       00004C00 00 00 00 00 00 00 00 00 00 00 
       00004C0A 00 00 00 00 00 00 00 00 00 00 
       00004C14 00 00 00 00 00 00 00 00 00 00 
       00004C1E 00 00 00 00 00 00 00 00 00 00 
       00004C28 00 00 00 00 00 00 00 00 00 00 
       00004C32 00 00 00 00 00 00 00 00 00 00 
       00004C3C 00 00 00 00 00 00 00 00 00 00 
       00004C46 00 00 00 00 00 00 00 00 00 00 
       00004C50 00 00 00 00 00 00 00 00 00 00 
       00004C5A 00 00 00 00 00 00 00 00 00 00 
       00004C64 00 00 00 00 00 00 00 00 00 00 
       00004C6E 00 00 00 00 00 00 00 00 00 00 
       00004C78 00 00 00 00 00 00 00 00 00 00 
       00004C82 00 00 00 00 00 00 00 00 00 00 
       00004C8C 00 00 00 00 00 00 00 00 00 00 
       00004C96 00 00 00 00 00 00 00 00 00 00 
       00004CA0 00 00 00 00 00 00 00 00 00 00 
       00004CAA 00 00 00 00 00 00 00 00 00 00 
       00004CB4 00 00 00 00 00 00 00 00 00 00 
       00004CBE 00 00 00 00 00 00 00 00 00 00 
       00004CC8 00 00 00 00 00 00 00 00 00 00 
       00004CD2 00 00 00 00 00 00 00 00 00 00 
       00004CDC 00 00 00 00 00 00 00 00 00 00 
       00004CE6 00 00 00 00 00 00 00 00 00 00 
       00004CF0 00 00 00 00 00 00 00 00 00 00 
       00004CFA 00 00 00 00 00 00 00 00 00 00 
       00004D04 00 00 00 00 00 00 00 00 00 00 
       00004D0E 00 00 00 00 00 00 00 00 00 00 
       00004D18 00 00 00 00 00 00 00 00 00 00 
       00004D22 00 00 00 00 00 00 00 00 00 00 
       00004D2C 00 00 00 00 00 00 00 00 00 00 
       00004D36 00 00 00 00 00 00 00 00 00 00 
       00004D40 00 00 00 00 00 00 00 00 00 00 
       00004D4A 00 00 00 00 00 00 00 00 00 00 
       00004D54 00 00 00 00 00 00 00 00 00 00 
       00004D5E 00 00 00 00 00 00 00 00 00 00 
       00004D68 00 00 00 00 00 00 00 00 00 00 
       00004D72 00 00 00 00 00 00 00 00 00 00 
       00004D7C 00 00 00 00 00 00 00 00 00 00 
       00004D86 00 00 00 00 00 00 00 00 00 00 
       00004D90 00 00 00 00 00 00 00 00 00 00 
       00004D9A 00 00 00 00 00 00 00 00 00 00 
       00004DA4 00 00 00 00 00 00 00 00 00 00 
       00004DAE 00 00 00 00 00 00 00 00 00 00 
       00004DB8 00 00 00 00 00 00 00 00 00 00 
       00004DC2 00 00 00 00 00 00 00 00 00 00 
       00004DCC 00 00 00 00 00 00 00 00 00 00 
       00004DD6 00 00 00 00 00 00 00 00 00 00 
       00004DE0 00 00 00 00 00 00 00 00 00 00 
       00004DEA 00 00 00 00 00 00 00 00 00 00 
       00004DF4 00 00 00 00 00 00 00 00 00 00 
       00004DFE 00 00 00 00 00 00 00 00 00 00 
       00004E08 00 00 00 00 00 00 00 00 00 00 
       00004E12 00 00 00 00 00 00 00 00 00 00 
       00004E1C 00 00 00 00 00 00 00 00 00 00 
       00004E26 00 00 00 00 00 00 00 00 00 00 
       00004E30 00 00 00 00 00 00 00 00 00 00 
       00004E3A 00 00 00 00 00 00 00 00 00 00 
       00004E44 00 00 00 00 00 00 00 00 00 00 
       00004E4E 00 00 00 00 00 00 00 00 00 00 
       00004E58 00 00 00 00 00 00 00 00 00 00 
       00004E62 00 00 00 00 00 00 00 00 00 00 
       00004E6C 00 00 00 00 00 00 00 00 00 00 
       00004E76 00 00 00 00 00 00 00 00 00 00 
       00004E80 00 00 00 00 00 00 00 00 00 00 
       00004E8A 00 00 00 00 00 00 00 00 00 00 
       00004E94 00 00 00 00 00 00 00 00 00 00 
       00004E9E 00 00 00 00 00 00 00 00 00 00 
       00004EA8 00 00 00 00 00 00 00 00 00 00 
       00004EB2 00 00 00 00 00 00 00 00 00 00 
       00004EBC 00 00 00 00 00 00 00 00 00 00 
       00004EC6 00 00 00 00 00 00 00 00 00 00 
       00004ED0 00 00 00 00 00 00 00 00 00 00 
       00004EDA 00 00 00 00 00 00 00 00 00 00 
       00004EE4 00 00 00 00 00 00 00 00 00 00 
       00004EEE 00 00 00 00 00 00 00 00 00 00 
       00004EF8 00 00 00 00 00 00 00 00 00 00 
       00004F02 00 00 00 00 00 00 00 00 00 00 
       00004F0C 00 00 00 00 00 00 00 00 00 00 
       00004F16 00 00 00 00 00 00 00 00 00 00 
       00004F20 00 00 00 00 00 00 00 00 00 00 
       00004F2A 00 00 00 00 00 00 00 00 00 00 
       00004F34 00 00 00 00 00 00 00 00 00 00 
       00004F3E 00 00 00 00 00 00 00 00 00 00 
       00004F48 00 00 00 00 00 00 00 00 00 00 
       00004F52 00 00 00 00 00 00 00 00 00 00 
       00004F5C 00 00 00 00 00 00 00 00 00 00 
       00004F66 00 00 00 00 00 00 00 00 00 00 
       00004F70 00 00 00 00 00 00 00 00 00 00 
       00004F7A 00 00 00 00 00 00 00 00 00 00 
       00004F84 00 00 00 00 00 00 00 00 00 00 
       00004F8E 00 00 00 00 00 00 00 00 00 00 
       00004F98 00 00 00 00 00 00 00 00 00 00 
       00004FA2 00 00 00 00 00 00 00 00 00 00 
       00004FAC 00 00 00 00 00 00 00 00 00 00 
       00004FB6 00 00 00 00 00 00 00 00 00 00 
       00004FC0 00 00 00 00 00 00 00 00 00 00 
       00004FCA 00 00 00 00 00 00 00 00 00 00 
       00004FD4 00 00 00 00 00 00 00 00 00 00 
       00004FDE 00 00 00 00 00 00 00 00 00 00 
       00004FE8 00 00 00 00 00 00 00 00 00 00 
       00004FF2 00 00 00 00 00 00 00 00 00 00 
       00004FFC 00 00 00 00 00 00 00 00 00 00 
       00005006 00 00 00 00 00 00 00 00 00 00 
       00005010 00 00 00 00 00 00 00 00 00 00 
       0000501A 00 00 00 00 00 00 00 00 00 00 
       00005024 00 00 00 00 00 00 00 00 00 00 
       0000502E 00 00 00 00 00 00 00 00 00 00 
       00005038 00 00 00 00 00 00 00 00 00 00 
       00005042 00 00 00 00 00 00 00 00 00 00 
       0000504C 00 00 00 00 00 00 00 00 00 00 
       00005056 00 00 00 00 00 00 00 00 00 00 
       00005060 00 00 00 00 00 00 00 00 00 00 
       0000506A 00 00 00 00 00 00 00 00 00 00 
       00005074 00 00 00 00 00 00 00 00 00 00 
       0000507E 00 00 00 00 00 00 00 00 00 00 
       00005088 00 00 00 00 00 00 00 00 00 00 
       00005092 00 00 00 00 00 00 00 00 00 00 
       0000509C 00 00 00 00 00 00 00 00 00 00 
       000050A6 00 00 00 00 00 00 00 00 00 00 
       000050B0 00 00 00 00 00 00 00 00 00 00 
       000050BA 00 00 00 00 00 00 00 00 00 00 
       000050C4 00 00 00 00 00 00 00 00 00 00 
       000050CE 00 00 00 00 00 00 00 00 00 00 
       000050D8 00 00 00 00 00 00 00 00 00 00 
       000050E2 00 00 00 00 00 00 00 00 00 00 
       000050EC 00 00 00 00 00 00 00 00 00 00 
       000050F6 00 00 00 00 00 00 00 00 00 00 
       00005100 00 00 00 00 00 00 00 00 00 00 
       0000510A 00 00 00 00 00 00 00 00 00 00 
       00005114 00 00 00 00 00 00 00 00 00 00 
       0000511E 00 00 00 00 00 00 00 00 00 00 
       00005128 00 00 00 00 00 00 00 00 00 00 
       00005132 00 00 00 00 00 00 00 00 00 00 
       0000513C 00 00 00 00 00 00 00 00 00 00 
       00005146 00 00 00 00 00 00 00 00 00 00 
       00005150 00 00 00 00 00 00 00 00 00 00 
       0000515A 00 00 00 00 00 00 00 00 00 00 
       00005164 00 00 00 00 00 00 00 00 00 00 
       0000516E 00 00 00 00 00 00 00 00 00 00 
       00005178 00 00 00 00 00 00 00 00 00 00 
       00005182 00 00 00 00 00 00 00 00 00 00 
       0000518C 00 00 00 00 00 00 00 00 00 00 
       00005196 00 00 00 00 00 00 00 00 00 00 
       000051A0 00 00 00 00 00 00 00 00 00 00 
       000051AA 00 00 00 00 00 00 00 00 00 00 
       000051B4 00 00 00 00 00 00 00 00 00 00 
       000051BE 00 00 00 00 00 00 00 00 00 00 
       000051C8 00 00 00 00 00 00 00 00 00 00 
       000051D2 00 00 00 00 00 00 00 00 00 00 
       000051DC 00 00 00 00 00 00 00 00 00 00 
       000051E6 00 00 00 00 00 00 00 00 00 00 
       000051F0 00 00 00 00 00 00 00 00 00 00 
       000051FA 00 00 00 00 00 00 00 00 00 00 
       00005204 00 00 00 00 00 00 00 00 00 00 
       0000520E 00 00 00 00 00 00 00 00 00 00 
       00005218 00 00 00 00 00 00 00 00 00 00 
       00005222 00 00 00 00 00 00 00 00 00 00 
       0000522C 00 00 00 00 00 00 00 00 00 00 
       00005236 00 00 00 00 00 00 00 00 00 00 
       00005240 00 00 00 00 00 00 00 00 00 00 
       0000524A 00 00 00 00 00 00 00 00 00 00 
       00005254 00 00 00 00 00 00 00 00 00 00 
       0000525E 00 00 00 00 00 00 00 00 00 00 
       00005268 00 00 00 00 00 00 00 00 00 00 
       00005272 00 00 00 00 00 00 00 00 00 00 
       0000527C 00 00 00 00 00 00 00 00 00 00 
       00005286 00 00 00 00 00 00 00 00 00 00 
       00005290 00 00 00 00 00 00 00 00 00 00 
       0000529A 00 00 00 00 00 00 00 00 00 00 
       000052A4 00 00 00 00 00 00 00 00 00 00 
       000052AE 00 00 00 00 00 00 00 00 00 00 
       000052B8 00 00 00 00 00 00 00 00 00 00 
       000052C2 00 00 00 00 00 00 00 00 00 00 
       000052CC 00 00 00 00 00 00 00 00 00 00 
       000052D6 00 00 00 00 00 00 00 00 00 00 
       000052E0 00 00 00 00 00 00 00 00 00 00 
       000052EA 00 00 00 00 00 00 00 00 00 00 
       000052F4 00 00 00 00 00 00 00 00 00 00 
       000052FE 00 00 00 00 00 00 00 00 00 00 
       00005308 00 00 00 00 00 00 00 00 00 00 
       00005312 00 00 00 00 00 00 00 00 00 00 
       0000531C 00 00 00 00 00 00 00 00 00 00 
       00005326 00 00 00 00 00 00 00 00 00 00 
       00005330 00 00 00 00 00 00 00 00 00 00 
       0000533A 00 00 00 00 00 00 00 00 00 00 
       00005344 00 00 00 00 00 00 00 00 00 00 
       0000534E 00 00 00 00 00 00 00 00 00 00 
       00005358 00 00 00 00 00 00 00 00 00 00 
       00005362 00 00 00 00 00 00 00 00 00 00 
       0000536C 00 00 00 00 00 00 00 00 00 00 
       00005376 00 00 00 00 00 00 00 00 00 00 
       00005380 00 00 00 00 00 00 00 00 00 00 
       0000538A 00 00 00 00 00 00 00 00 00 00 
       00005394 00 00 00 00 00 00 00 00 00 00 
       0000539E 00 00 00 00 00 00 00 00 00 00 
       000053A8 00 00 00 00 00 00 00 00 00 00 
       000053B2 00 00 00 00 00 00 00 00 00 00 
       000053BC 00 00 00 00 00 00 00 00 00 00 
       000053C6 00 00 00 00 00 00 00 00 00 00 
       000053D0 00 00 00 00 00 00 00 00 00 00 
       000053DA 00 00 00 00 00 00 00 00 00 00 
       000053E4 00 00 00 00 00 00 00 00 00 00 
       000053EE 00 00 00 00 00 00 00 00 00 00 
       000053F8 00 00 00 00 00 00 00 00 00 00 
       00005402 00 00 00 00 00 00 00 00 00 00 
       0000540C 00 00 00 00 00 00 00 00 00 00 
       00005416 00 00 00 00 00 00 00 00 00 00 
       00005420 00 00 00 00 00 00 00 00 00 00 
       0000542A 00 00 00 00 00 00 00 00 00 00 
       00005434 00 00 00 00 00 00 00 00 00 00 
       0000543E 00 00 00 00 00 00 00 00 00 00 
       00005448 00 00 00 00 00 00 00 00 00 00 
       00005452 00 00 00 00 00 00 00 00 00 00 
       0000545C 00 00 00 00 00 00 00 00 00 00 
       00005466 00 00 00 00 00 00 00 00 00 00 
       00005470 00 00 00 00 00 00 00 00 00 00 
       0000547A 00 00 00 00 00 00 00 00 00 00 
       00005484 00 00 00 00 00 00 00 00 00 00 
       0000548E 00 00 00 00 00 00 00 00 00 00 
       00005498 00 00 00 00 00 00 00 00 00 00 
       000054A2 00 00 00 00 00 00 00 00 00 00 
       000054AC 00 00 00 00 00 00 00 00 00 00 
       000054B6 00 00 00 00 00 00 00 00 00 00 
       000054C0 00 00 00 00 00 00 00 00 00 00 
       000054CA 00 00 00 00 00 00 00 00 00 00 
       000054D4 00 00 00 00 00 00 00 00 00 00 
       000054DE 00 00 00 00 00 00 00 00 00 00 
       000054E8 00 00 00 00 00 00 00 00 00 00 
       000054F2 00 00 00 00 00 00 00 00 00 00 
       000054FC 00 00 00 00 00 00 00 00 00 00 
       00005506 00 00 00 00 00 00 00 00 00 00 
       00005510 00 00 00 00 00 00 00 00 00 00 
       0000551A 00 00 00 00 00 00 00 00 00 00 
       00005524 00 00 00 00 00 00 00 00 00 00 
       0000552E 00 00 00 00 00 00 00 00 00 00 
       00005538 00 00 00 00 00 00 00 00 00 00 
       00005542 00 00 00 00 00 00 00 00 00 00 
       0000554C 00 00 00 00 00 00 00 00 00 00 
       00005556 00 00 00 00 00 00 00 00 00 00 
       00005560 00 00 00 00 00 00 00 00 00 00 
       0000556A 00 00 00 00 00 00 00 00 00 00 
       00005574 00 00 00 00 00 00 00 00 00 00 
       0000557E 00 00 00 00 00 00 00 00 00 00 
       00005588 00 00 00 00 00 00 00 00 00 00 
       00005592 00 00 00 00 00 00 00 00 00 00 
       0000559C 00 00 00 00 00 00 00 00 00 00 
       000055A6 00 00 00 00 00 00 00 00 00 00 
       000055B0 00 00 00 00 00 00 00 00 00 00 
       000055BA 00 00 00 00 00 00 00 00 00 00 
       000055C4 00 00 00 00 00 00 00 00 00 00 
       000055CE 00 00 00 00 00 00 00 00 00 00 
       000055D8 00 00 00 00 00 00 00 00 00 00 
       000055E2 00 00 00 00 00 00 00 00 00 00 
       000055EC 00 00 00 00 00 00 00 00 00 00 
       000055F6 00 00 00 00 00 00 00 00 00 00 
       00005600 00 00 00 00 00 00 00 00 00 00 
       0000560A 00 00 00 00 00 00 00 00 00 00 
       00005614 00 00 00 00 00 00 00 00 00 00 
       0000561E 00 00 00 00 00 00 00 00 00 00 
       00005628 00 00 00 00 00 00 00 00 00 00 
       00005632 00 00 00 00 00 00 00 00 00 00 
       0000563C 00 00 00 00 00 00 00 00 00 00 
       00005646 00 00 00 00 00 00 00 00 00 00 
       00005650 00 00 00 00 00 00 00 00 00 00 
       0000565A 00 00 00 00 00 00 00 00 00 00 
       00005664 00 00 00 00 00 00 00 00 00 00 
       0000566E 00 00 00 00 00 00 00 00 00 00 
       00005678 00 00 00 00 00 00 00 00 00 00 
       00005682 00 00 00 00 00 00 00 00 00 00 
       0000568C 00 00 00 00 00 00 00 00 00 00 
       00005696 00 00 00 00 00 00 00 00 00 00 
       000056A0 00 00 00 00 00 00 00 00 00 00 
       000056AA 00 00 00 00 00 00 00 00 00 00 
       000056B4 00 00 00 00 00 00 00 00 00 00 
       000056BE 00 00 00 00 00 00 00 00 00 00 
       000056C8 00 00 00 00 00 00 00 00 00 00 
       000056D2 00 00 00 00 00 00 00 00 00 00 
       000056DC 00 00 00 00 00 00 00 00 00 00 
       000056E6 00 00 00 00 00 00 00 00 00 00 
       000056F0 00 00 00 00 00 00 00 00 00 00 
       000056FA 00 00 00 00 00 00 00 00 00 00 
       00005704 00 00 00 00 00 00 00 00 00 00 
       0000570E 00 00 00 00 00 00 00 00 00 00 
       00005718 00 00 00 00 00 00 00 00 00 00 
       00005722 00 00 00 00 00 00 00 00 00 00 
       0000572C 00 00 00 00 00 00 00 00 00 00 
       00005736 00 00 00 00 00 00 00 00 00 00 
       00005740 00 00 00 00 00 00 00 00 00 00 
       0000574A 00 00 00 00 00 00 00 00 00 00 
       00005754 00 00 00 00 00 00 00 00 00 00 
       0000575E 00 00 00 00 00 00 00 00 00 00 
       00005768 00 00 00 00 00 00 00 00 00 00 
       00005772 00 00 00 00 00 00 00 00 00 00 
       0000577C 00 00 00 00 00 00 00 00 00 00 
       00005786 00 00 00 00 00 00 00 00 00 00 
       00005790 00 00 00 00 00 00 00 00 00 00 
       0000579A 00 00 00 00 00 00 00 00 00 00 
       000057A4 00 00 00 00 00 00 00 00 00 00 
       000057AE 00 00 00 00 00 00 00 00 00 00 
       000057B8 00 00 00 00 00 00 00 00 00 00 
       000057C2 00 00 00 00 00 00 00 00 00 00 
       000057CC 00 00 00 00 00 00 00 00 00 00 
       000057D6 00 00 00 00 00 00 00 00 00 00 
       000057E0 00 00 00 00 00 00 00 00 00 00 
       000057EA 00 00 00 00 00 00 00 00 00 00 
       000057F4 00 00 00 00 00 00 00 00 00 00 
       000057FE 00 00 00 00 00 00 00 00 00 00 
       00005808 00 00 00 00 00 00 00 00 00 00 
       00005812 00 00 00 00 00 00 00 00 00 00 
       0000581C 00 00 00 00 00 00 00 00 00 00 
       00005826 00 00 00 00 00 00 00 00 00 00 
       00005830 00 00 00 00 00 00 00 00 00 00 
       0000583A 00 00 00 00 00 00 00 00 00 00 
       00005844 00 00 00 00 00 00 00 00 00 00 
       0000584E 00 00 00 00 00 00 00 00 00 00 
       00005858 00 00 00 00 00 00 00 00 00 00 
       00005862 00 00 00 00 00 00 00 00 00 00 
       0000586C 00 00 00 00 00 00 00 00 00 00 
       00005876 00 00 00 00 00 00 00 00 00 00 
       00005880 00 00 00 00 00 00 00 00 00 00 
       0000588A 00 00 00 00 00 00 00 00 00 00 
       00005894 00 00 00 00 00 00 00 00 00 00 
       0000589E 00 00 00 00 00 00 00 00 00 00 
       000058A8 00 00 00 00 00 00 00 00 00 00 
       000058B2 00 00 00 00 00 00 00 00 00 00 
       000058BC 00 00 00 00 00 00 00 00 00 00 
       000058C6 00 00 00 00 00 00 00 00 00 00 
       000058D0 00 00 00 00 00 00 00 00 00 00 
       000058DA 00 00 00 00 00 00 00 00 00 00 
       000058E4 00 00 00 00 00 00 00 00 00 00 
       000058EE 00 00 00 00 00 00 00 00 00 00 
       000058F8 00 00 00 00 00 00 00 00 00 00 
       00005902 00 00 00 00 00 00 00 00 00 00 
       0000590C 00 00 00 00 00 00 00 00 00 00 
       00005916 00 00 00 00 00 00 00 00 00 00 
       00005920 00 00 00 00 00 00 00 00 00 00 
       0000592A 00 00 00 00 00 00 00 00 00 00 
       00005934 00 00 00 00 00 00 00 00 00 00 
       0000593E 00 00 00 00 00 00 00 00 00 00 
       00005948 00 00 00 00 00 00 00 00 00 00 
       00005952 00 00 00 00 00 00 00 00 00 00 
       0000595C 00 00 00 00 00 00 00 00 00 00 
       00005966 00 00 00 00 00 00 00 00 00 00 
       00005970 00 00 00 00 00 00 00 00 00 00 
       0000597A 00 00 00 00 00 00 00 00 00 00 
       00005984 00 00 00 00 00 00 00 00 00 00 
       0000598E 00 00 00 00 00 00 00 00 00 00 
       00005998 00 00 00 00 00 00 00 00 00 00 
       000059A2 00 00 00 00 00 00 00 00 00 00 
       000059AC 00 00 00 00 00 00 00 00 00 00 
       000059B6 00 00 00 00 00 00 00 00 00 00 
       000059C0 00 00 00 00 00 00 00 00 00 00 
       000059CA 00 00 00 00 00 00 00 00 00 00 
       000059D4 00 00 00 00 00 00 00 00 00 00 
       000059DE 00 00 00 00 00 00 00 00 00 00 
       000059E8 00 00 00 00 00 00 00 00 00 00 
       000059F2 00 00 00 00 00 00 00 00 00 00 
       000059FC 00 00 00 00 00 00 00 00 00 00 
       00005A06 00 00 00 00 00 00 00 00 00 00 
       00005A10 00 00 00 00 00 00 00 00 00 00 
       00005A1A 00 00 00 00 00 00 00 00 00 00 
       00005A24 00 00 00 00 00 00 00 00 00 00 
       00005A2E 00 00 00 00 00 00 00 00 00 00 
       00005A38 00 00 00 00 00 00 00 00 00 00 
       00005A42 00 00 00 00 00 00 00 00 00 00 
       00005A4C 00 00 00 00 00 00 00 00 00 00 
       00005A56 00 00 00 00 00 00 00 00 00 00 
       00005A60 00 00 00 00 00 00 00 00 00 00 
       00005A6A 00 00 00 00 00 00 00 00 00 00 
       00005A74 00 00 00 00 00 00 00 00 00 00 
       00005A7E 00 00 00 00 00 00 00 00 00 00 
       00005A88 00 00 00 00 00 00 00 00 00 00 
       00005A92 00 00 00 00 00 00 00 00 00 00 
       00005A9C 00 00 00 00 00 00 00 00 00 00 
       00005AA6 00 00 00 00 00 00 00 00 00 00 
       00005AB0 00 00 00 00 00 00 00 00 00 00 
       00005ABA 00 00 00 00 00 00 00 00 00 00 
       00005AC4 00 00 00 00 00 00 00 00 00 00 
       00005ACE 00 00 00 00 00 00 00 00 00 00 
       00005AD8 00 00 00 00 00 00 00 00 00 00 
       00005AE2 00 00 00 00 00 00 00 00 00 00 
       00005AEC 00 00 00 00 00 00 00 00 00 00 
       00005AF6 00 00 00 00 00 00 00 00 00 00 
       00005B00 00 00 00 00 00 00 00 00 00 00 
       00005B0A 00 00 00 00 00 00 00 00 00 00 
       00005B14 00 00 00 00 00 00 00 00 00 00 
       00005B1E 00 00 00 00 00 00 00 00 00 00 
       00005B28 00 00 00 00 00 00 00 00 00 00 
       00005B32 00 00 00 00 00 00 00 00 00 00 
       00005B3C 00 00 00 00 00 00 00 00 00 00 
       00005B46 00 00 00 00 00 00 00 00 00 00 
       00005B50 00 00 00 00 00 00 00 00 00 00 
       00005B5A 00 00 00 00 00 00 00 00 00 00 
       00005B64 00 00 00 00 00 00 00 00 00 00 
       00005B6E 00 00 00 00 00 00 00 00 00 00 
       00005B78 00 00 00 00 00 00 00 00 00 00 
       00005B82 00 00 00 00 00 00 00 00 00 00 
       00005B8C 00 00 00 00 00 00 00 00 00 00 
       00005B96 00 00 00 00 00 00 00 00 00 00 
       00005BA0 00 00 00 00 00 00 00 00 00 00 
       00005BAA 00 00 00 00 00 00 00 00 00 00 
       00005BB4 00 00 00 00 00 00 00 00 00 00 
       00005BBE 00 00 00 00 00 00 00 00 00 00 
       00005BC8 00 00 00 00 00 00 00 00 00 00 
       00005BD2 00 00 00 00 00 00 00 00 00 00 
       00005BDC 00 00 00 00 00 00 00 00 00 00 
       00005BE6 00 00 00 00 00 00 00 00 00 00 
       00005BF0 00 00 00 00 00 00 00 00 00 00 
       00005BFA 00 00 00 00 00 00 00 00 00 00 
       00005C04 00 00 00 00 00 00 00 00 00 00 
       00005C0E 00 00 00 00 00 00 00 00 00 00 
       00005C18 00 00 00 00 00 00 00 00 00 00 
       00005C22 00 00 00 00 00 00 00 00 00 00 
       00005C2C 00 00 00 00 00 00 00 00 00 00 
       00005C36 00 00 00 00 00 00 00 00 00 00 
       00005C40 00 00 00 00 00 00 00 00 00 00 
       00005C4A 00 00 00 00 00 00 00 00 00 00 
       00005C54 00 00 00 00 00 00 00 00 00 00 
       00005C5E 00 00 00 00 00 00 00 00 00 00 
       00005C68 00 00 00 00 00 00 00 00 00 00 
       00005C72 00 00 00 00 00 00 00 00 00 00 
       00005C7C 00 00 00 00 00 00 00 00 00 00 
       00005C86 00 00 00 00 00 00 00 00 00 00 
       00005C90 00 00 00 00 00 00 00 00 00 00 
       00005C9A 00 00 00 00 00 00 00 00 00 00 
       00005CA4 00 00 00 00 00 00 00 00 00 00 
       00005CAE 00 00 00 00 00 00 00 00 00 00 
       00005CB8 00 00 00 00 00 00 00 00 00 00 
       00005CC2 00 00 00 00 00 00 00 00 00 00 
       00005CCC 00 00 00 00 00 00 00 00 00 00 
       00005CD6 00 00 00 00 00 00 00 00 00 00 
       00005CE0 00 00 00 00 00 00 00 00 00 00 
       00005CEA 00 00 00 00 00 00 00 00 00 00 
       00005CF4 00 00 00 00 00 00 00 00 00 00 
       00005CFE 00 00 00 00 00 00 00 00 00 00 
       00005D08 00 00 00 00 00 00 00 00 00 00 
       00005D12 00 00 00 00 00 00 00 00 00 00 
       00005D1C 00 00 00 00 00 00 00 00 00 00 
       00005D26 00 00 00 00 00 00 00 00 00 00 
       00005D30 00 00 00 00 00 00 00 00 00 00 
       00005D3A 00 00 00 00 00 00 00 00 00 00 
       00005D44 00 00 00 00 00 00 00 00 00 00 
       00005D4E 00 00 00 00 00 00 00 00 00 00 
       00005D58 00 00 00 00 00 00 00 00 00 00 
       00005D62 00 00 00 00 00 00 00 00 00 00 
       00005D6C 00 00 00 00 00 00 00 00 00 00 
       00005D76 00 00 00 00 00 00 00 00 00 00 
       00005D80 00 00 00 00 00 00 00 00 00 00 
       00005D8A 00 00 00 00 00 00 00 00 00 00 
       00005D94 00 00 00 00 00 00 00 00 00 00 
       00005D9E 00 00 00 00 00 00 00 00 00 00 
       00005DA8 00 00 00 00 00 00 00 00 00 00 
       00005DB2 00 00 00 00 00 00 00 00 00 00 
       00005DBC 00 00 00 00 00 00 00 00 00 00 
       00005DC6 00 00 00 00 00 00 00 00 00 00 
       00005DD0 00 00 00 00 00 00 00 00 00 00 
       00005DDA 00 00 00 00 00 00 00 00 00 00 
       00005DE4 00 00 00 00 00 00 00 00 00 00 
       00005DEE 00 00 00 00 00 00 00 00 00 00 
       00005DF8 00 00 00 00 00 00 00 00 00 00 
       00005E02 00 00 00 00 00 00 00 00 00 00 
       00005E0C 00 00 00 00 00 00 00 00 00 00 
       00005E16 00 00 00 00 00 00 00 00 00 00 
       00005E20 00 00 00 00 00 00 00 00 00 00 
       00005E2A 00 00 00 00 00 00 00 00 00 00 
       00005E34 00 00 00 00 00 00 00 00 00 00 
       00005E3E 00 00 00 00 00 00 00 00 00 00 
       00005E48 00 00 00 00 00 00 00 00 00 00 
       00005E52 00 00 00 00 00 00 00 00 00 00 
       00005E5C 00 00 00 00 00 00 00 00 00 00 
       00005E66 00 00 00 00 00 00 00 00 00 00 
       00005E70 00 00 00 00 00 00 00 00 00 00 
       00005E7A 00 00 00 00 00 00 00 00 00 00 
       00005E84 00 00 00 00 00 00 00 00 00 00 
       00005E8E 00 00 00 00 00 00 00 00 00 00 
       00005E98 00 00 00 00 00 00 00 00 00 00 
       00005EA2 00 00 00 00 00 00 00 00 00 00 
       00005EAC 00 00 00 00 00 00 00 00 00 00 
       00005EB6 00 00 00 00 00 00 00 00 00 00 
       00005EC0 00 00 00 00 00 00 00 00 00 00 
       00005ECA 00 00 00 00 00 00 00 00 00 00 
       00005ED4 00 00 00 00 00 00 00 00 00 00 
       00005EDE 00 00 00 00 00 00 00 00 00 00 
       00005EE8 00 00 00 00 00 00 00 00 00 00 
       00005EF2 00 00 00 00 00 00 00 00 00 00 
       00005EFC 00 00 00 00 00 00 00 00 00 00 
       00005F06 00 00 00 00 00 00 00 00 00 00 
       00005F10 00 00 00 00 00 00 00 00 00 00 
       00005F1A 00 00 00 00 00 00 00 00 00 00 
       00005F24 00 00 00 00 00 00 00 00 00 00 
       00005F2E 00 00 00 00 00 00 00 00 00 00 
       00005F38 00 00 00 00 00 00 00 00 00 00 
       00005F42 00 00 00 00 00 00 00 00 00 00 
       00005F4C 00 00 00 00 00 00 00 00 00 00 
       00005F56 00 00 00 00 00 00 00 00 00 00 
       00005F60 00 00 00 00 00 00 00 00 00 00 
       00005F6A 00 00 00 00 00 00 00 00 00 00 
       00005F74 00 00 00 00 00 00 00 00 00 00 
       00005F7E 00 00 00 00 00 00 00 00 00 00 
       00005F88 00 00 00 00 00 00 00 00 00 00 
       00005F92 00 00 00 00 00 00 00 00 00 00 
       00005F9C 00 00 00 00 00 00 00 00 00 00 
       00005FA6 00 00 00 00 00 00 00 00 00 00 
       00005FB0 00 00 00 00 00 00 00 00 00 00 
       00005FBA 00 00 00 00 00 00 00 00 00 00 
       00005FC4 00 00 00 00 00 00 00 00 00 00 
       00005FCE 00 00 00 00 00 00 00 00 00 00 
       00005FD8 00 00 00 00 00 00 00 00 00 00 
       00005FE2 00 00 00 00 00 00 00 00 00 00 
       00005FEC 00 00 00 00 00 00 00 00 00 00 
       00005FF6 00 00 00 00 00 00 00 00 00 00 
       00006000 00 00 00 00 00 00 00 00 00 00 
       0000600A 00 00 00 00 00 00 00 00 00 00 
       00006014 00 00 00 00 00 00 00 00 00 00 
       0000601E 00 00 00 00 00 00 00 00 00 00 
       00006028 00 00 00 00 00 00 00 00 00 00 
       00006032 00 00 00 00 00 00 00 00 00 00 
       0000603C 00 00 00 00 00 00 00 00 00 00 
       00006046 00 00 00 00 00 00 00 00 00 00 
       00006050 00 00 00 00 00 00 00 00 00 00 
       0000605A 00 00 00 00 00 00 00 00 00 00 
       00006064 00 00 00 00 00 00 00 00 00 00 
       0000606E 00 00 00 00 00 00 00 00 00 00 
       00006078 00 00 00 00 00 00 00 00 00 00 
       00006082 00 00 00 00 00 00 00 00 00 00 
       0000608C 00 00 00 00 00 00 00 00 00 00 
       00006096 00 00 00 00 00 00 00 00 00 00 
       000060A0 00 00 00 00 00 00 00 00 00 00 
       000060AA 00 00 00 00 00 00 00 00 00 00 
       000060B4 00 00 00 00 00 00 00 00 00 00 
       000060BE 00 00 00 00 00 00 00 00 00 00 
       000060C8 00 00 00 00 00 00 00 00 00 00 
       000060D2 00 00 00 00 00 00 00 00 00 00 
       000060DC 00 00 00 00 00 00 00 00 00 00 
       000060E6 00 00 00 00 00 00 00 00 00 00 
       000060F0 00 00 00 00 00 00 00 00 00 00 
       000060FA 00 00 00 00 00 00 00 00 00 00 
       00006104 00 00 00 00 00 00 00 00 00 00 
       0000610E 00 00 00 00 00 00 00 00 00 00 
       00006118 00 00 00 00 00 00 00 00 00 00 
       00006122 00 00 00 00 00 00 00 00 00 00 
       0000612C 00 00 00 00 00 00 00 00 00 00 
       00006136 00 00 00 00 00 00 00 00 00 00 
       00006140 00 00 00 00 00 00 00 00 00 00 
       0000614A 00 00 00 00 00 00 00 00 00 00 
       00006154 00 00 00 00 00 00 00 00 00 00 
       0000615E 00 00 00 00 00 00 00 00 00 00 
       00006168 00 00 00 00 00 00 00 00 00 00 
       00006172 00 00 00 00 00 00 00 00 00 00 
       0000617C 00 00 00 00 00 00 00 00 00 00 
       00006186 00 00 00 00 00 00 00 00 00 00 
       00006190 00 00 00 00 00 00 00 00 00 00 
       0000619A 00 00 00 00 00 00 00 00 00 00 
       000061A4 00 00 00 00 00 00 00 00 00 00 
       000061AE 00 00 00 00 00 00 00 00 00 00 
       000061B8 00 00 00 00 00 00 00 00 00 00 
       000061C2 00 00 00 00 00 00 00 00 00 00 
       000061CC 00 00 00 00 00 00 00 00 00 00 
       000061D6 00 00 00 00 00 00 00 00 00 00 
       000061E0 00 00 00 00 00 00 00 00 00 00 
       000061EA 00 00 00 00 00 00 00 00 00 00 
       000061F4 00 00 00 00 00 00 00 00 00 00 
       000061FE 00 00 00 00 00 00 00 00 00 00 
       00006208 00 00 00 00 00 00 00 00 00 00 
       00006212 00 00 00 00 00 00 00 00 00 00 
       0000621C 00 00 00 00 00 00 00 00 00 00 
       00006226 00 00 00 00 00 00 00 00 00 00 
       00006230 00 00 00 00 00 00 00 00 00 00 
       0000623A 00 00 00 00 00 00 00 00 00 00 
       00006244 00 00 00 00 00 00 00 00 00 00 
       0000624E 00 00 00 00 00 00 00 00 00 00 
       00006258 00 00 00 00 00 00 00 00 00 00 
       00006262 00 00 00 00 00 00 00 00 00 00 
       0000626C 00 00 00 00 00 00 00 00 00 00 
       00006276 00 00 00 00 00 00 00 00 00 00 
       00006280 00 00 00 00 00 00 00 00 00 00 
       0000628A 00 00 00 00 00 00 00 00 00 00 
       00006294 00 00 00 00 00 00 00 00 00 00 
       0000629E 00 00 00 00 00 00 00 00 00 00 
       000062A8 00 00 00 00 00 00 00 00 00 00 
       000062B2 00 00 00 00 00 00 00 00 00 00 
       000062BC 00 00 00 00 00 00 00 00 00 00 
       000062C6 00 00 00 00 00 00 00 00 00 00 
       000062D0 00 00 00 00 00 00 00 00 00 00 
       000062DA 00 00 00 00 00 00 00 00 00 00 
       000062E4 00 00 00 00 00 00 00 00 00 00 
       000062EE 00 00 00 00 00 00 00 00 00 00 
       000062F8 00 00 00 00 00 00 00 00 00 00 
       00006302 00 00 00 00 00 00 00 00 00 00 
       0000630C 00 00 00 00 00 00 00 00 00 00 
       00006316 00 00 00 00 00 00 00 00 00 00 
       00006320 00 00 00 00 00 00 00 00 00 00 
       0000632A 00 00 00 00 00 00 00 00 00 00 
       00006334 00 00 00 00 00 00 00 00 00 00 
       0000633E 00 00 00 00 00 00 00 00 00 00 
       00006348 00 00 00 00 00 00 00 00 00 00 
       00006352 00 00 00 00 00 00 00 00 00 00 
       0000635C 00 00 00 00 00 00 00 00 00 00 
       00006366 00 00 00 00 00 00 00 00 00 00 
       00006370 00 00 00 00 00 00 00 00 00 00 
       0000637A 00 00 00 00 00 00 00 00 00 00 
       00006384 00 00 00 00 00 00 00 00 00 00 
       0000638E 00 00 00 00 00 00 00 00 00 00 
       00006398 00 00 00 00 00 00 00 00 00 00 
       000063A2 00 00 00 00 00 00 00 00 00 00 
       000063AC 00 00 00 00 00 00 00 00 00 00 
       000063B6 00 00 00 00 00 00 00 00 00 00 
       000063C0 00 00 00 00 00 00 00 00 00 00 
       000063CA 00 00 00 00 00 00 00 00 00 00 
       000063D4 00 00 00 00 00 00 00 00 00 00 
       000063DE 00 00 00 00 00 00 00 00 00 00 
       000063E8 00 00 00 00 00 00 00 00 00 00 
       000063F2 00 00 00 00 00 00 00 00 00 00 
       000063FC 00 00 00 00 00 00 00 00 00 00 
       00006406 00 00 00 00 00 00 00 00 00 00 
       00006410 00 00 00 00 00 00 00 00 00 00 
       0000641A 00 00 00 00 00 00 00 00 00 00 
       00006424 00 00 00 00 00 00 00 00 00 00 
       0000642E 00 00 00 00 00 00 00 00 00 00 
       00006438 00 00 00 00 00 00 00 00 00 00 
       00006442 00 00 00 00 00 00 00 00 00 00 
       0000644C 00 00 00 00 00 00 00 00 00 00 
       00006456 00 00 00 00 00 00 00 00 00 00 
       00006460 00 00 00 00 00 00 00 00 00 00 
       0000646A 00 00 00 00 00 00 00 00 00 00 
       00006474 00 00 00 00 00 00 00 00 00 00 
       0000647E 00 00 00 00 00 00 00 00 00 00 
       00006488 00 00 00 00 00 00 00 00 00 00 
       00006492 00 00 00 00 00 00 00 00 00 00 
       0000649C 00 00 00 00 00 00 00 00 00 00 
       000064A6 00 00 00 00 00 00 00 00 00 00 
       000064B0 00 00 00 00 00 00 00 00 00 00 
       000064BA 00 00 00 00 00 00 00 00 00 00 
       000064C4 00 00 00 00 00 00 00 00 00 00 
       000064CE 00 00 00 00 00 00 00 00 00 00 
       000064D8 00 00 00 00 00 00 00 00 00 00 
       000064E2 00 00 00 00 00 00 00 00 00 00 
       000064EC 00 00 00 00 00 00 00 00 00 00 
       000064F6 00 00 00 00 00 00 00 00 00 00 
       00006500 00 00 00 00 00 00 00 00 00 00 
       0000650A 00 00 00 00 00 00 00 00 00 00 
       00006514 00 00 00 00 00 00 00 00 00 00 
       0000651E 00 00 00 00 00 00 00 00 00 00 
       00006528 00 00 00 00 00 00 00 00 00 00 
       00006532 00 00 00 00 00 00 00 00 00 00 
       0000653C 00 00 00 00 00 00 00 00 00 00 
       00006546 00 00 00 00 00 00 00 00 00 00 
       00006550 00 00 00 00 00 00 00 00 00 00 
       0000655A 00 00 00 00 00 00 00 00 00 00 
       00006564 00 00 00 00 00 00 00 00 00 00 
       0000656E 00 00 00 00 00 00 00 00 00 00 
       00006578 00 00 00 00 00 00 00 00 00 00 
       00006582 00 00 00 00 00 00 00 00 00 00 
       0000658C 00 00 00 00 00 00 00 00 00 00 
       00006596 00 00 00 00 00 00 00 00 00 00 
       000065A0 00 00 00 00 00 00 00 00 00 00 
       000065AA 00 00 00 00 00 00 00 00 00 00 
       000065B4 00 00 00 00 00 00 00 00 00 00 
       000065BE 00 00 00 00 00 00 00 00 00 00 
       000065C8 00 00 00 00 00 00 00 00 00 00 
       000065D2 00 00 00 00 00 00 00 00 00 00 
       000065DC 00 00 00 00 00 00 00 00 00 00 
       000065E6 00 00 00 00 00 00 00 00 00 00 
       000065F0 00 00 00 00 00 00 00 00 00 00 
       000065FA 00 00 00 00 00 00 00 00 00 00 
       00006604 00 00 00 00 00 00 00 00 00 00 
       0000660E 00 00 00 00 00 00 00 00 00 00 
       00006618 00 00 00 00 00 00 00 00 00 00 
       00006622 00 00 00 00 00 00 00 00 00 00 
       0000662C 00 00 00 00 00 00 00 00 00 00 
       00006636 00 00 00 00 00 00 00 00 00 00 
       00006640 00 00 00 00 00 00 00 00 00 00 
       0000664A 00 00 00 00 00 00 00 00 00 00 
       00006654 00 00 00 00 00 00 00 00 00 00 
       0000665E 00 00 00 00 00 00 00 00 00 00 
       00006668 00 00 00 00 00 00 00 00 00 00 
       00006672 00 00 00 00 00 00 00 00 00 00 
       0000667C 00 00 00 00 00 00 00 00 00 00 
       00006686 00 00 00 00 00 00 00 00 00 00 
       00006690 00 00 00 00 00 00 00 00 00 00 
       0000669A 00 00 00 00 00 00 00 00 00 00 
       000066A4 00 00 00 00 00 00 00 00 00 00 
       000066AE 00 00 00 00 00 00 00 00 00 00 
       000066B8 00 00 00 00 00 00 00 00 00 00 
       000066C2 00 00 00 00 00 00 00 00 00 00 
       000066CC 00 00 00 00 00 00 00 00 00 00 
       000066D6 00 00 00 00 00 00 00 00 00 00 
       000066E0 00 00 00 00 00 00 00 00 00 00 
       000066EA 00 00 00 00 00 00 00 00 00 00 
       000066F4 00 00 00 00 00 00 00 00 00 00 
       000066FE 00 00 00 00 00 00 00 00 00 00 
       00006708 00 00 00 00 00 00 00 00 00 00 
       00006712 00 00 00 00 00 00 00 00 00 00 
       0000671C 00 00 00 00 00 00 00 00 00 00 
       00006726 00 00 00 00 00 00 00 00 00 00 
       00006730 00 00 00 00 00 00 00 00 00 00 
       0000673A 00 00 00 00 00 00 00 00 00 00 
       00006744 00 00 00 00 00 00 00 00 00 00 
       0000674E 00 00 00 00 00 00 00 00 00 00 
       00006758 00 00 00 00 00 00 00 00 00 00 
       00006762 00 00 00 00 00 00 00 00 00 00 
       0000676C 00 00 00 00 00 00 00 00 00 00 
       00006776 00 00 00 00 00 00 00 00 00 00 
       00006780 00 00 00 00 00 00 00 00 00 00 
       0000678A 00 00 00 00 00 00 00 00 00 00 
       00006794 00 00 00 00 00 00 00 00 00 00 
       0000679E 00 00 00 00 00 00 00 00 00 00 
       000067A8 00 00 00 00 00 00 00 00 00 00 
       000067B2 00 00 00 00 00 00 00 00 00 00 
       000067BC 00 00 00 00 00 00 00 00 00 00 
       000067C6 00 00 00 00 00 00 00 00 00 00 
       000067D0 00 00 00 00 00 00 00 00 00 00 
       000067DA 00 00 00 00 00 00 00 00 00 00 
       000067E4 00 00 00 00 00 00 00 00 00 00 
       000067EE 00 00 00 00 00 00 00 00 00 00 
       000067F8 00 00 00 00 00 00 00 00 00 00 
       00006802 00 00 00 00 00 00 00 00 00 00 
       0000680C 00 00 00 00 00 00 00 00 00 00 
       00006816 00 00 00 00 00 00 00 00 00 00 
       00006820 00 00 00 00 00 00 00 00 00 00 
       0000682A 00 00 00 00 00 00 00 00 00 00 
       00006834 00 00 00 00 00 00 00 00 00 00 
       0000683E 00 00 00 00 00 00 00 00 00 00 
       00006848 00 00 00 00 00 00 00 00 00 00 
       00006852 00 00 00 00 00 00 00 00 00 00 
       0000685C 00 00 00 00 00 00 00 00 00 00 
       00006866 00 00 00 00 00 00 00 00 00 00 
       00006870 00 00 00 00 00 00 00 00 00 00 
       0000687A 00 00 00 00 00 00 00 00 00 00 
       00006884 00 00 00 00 00 00 00 00 00 00 
       0000688E 00 00 00 00 00 00 00 00 00 00 
       00006898 00 00 00 00 00 00 00 00 00 00 
       000068A2 00 00 00 00 00 00 00 00 00 00 
       000068AC 00 00 00 00 00 00 00 00 00 00 
       000068B6 00 00 00 00 00 00 00 00 00 00 
       000068C0 00 00 00 00 00 00 00 00 00 00 
       000068CA 00 00 00 00 00 00 00 00 00 00 
       000068D4 00 00 00 00 00 00 00 00 00 00 
       000068DE 00 00 00 00 00 00 00 00 00 00 
       000068E8 00 00 00 00 00 00 00 00 00 00 
       000068F2 00 00 00 00 00 00 00 00 00 00 
       000068FC 00 00 00 00 00 00 00 00 00 00 
       00006906 00 00 00 00 00 00 00 00 00 00 
       00006910 00 00 00 00 00 00 00 00 00 00 
       0000691A 00 00 00 00 00 00 00 00 00 00 
       00006924 00 00 00 00 00 00 00 00 00 00 
       0000692E 00 00 00 00 00 00 00 00 00 00 
       00006938 00 00 00 00 00 00 00 00 00 00 
       00006942 00 00 00 00 00 00 00 00 00 00 
       0000694C 00 00 00 00 00 00 00 00 00 00 
       00006956 00 00 00 00 00 00 00 00 00 00 
       00006960 00 00 00 00 00 00 00 00 00 00 
       0000696A 00 00 00 00 00 00 00 00 00 00 
       00006974 00 00 00 00 00 00 00 00 00 00 
       0000697E 00 00 00 00 00 00 00 00 00 00 
       00006988 00 00 00 00 00 00 00 00 00 00 
       00006992 00 00 00 00 00 00 00 00 00 00 
       0000699C 00 00 00 00 00 00 00 00 00 00 
       000069A6 00 00 00 00 00 00 00 00 00 00 
       000069B0 00 00 00 00 00 00 00 00 00 00 
       000069BA 00 00 00 00 00 00 00 00 00 00 
       000069C4 00 00 00 00 00 00 00 00 00 00 
       000069CE 00 00 00 00 00 00 00 00 00 00 
       000069D8 00 00 00 00 00 00 00 00 00 00 
       000069E2 00 00 00 00 00 00 00 00 00 00 
       000069EC 00 00 00 00 00 00 00 00 00 00 
       000069F6 00 00 00 00 00 00 00 00 00 00 
       00006A00 00 00 00 00 00 00 00 00 00 00 
       00006A0A 00 00 00 00 00 00 00 00 00 00 
       00006A14 00 00 00 00 00 00 00 00 00 00 
       00006A1E 00 00 00 00 00 00 00 00 00 00 
       00006A28 00 00 00 00 00 00 00 00 00 00 
       00006A32 00 00 00 00 00 00 00 00 00 00 
       00006A3C 00 00 00 00 00 00 00 00 00 00 
       00006A46 00 00 00 00 00 00 00 00 00 00 
       00006A50 00 00 00 00 00 00 00 00 00 00 
       00006A5A 00 00 00 00 00 00 00 00 00 00 
       00006A64 00 00 00 00 00 00 00 00 00 00 
       00006A6E 00 00 00 00 00 00 00 00 00 00 
       00006A78 00 00 00 00 00 00 00 00 00 00 
       00006A82 00 00 00 00 00 00 00 00 00 00 
       00006A8C 00 00 00 00 00 00 00 00 00 00 
       00006A96 00 00 00 00 00 00 00 00 00 00 
       00006AA0 00 00 00 00 00 00 00 00 00 00 
       00006AAA 00 00 00 00 00 00 00 00 00 00 
       00006AB4 00 00 00 00 00 00 00 00 00 00 
       00006ABE 00 00 00 00 00 00 00 00 00 00 
       00006AC8 00 00 00 00 00 00 00 00 00 00 
       00006AD2 00 00 00 00 00 00 00 00 00 00 
       00006ADC 00 00 00 00 00 00 00 00 00 00 
       00006AE6 00 00 00 00 00 00 00 00 00 00 
       00006AF0 00 00 00 00 00 00 00 00 00 00 
       00006AFA 00 00 00 00 00 00 00 00 00 00 
       00006B04 00 00 00 00 00 00 00 00 00 00 
       00006B0E 00 00 00 00 00 00 00 00 00 00 
       00006B18 00 00 00 00 00 00 00 00 00 00 
       00006B22 00 00 00 00 00 00 00 00 00 00 
       00006B2C 00 00 00 00 00 00 00 00 00 00 
       00006B36 00 00 00 00 00 00 00 00 00 00 
       00006B40 00 00 00 00 00 00 00 00 00 00 
       00006B4A 00 00 00 00 00 00 00 00 00 00 
       00006B54 00 00 00 00 00 00 00 00 00 00 
       00006B5E 00 00 00 00 00 00 00 00 00 00 
       00006B68 00 00 00 00 00 00 00 00 00 00 
       00006B72 00 00 00 00 00 00 00 00 00 00 
       00006B7C 00 00 00 00 00 00 00 00 00 00 
       00006B86 00 00 00 00 00 00 00 00 00 00 
       00006B90 00 00 00 00 00 00 00 00 00 00 
       00006B9A 00 00 00 00 00 00 00 00 00 00 
       00006BA4 00 00 00 00 00 00 00 00 00 00 
       00006BAE 00 00 00 00 00 00 00 00 00 00 
       00006BB8 00 00 00 00 00 00 00 00 00 00 
       00006BC2 00 00 00 00 00 00 00 00 00 00 
       00006BCC 00 00 00 00 00 00 00 00 00 00 
       00006BD6 00 00 00 00 00 00 00 00 00 00 
       00006BE0 00 00 00 00 00 00 00 00 00 00 
       00006BEA 00 00 00 00 00 00 00 00 00 00 
       00006BF4 00 00 00 00 00 00 00 00 00 00 
       00006BFE 00 00 00 00 00 00 00 00 00 00 
       00006C08 00 00 00 00 00 00 00 00 00 00 
       00006C12 00 00 00 00 00 00 00 00 00 00 
       00006C1C 00 00 00 00 00 00 00 00 00 00 
       00006C26 00 00 00 00 00 00 00 00 00 00 
       00006C30 00 00 00 00 00 00 00 00 00 00 
       00006C3A 00 00 00 00 00 00 00 00 00 00 
       00006C44 00 00 00 00 00 00 00 00 00 00 
       00006C4E 00 00 00 00 00 00 00 00 00 00 
       00006C58 00 00 00 00 00 00 00 00 00 00 
       00006C62 00 00 00 00 00 00 00 00 00 00 
       00006C6C 00 00 00 00 00 00 00 00 00 00 
       00006C76 00 00 00 00 00 00 00 00 00 00 
       00006C80 00 00 00 00 00 00 00 00 00 00 
       00006C8A 00 00 00 00 00 00 00 00 00 00 
       00006C94 00 00 00 00 00 00 00 00 00 00 
       00006C9E 00 00 00 00 00 00 00 00 00 00 
       00006CA8 00 00 00 00 00 00 00 00 00 00 
       00006CB2 00 00 00 00 00 00 00 00 00 00 
       00006CBC 00 00 00 00 00 00 00 00 00 00 
       00006CC6 00 00 00 00 00 00 00 00 00 00 
       00006CD0 00 00 00 00 00 00 00 00 00 00 
       00006CDA 00 00 00 00 00 00 00 00 00 00 
       00006CE4 00 00 00 00 00 00 00 00 00 00 
       00006CEE 00 00 00 00 00 00 00 00 00 00 
       00006CF8 00 00 00 00 00 00 00 00 00 00 
       00006D02 00 00 00 00 00 00 00 00 00 00 
       00006D0C 00 00 00 00 00 00 00 00 00 00 
       00006D16 00 00 00 00 00 00 00 00 00 00 
       00006D20 00 00 00 00 00 00 00 00 00 00 
       00006D2A 00 00 00 00 00 00 00 00 00 00 
       00006D34 00 00 00 00 00 00 00 00 00 00 
       00006D3E 00 00 00 00 00 00 00 00 00 00 
       00006D48 00 00 00 00 00 00 00 00 00 00 
       00006D52 00 00 00 00 00 00 00 00 00 00 
       00006D5C 00 00 00 00 00 00 00 00 00 00 
       00006D66 00 00 00 00 00 00 00 00 00 00 
       00006D70 00 00 00 00 00 00 00 00 00 00 
       00006D7A 00 00 00 00 00 00 00 00 00 00 
       00006D84 00 00 00 00 00 00 00 00 00 00 
       00006D8E 00 00 00 00 00 00 00 00 00 00 
       00006D98 00 00 00 00 00 00 00 00 00 00 
       00006DA2 00 00 00 00 00 00 00 00 00 00 
       00006DAC 00 00 00 00 00 00 00 00 00 00 
       00006DB6 00 00 00 00 00 00 00 00 00 00 
       00006DC0 00 00 00 00 00 00 00 00 00 00 
       00006DCA 00 00 00 00 00 00 00 00 00 00 
       00006DD4 00 00 00 00 00 00 00 00 00 00 
       00006DDE 00 00 00 00 00 00 00 00 00 00 
       00006DE8 00 00 00 00 00 00 00 00 00 00 
       00006DF2 00 00 00 00 00 00 00 00 00 00 
       00006DFC 00 00 00 00 00 00 00 00 00 00 
       00006E06 00 00 00 00 00 00 00 00 00 00 
       00006E10 00 00 00 00 00 00 00 00 00 00 
       00006E1A 00 00 00 00 00 00 00 00 00 00 
       00006E24 00 00 00 00 00 00 00 00 00 00 
       00006E2E 00 00 00 00 00 00 00 00 00 00 
       00006E38 00 00 00 00 00 00 00 00 00 00 
       00006E42 00 00 00 00 00 00 00 00 00 00 
       00006E4C 00 00 00 00 00 00 00 00 00 00 
       00006E56 00 00 00 00 00 00 00 00 00 00 
       00006E60 00 00 00 00 00 00 00 00 00 00 
       00006E6A 00 00 00 00 00 00 00 00 00 00 
       00006E74 00 00 00 00 00 00 00 00 00 00 
       00006E7E 00 00 00 00 00 00 00 00 00 00 
       00006E88 00 00 00 00 00 00 00 00 00 00 
       00006E92 00 00 00 00 00 00 00 00 00 00 
       00006E9C 00 00 00 00 00 00 00 00 00 00 
       00006EA6 00 00 00 00 00 00 00 00 00 00 
       00006EB0 00 00 00 00 00 00 00 00 00 00 
       00006EBA 00 00 00 00 00 00 00 00 00 00 
       00006EC4 00 00 00 00 00 00 00 00 00 00 
       00006ECE 00 00 00 00 00 00 00 00 00 00 
       00006ED8 00 00 00 00 00 00 00 00 00 00 
       00006EE2 00 00 00 00 00 00 00 00 00 00 
       00006EEC 00 00 00 00 00 00 00 00 00 00 
       00006EF6 00 00 00 00 00 00 00 00 00 00 
       00006F00 00 00 00 00 00 00 00 00 00 00 
       00006F0A 00 00 00 00 00 00 00 00 00 00 
       00006F14 00 00 00 00 00 00 00 00 00 00 
       00006F1E 00 00 00 00 00 00 00 00 00 00 
       00006F28 00 00 00 00 00 00 00 00 00 00 
       00006F32 00 00 00 00 00 00 00 00 00 00 
       00006F3C 00 00 00 00 00 00 00 00 00 00 
       00006F46 00 00 00 00 00 00 00 00 00 00 
       00006F50 00 00 00 00 00 00 00 00 00 00 
       00006F5A 00 00 00 00 00 00 00 00 00 00 
       00006F64 00 00 00 00 00 00 00 00 00 00 
       00006F6E 00 00 00 00 00 00 00 00 00 00 
       00006F78 00 00 00 00 00 00 00 00 00 00 
       00006F82 00 00 00 00 00 00 00 00 00 00 
       00006F8C 00 00 00 00 00 00 00 00 00 00 
       00006F96 00 00 00 00 00 00 00 00 00 00 
       00006FA0 00 00 00 00 00 00 00 00 00 00 
       00006FAA 00 00 00 00 00 00 00 00 00 00 
       00006FB4 00 00 00 00 00 00 00 00 00 00 
       00006FBE 00 00 00 00 00 00 00 00 00 00 
       00006FC8 00 00 00 00 00 00 00 00 00 00 
       00006FD2 00 00 00 00 00 00 00 00 00 00 
       00006FDC 00 00 00 00 00 00 00 00 00 00 
       00006FE6 00 00 00 00 00 00 00 00 00 00 
       00006FF0 00 00 00 00 00 00 00 00 00 00 
       00006FFA 00 00 00 00 00 00 00 00 00 00 
       00007004 00 00 00 00 00 00 00 00 00 00 
       0000700E 00 00 00 00 00 00 00 00 00 00 
       00007018 00 00 00 00 00 00 00 00 00 00 
       00007022 00 00 00 00 00 00 00 00 00 00 
       0000702C 00 00 00 00 00 00 00 00 00 00 
       00007036 00 00 00 00 00 00 00 00 00 00 
       00007040 00 00 00 00 00 00 00 00 00 00 
       0000704A 00 00 00 00 00 00 00 00 00 00 
       00007054 00 00 00 00 00 00 00 00 00 00 
       0000705E 00 00 00 00 00 00 00 00 00 00 
       00007068 00 00 00 00 00 00 00 00 00 00 
       00007072 00 00 00 00 00 00 00 00 00 00 
       0000707C 00 00 00 00 00 00 00 00 00 00 
       00007086 00 00 00 00 00 00 00 00 00 00 
       00007090 00 00 00 00 00 00 00 00 00 00 
       0000709A 00 00 00 00 00 00 00 00 00 00 
       000070A4 00 00 00 00 00 00 00 00 00 00 
       000070AE 00 00 00 00 00 00 00 00 00 00 
       000070B8 00 00 00 00 00 00 00 00 00 00 
       000070C2 00 00 00 00 00 00 00 00 00 00 
       000070CC 00 00 00 00 00 00 00 00 00 00 
       000070D6 00 00 00 00 00 00 00 00 00 00 
       000070E0 00 00 00 00 00 00 00 00 00 00 
       000070EA 00 00 00 00 00 00 00 00 00 00 
       000070F4 00 00 00 00 00 00 00 00 00 00 
       000070FE 00 00 00 00 00 00 00 00 00 00 
       00007108 00 00 00 00 00 00 00 00 00 00 
       00007112 00 00 00 00 00 00 00 00 00 00 
       0000711C 00 00 00 00 00 00 00 00 00 00 
       00007126 00 00 00 00 00 00 00 00 00 00 
       00007130 00 00 00 00 00 00 00 00 00 00 
       0000713A 00 00 00 00 00 00 00 00 00 00 
       00007144 00 00 00 00 00 00 00 00 00 00 
       0000714E 00 00 00 00 00 00 00 00 00 00 
       00007158 00 00 00 00 00 00 00 00 00 00 
       00007162 00 00 00 00 00 00 00 00 00 00 
       0000716C 00 00 00 00 00 00 00 00 00 00 
       00007176 00 00 00 00 00 00 00 00 00 00 
       00007180 00 00 00 00 00 00 00 00 00 00 
       0000718A 00 00 00 00 00 00 00 00 00 00 
       00007194 00 00 00 00 00 00 00 00 00 00 
       0000719E 00 00 00 00 00 00 00 00 00 00 
       000071A8 00 00 00 00 00 00 00 00 00 00 
       000071B2 00 00 00 00 00 00 00 00 00 00 
       000071BC 00 00 00 00 00 00 00 00 00 00 
       000071C6 00 00 00 00 00 00 00 00 00 00 
       000071D0 00 00 00 00 00 00 00 00 00 00 
       000071DA 00 00 00 00 00 00 00 00 00 00 
       000071E4 00 00 00 00 00 00 00 00 00 00 
       000071EE 00 00 00 00 00 00 00 00 00 00 
       000071F8 00 00 00 00 00 00 00 00 00 00 
       00007202 00 00 00 00 00 00 00 00 00 00 
       0000720C 00 00 00 00 00 00 00 00 00 00 
       00007216 00 00 00 00 00 00 00 00 00 00 
       00007220 00 00 00 00 00 00 00 00 00 00 
       0000722A 00 00 00 00 00 00 00 00 00 00 
       00007234 00 00 00 00 00 00 00 00 00 00 
       0000723E 00 00 00 00 00 00 00 00 00 00 
       00007248 00 00 00 00 00 00 00 00 00 00 
       00007252 00 00 00 00 00 00 00 00 00 00 
       0000725C 00 00 00 00 00 00 00 00 00 00 
       00007266 00 00 00 00 00 00 00 00 00 00 
       00007270 00 00 00 00 00 00 00 00 00 00 
       0000727A 00 00 00 00 00 00 00 00 00 00 
       00007284 00 00 00 00 00 00 00 00 00 00 
       0000728E 00 00 00 00 00 00 00 00 00 00 
       00007298 00 00 00 00 00 00 00 00 00 00 
       000072A2 00 00 00 00 00 00 00 00 00 00 
       000072AC 00 00 00 00 00 00 00 00 00 00 
       000072B6 00 00 00 00 00 00 00 00 00 00 
       000072C0 00 00 00 00 00 00 00 00 00 00 
       000072CA 00 00 00 00 00 00 00 00 00 00 
       000072D4 00 00 00 00 00 00 00 00 00 00 
       000072DE 00 00 00 00 00 00 00 00 00 00 
       000072E8 00 00 00 00 00 00 00 00 00 00 
       000072F2 00 00 00 00 00 00 00 00 00 00 
       000072FC 00 00 00 00 00 00 00 00 00 00 
       00007306 00 00 00 00 00 00 00 00 00 00 
       00007310 00 00 00 00 00 00 00 00 00 00 
       0000731A 00 00 00 00 00 00 00 00 00 00 
       00007324 00 00 00 00 00 00 00 00 00 00 
       0000732E 00 00 00 00 00 00 00 00 00 00 
       00007338 00 00 00 00 00 00 00 00 00 00 
       00007342 00 00 00 00 00 00 00 00 00 00 
       0000734C 00 00 00 00 00 00 00 00 00 00 
       00007356 00 00 00 00 00 00 00 00 00 00 
       00007360 00 00 00 00 00 00 00 00 00 00 
       0000736A 00 00 00 00 00 00 00 00 00 00 
       00007374 00 00 00 00 00 00 00 00 00 00 
       0000737E 00 00 00 00 00 00 00 00 00 00 
       00007388 00 00 00 00 00 00 00 00 00 00 
       00007392 00 00 00 00 00 00 00 00 00 00 
       0000739C 00 00 00 00 00 00 00 00 00 00 
       000073A6 00 00 00 00 00 00 00 00 00 00 
       000073B0 00 00 00 00 00 00 00 00 00 00 
       000073BA 00 00 00 00 00 00 00 00 00 00 
       000073C4 00 00 00 00 00 00 00 00 00 00 
       000073CE 00 00 00 00 00 00 00 00 00 00 
       000073D8 00 00 00 00 00 00 00 00 00 00 
       000073E2 00 00 00 00 00 00 00 00 00 00 
       000073EC 00 00 00 00 00 00 00 00 00 00 
       000073F6 00 00 00 00 00 00 00 00 00 00 
       00007400 00 00 00 00 00 00 00 00 00 00 
       0000740A 00 00 00 00 00 00 00 00 00 00 
       00007414 00 00 00 00 00 00 00 00 00 00 
       0000741E 00 00 00 00 00 00 00 00 00 00 
       00007428 00 00 00 00 00 00 00 00 00 00 
       00007432 00 00 00 00 00 00 00 00 00 00 
       0000743C 00 00 00 00 00 00 00 00 00 00 
       00007446 00 00 00 00 00 00 00 00 00 00 
       00007450 00 00 00 00 00 00 00 00 00 00 
       0000745A 00 00 00 00 00 00 00 00 00 00 
       00007464 00 00 00 00 00 00 00 00 00 00 
       0000746E 00 00 00 00 00 00 00 00 00 00 
       00007478 00 00 00 00 00 00 00 00 00 00 
       00007482 00 00 00 00 00 00 00 00 00 00 
       0000748C 00 00 00 00 00 00 00 00 00 00 
       00007496 00 00 00 00 00 00 00 00 00 00 
       000074A0 00 00 00 00 00 00 00 00 00 00 
       000074AA 00 00 00 00 00 00 00 00 00 00 
       000074B4 00 00 00 00 00 00 00 00 00 00 
       000074BE 00 00 00 00 00 00 00 00 00 00 
       000074C8 00 00 00 00 00 00 00 00 00 00 
       000074D2 00 00 00 00 00 00 00 00 00 00 
       000074DC 00 00 00 00 00 00 00 00 00 00 
       000074E6 00 00 00 00 00 00 00 00 00 00 
       000074F0 00 00 00 00 00 00 00 00 00 00 
       000074FA 00 00 00 00 00 00 00 00 00 00 
       00007504 00 00 00 00 00 00 00 00 00 00 
       0000750E 00 00 00 00 00 00 00 00 00 00 
       00007518 00 00 00 00 00 00 00 00 00 00 
       00007522 00 00 00 00 00 00 00 00 00 00 
       0000752C 00 00 00 00 00 00 00 00 00 00 
       00007536 00 00 00 00 00 00 00 00 00 00 
       00007540 00 00 00 00 00 00 00 00 00 00 
       0000754A 00 00 00 00 00 00 00 00 00 00 
       00007554 00 00 00 00 00 00 00 00 00 00 
       0000755E 00 00 00 00 00 00 00 00 00 00 
       00007568 00 00 00 00 00 00 00 00 00 00 
       00007572 00 00 00 00 00 00 00 00 00 00 
       0000757C 00 00 00 00 00 00 00 00 00 00 
       00007586 00 00 00 00 00 00 00 00 00 00 
       00007590 00 00 00 00 00 00 00 00 00 00 
       0000759A 00 00 00 00 00 00 00 00 00 00 
       000075A4 00 00 00 00 00 00 00 00 00 00 
       000075AE 00 00 00 00 00 00 00 00 00 00 
       000075B8 00 00 00 00 00 00 00 00 00 00 
       000075C2 00 00 00 00 00 00 00 00 00 00 
       000075CC 00 00 00 00 00 00 00 00 00 00 
       000075D6 00 00 00 00 00 00 00 00 00 00 
       000075E0 00 00 00 00 00 00 00 00 00 00 
       000075EA 00 00 00 00 00 00 00 00 00 00 
       000075F4 00 00 00 00 00 00 00 00 00 00 
       000075FE 00 00 00 00 00 00 00 00 00 00 
       00007608 00 00 00 00 00 00 00 00 00 00 
       00007612 00 00 00 00 00 00 00 00 00 00 
       0000761C 00 00 00 00 00 00 00 00 00 00 
       00007626 00 00 00 00 00 00 00 00 00 00 
       00007630 00 00 00 00 00 00 00 00 00 00 
       0000763A 00 00 00 00 00 00 00 00 00 00 
       00007644 00 00 00 00 00 00 00 00 00 00 
       0000764E 00 00 00 00 00 00 00 00 00 00 
       00007658 00 00 00 00 00 00 00 00 00 00 
       00007662 00 00 00 00 00 00 00 00 00 00 
       0000766C 00 00 00 00 00 00 00 00 00 00 
       00007676 00 00 00 00 00 00 00 00 00 00 
       00007680 00 00 00 00 00 00 00 00 00 00 
       0000768A 00 00 00 00 00 00 00 00 00 00 
       00007694 00 00 00 00 00 00 00 00 00 00 
       0000769E 00 00 00 00 00 00 00 00 00 00 
       000076A8 00 00 00 00 00 00 00 00 00 00 
       000076B2 00 00 00 00 00 00 00 00 00 00 
       000076BC 00 00 00 00 00 00 00 00 00 00 
       000076C6 00 00 00 00 00 00 00 00 00 00 
       000076D0 00 00 00 00 00 00 00 00 00 00 
       000076DA 00 00 00 00 00 00 00 00 00 00 
       000076E4 00 00 00 00 00 00 00 00 00 00 
       000076EE 00 00 00 00 00 00 00 00 00 00 
       000076F8 00 00 00 00 00 00 00 00 00 00 
       00007702 00 00 00 00 00 00 00 00 00 00 
       0000770C 00 00 00 00 00 00 00 00 00 00 
       00007716 00 00 00 00 00 00 00 00 00 00 
       00007720 00 00 00 00 00 00 00 00 00 00 
       0000772A 00 00 00 00 00 00 00 00 00 00 
       00007734 00 00 00 00 00 00 00 00 00 00 
       0000773E 00 00 00 00 00 00 00 00 00 00 
       00007748 00 00 00 00 00 00 00 00 00 00 
       00007752 00 00 00 00 00 00 00 00 00 00 
       0000775C 00 00 00 00 00 00 00 00 00 00 
       00007766 00 00 00 00 00 00 00 00 00 00 
       00007770 00 00 00 00 00 00 00 00 00 00 
       0000777A 00 00 00 00 00 00 00 00 00 00 
       00007784 00 00 00 00 00 00 00 00 00 00 
       0000778E 00 00 00 00 00 00 00 00 00 00 
       00007798 00 00 00 00 00 00 00 00 00 00 
       000077A2 00 00 00 00 00 00 00 00 00 00 
       000077AC 00 00 00 00 00 00 00 00 00 00 
       000077B6 00 00 00 00 00 00 00 00 00 00 
       000077C0 00 00 00 00 00 00 00 00 00 00 
       000077CA 00 00 00 00 00 00 00 00 00 00 
       000077D4 00 00 00 00 00 00 00 00 00 00 
       000077DE 00 00 00 00 00 00 00 00 00 00 
       000077E8 00 00 00 00 00 00 00 00 00 00 
       000077F2 00 00 00 00 00 00 00 00 00 00 
       000077FC 00 00 00 00 00 00 00 00 00 00 
       00007806 00 00 00 00 00 00 00 00 00 00 
       00007810 00 00 00 00 00 00 00 00 00 00 
       0000781A 00 00 00 00 00 00 00 00 00 00 
       00007824 00 00 00 00 00 00 00 00 00 00 
       0000782E 00 00 00 00 00 00 00 00 00 00 
       00007838 00 00 00 00 00 00 00 00 00 00 
       00007842 00 00 00 00 00 00 00 00 00 00 
       0000784C 00 00 00 00 00 00 00 00 00 00 
       00007856 00 00 00 00 00 00 00 00 00 00 
       00007860 00 00 00 00 00 00 00 00 00 00 
       0000786A 00 00 00 00 00 00 00 00 00 00 
       00007874 00 00 00 00 00 00 00 00 00 00 
       0000787E 00 00 00 00 00 00 00 00 00 00 
       00007888 00 00 00 00 00 00 00 00 00 00 
       00007892 00 00 00 00 00 00 00 00 00 00 
       0000789C 00 00 00 00 00 00 00 00 00 00 
       000078A6 00 00 00 00 00 00 00 00 00 00 
       000078B0 00 00 00 00 00 00 00 00 00 00 
       000078BA 00 00 00 00 00 00 00 00 00 00 
       000078C4 00 00 00 00 00 00 00 00 00 00 
       000078CE 00 00 00 00 00 00 00 00 00 00 
       000078D8 00 00 00 00 00 00 00 00 00 00 
       000078E2 00 00 00 00 00 00 00 00 00 00 
       000078EC 00 00 00 00 00 00 00 00 00 00 
       000078F6 00 00 00 00 00 00 00 00 00 00 
       00007900 00 00 00 00 00 00 00 00 00 00 
       0000790A 00 00 00 00 00 00 00 00 00 00 
       00007914 00 00 00 00 00 00 00 00 00 00 
       0000791E 00 00 00 00 00 00 00 00 00 00 
       00007928 00 00 00 00 00 00 00 00 00 00 
       00007932 00 00 00 00 00 00 00 00 00 00 
       0000793C 00 00 00 00 00 00 00 00 00 00 
       00007946 00 00 00 00 00 00 00 00 00 00 
       00007950 00 00 00 00 00 00 00 00 00 00 
       0000795A 00 00 00 00 00 00 00 00 00 00 
       00007964 00 00 00 00 00 00 00 00 00 00 
       0000796E 00 00 00 00 00 00 00 00 00 00 
       00007978 00 00 00 00 00 00 00 00 00 00 
       00007982 00 00 00 00 00 00 00 00 00 00 
       0000798C 00 00 00 00 00 00 00 00 00 00 
       00007996 00 00 00 00 00 00 00 00 00 00 
       000079A0 00 00 00 00 00 00 00 00 00 00 
       000079AA 00 00 00 00 00 00 00 00 00 00 
       000079B4 00 00 00 00 00 00 00 00 00 00 
       000079BE 00 00 00 00 00 00 00 00 00 00 
       000079C8 00 00 00 00 00 00 00 00 00 00 
       000079D2 00 00 00 00 00 00 00 00 00 00 
       000079DC 00 00 00 00 00 00 00 00 00 00 
       000079E6 00 00 00 00 00 00 00 00 00 00 
       000079F0 00 00 00 00 00 00 00 00 00 00 
       000079FA 00 00 00 00 00 00 00 00 00 00 
       00007A04 00 00 00 00 00 00 00 00 00 00 
       00007A0E 00 00 00 00 00 00 00 00 00 00 
       00007A18 00 00 00 00 00 00 00 00 00 00 
       00007A22 00 00 00 00 00 00 00 00 00 00 
       00007A2C 00 00 00 00 00 00 00 00 00 00 
       00007A36 00 00 00 00 00 00 00 00 00 00 
       00007A40 00 00 00 00 00 00 00 00 00 00 
       00007A4A 00 00 00 00 00 00 00 00 00 00 
       00007A54 00 00 00 00 00 00 00 00 00 00 
       00007A5E 00 00 00 00 00 00 00 00 00 00 
       00007A68 00 00 00 00 00 00 00 00 00 00 
       00007A72 00 00 00 00 00 00 00 00 00 00 
       00007A7C 00 00 00 00 00 00 00 00 00 00 
       00007A86 00 00 00 00 00 00 00 00 00 00 
       00007A90 00 00 00 00 00 00 00 00 00 00 
       00007A9A 00 00 00 00 00 00 00 00 00 00 
       00007AA4 00 00 00 00 00 00 00 00 00 00 
       00007AAE 00 00 00 00 00 00 00 00 00 00 
       00007AB8 00 00 00 00 00 00 00 00 00 00 
       00007AC2 00 00 00 00 00 00 00 00 00 00 
       00007ACC 00 00 00 00 00 00 00 00 00 00 
       00007AD6 00 00 00 00 00 00 00 00 00 00 
       00007AE0 00 00 00 00 00 00 00 00 00 00 
       00007AEA 00 00 00 00 00 00 00 00 00 00 
       00007AF4 00 00 00 00 00 00 00 00 00 00 
       00007AFE 00 00 00 00 00 00 00 00 00 00 
       00007B08 00 00 00 00 00 00 00 00 00 00 
       00007B12 00 00 00 00 00 00 00 00 00 00 
       00007B1C 00 00 00 00 00 00 00 00 00 00 
       00007B26 00 00 00 00 00 00 00 00 00 00 
       00007B30 00 00 00 00 00 00 00 00 00 00 
       00007B3A 00 00 00 00 00 00 00 00 00 00 
       00007B44 00 00 00 00 00 00 00 00 00 00 
       00007B4E 00 00 00 00 00 00 00 00 00 00 
       00007B58 00 00 00 00 00 00 00 00 00 00 
       00007B62 00 00 00 00 00 00 00 00 00 00 
       00007B6C 00 00 00 00 00 00 00 00 00 00 
       00007B76 00 00 00 00 00 00 00 00 00 00 
       00007B80 00 00 00 00 00 00 00 00 00 00 
       00007B8A 00 00 00 00 00 00 00 00 00 00 
       00007B94 00 00 00 00 00 00 00 00 00 00 
       00007B9E 00 00 00 00 00 00 00 00 00 00 
       00007BA8 00 00 00 00 00 00 00 00 00 00 
       00007BB2 00 00 00 00 00 00 00 00 00 00 
       00007BBC 00 00 00 00 00 00 00 00 00 00 
       00007BC6 00 00 00 00 00 00 00 00 00 00 
       00007BD0 00 00 00 00 00 00 00 00 00 00 
       00007BDA 00 00 00 00 00 00 00 00 00 00 
       00007BE4 00 00 00 00 00 00 00 00 00 00 
       00007BEE 00 00 00 00 00 00 00 00 00 00 
       00007BF8 00 00 00 00 00 00 00 00 00 00 
       00007C02 00 00 00 00 00 00 00 00 00 00 
       00007C0C 00 00 00 00 00 00 00 00 00 00 
       00007C16 00 00 00 00 00 00 00 00 00 00 
       00007C20 00 00 00 00 00 00 00 00 00 00 
       00007C2A 00 00 00 00 00 00 00 00 00 00 
       00007C34 00 00 00 00 00 00 00 00 00 00 
       00007C3E 00 00 00 00 00 00 00 00 00 00 
       00007C48 00 00 00 00 00 00 00 00 00 00 
       00007C52 00 00 00 00 00 00 00 00 00 00 
       00007C5C 00 00 00 00 00 00 00 00 00 00 
       00007C66 00 00 00 00 00 00 00 00 00 00 
       00007C70 00 00 00 00 00 00 00 00 00 00 
       00007C7A 00 00 00 00 00 00 00 00 00 00 
       00007C84 00 00 00 00 00 00 00 00 00 00 
       00007C8E 00 00 00 00 00 00 00 00 00 00 
       00007C98 00 00 00 00 00 00 00 00 00 00 
       00007CA2 00 00 00 00 00 00 00 00 00 00 
       00007CAC 00 00 00 00 00 00 00 00 00 00 
       00007CB6 00 00 00 00 00 00 00 00 00 00 
       00007CC0 00 00 00 00 00 00 00 00 00 00 
       00007CCA 00 00 00 00 00 00 00 00 00 00 
       00007CD4 00 00 00 00 00 00 00 00 00 00 
       00007CDE 00 00 00 00 00 00 00 00 00 00 
       00007CE8 00 00 00 00 00 00 00 00 00 00 
       00007CF2 00 00 00 00 00 00 00 00 00 00 
       00007CFC 00 00 00 00 00 00 00 00 00 00 
       00007D06 00 00 00 00 00 00 00 00 00 00 
       00007D10 00 00 00 00 00 00 00 00 00 00 
       00007D1A 00 00 00 00 00 00 00 00 00 00 
       00007D24 00 00 00 00 00 00 00 00 00 00 
       00007D2E 00 00 00 00 00 00 00 00 00 00 
       00007D38 00 00 00 00 00 00 00 00 00 00 
       00007D42 00 00 00 00 00 00 00 00 00 00 
       00007D4C 00 00 00 00 00 00 00 00 00 00 
       00007D56 00 00 00 00 00 00 00 00 00 00 
       00007D60 00 00 00 00 00 00 00 00 00 00 
       00007D6A 00 00 00 00 00 00 00 00 00 00 
       00007D74 00 00 00 00 00 00 00 00 00 00 
       00007D7E 00 00 00 00 00 00 00 00 00 00 
       00007D88 00 00 00 00 00 00 00 00 00 00 
       00007D92 00 00 00 00 00 00 00 00 00 00 
       00007D9C 00 00 00 00 00 00 00 00 00 00 
       00007DA6 00 00 00 00 00 00 00 00 00 00 
       00007DB0 00 00 00 00 00 00 00 00 00 00 
       00007DBA 00 00 00 00 00 00 00 00 00 00 
       00007DC4 00 00 00 00 00 00 00 00 00 00 
       00007DCE 00 00 00 00 00 00 00 00 00 00 
       00007DD8 00 00 00 00 00 00 00 00 00 00 
       00007DE2 00 00 00 00 00 00 00 00 00 00 
       00007DEC 00 00 00 00 00 00 00 00 00 00 
       00007DF6 00 00 00 00 00 00 00 00 00 00 
       00007E00 00 00 00 00 00 00 00 00 00 00 
       00007E0A 00 00 00 00 00 00 00 00 00 00 
       00007E14 00 00 00 00 00 00 00 00 00 00 
       00007E1E 00 00 00 00 00 00 00 00 00 00 
       00007E28 00 00 00 00 00 00 00 00 00 00 
       00007E32 00 00 00 00 00 00 00 00 00 00 
       00007E3C 00 00 00 00 00 00 00 00 00 00 
       00007E46 00 00 00 00 00 00 00 00 00 00 
       00007E50 00 00 00 00 00 00 00 00 00 00 
       00007E5A 00 00 00 00 00 00 00 00 00 00 
       00007E64 00 00 00 00 00 00 00 00 00 00 
       00007E6E 00 00 00 00 00 00 00 00 00 00 
       00007E78 00 00 00 00 00 00 00 00 00 00 
       00007E82 00 00 00 00 00 00 00 00 00 00 
       00007E8C 00 00 00 00 00 00 00 00 00 00 
       00007E96 00 00 00 00 00 00 00 00 00 00 
       00007EA0 00 00 00 00 00 00 00 00 00 00 
       00007EAA 00 00 00 00 00 00 00 00 00 00 
       00007EB4 00 00 00 00 00 00 00 00 00 00 
       00007EBE 00 00 00 00 00 00 00 00 00 00 
       00007EC8 00 00 00 00 00 00 00 00 00 00 
       00007ED2 00 00 00 00 00 00 00 00 00 00 
       00007EDC 00 00 00 00 00 00 00 00 00 00 
       00007EE6 00 00 00 00 00 00 00 00 00 00 
       00007EF0 00 00 00 00 00 00 00 00 00 00 
       00007EFA 00 00 00 00 00 00 00 00 00 00 
       00007F04 00 00 00 00 00 00 00 00 00 00 
       00007F0E 00 00 00 00 00 00 00 00 00 00 
       00007F18 00 00 00 00 00 00 00 00 00 00 
       00007F22 00 00 00 00 00 00 00 00 00 00 
       00007F2C 00 00 00 00 00 00 00 00 00 00 
       00007F36 00 00 00 00 00 00 00 00 00 00 
       00007F40 00 00 00 00 00 00 00 00 00 00 
       00007F4A 00 00 00 00 00 00 00 00 00 00 
       00007F54 00 00 00 00 00 00 00 00 00 00 
       00007F5E 00 00 00 00 00 00 00 00 00 00 
       00007F68 00 00 00 00 00 00 00 00 00 00 
       00007F72 00 00 00 00 00 00 00 00 00 00 
       00007F7C 00 00 00 00 00 00 00 00 00 00 
       00007F86 00 00 00 00 00 00 00 00 00 00 
       00007F90 00 00 00 00 00 00 00 00 00 00 
       00007F9A 00 00 00 00 00 00 00 00 00 00 
       00007FA4 00 00 00 00 00 00 00 00 00 00 
       00007FAE 00 00 00 00 00 00 00 00 00 00 
       00007FB8 00 00 00 00 00 00 00 00 00 00 
       00007FC2 00 00 00 00 00 00 00 00 00 00 
       00007FCC 00 00 00 00 00 00 00 00 00 00 
       00007FD6 00 00 00 00 00 00 00 00 00 00 
       00007FE0 00 00 00 00 00 00 00 00 00 00 
       00007FEA 00 00 00 00 00 00 00 00 00 00 
       00007FF4 00 00 00 00 00 00 00 00 00 00 
       00007FFE 00 00 00 00 00 00 00 00 00 00 
       00008008 00 00 00 00 00 00 00 00 00 00 
       00008012 00 00 00 00 00 00 00 00 00 00 
       0000801C 00 00 00 00 00 00 00 00 00 00 
       00008026 00 00 00 00 00 00 00 00 00 00 
       00008030 00 00 00 00 00 00 00 00 00 00 
       0000803A 00 00 00 00 00 00 00 00 00 00 
       00008044 00 00 00 00 00 00 00 00 00 00 
       0000804E 00 00 00 00 00 00 00 00 00 00 
       00008058 00 00 00 00 00 00 00 00 00 00 
       00008062 00 00 00 00 00 00 00 00 00 00 
       0000806C 00 00 00 00 00 00 00 00 00 00 
       00008076 00 00 00 00 00 00 00 00 00 00 
       00008080 00 00 00 00 00 00 00 00 00 00 
       0000808A 00 00 00 00 00 00 00 00 00 00 
       00008094 00 00 00 00 00 00 00 00 00 00 
       0000809E 00 00 00 00 00 00 00 00 00 00 
       000080A8 00 00 00 00 00 00 00 00 00 00 
       000080B2 00 00 00 00 00 00 00 00 00 00 
       000080BC 00 00 00 00 00 00 00 00 00 00 
       000080C6 00 00 00 00 00 00 00 00 00 00 
       000080D0 00 00 00 00 00 00 00 00 00 00 
       000080DA 00 00 00 00 00 00 00 00 00 00 
       000080E4 00 00 00 00 00 00 00 00 00 00 
       000080EE 00 00 00 00 00 00 00 00 00 00 
       000080F8 00 00 00 00 00 00 00 00 00 00 
       00008102 00 00 00 00 00 00 00 00 00 00 
       0000810C 00 00 00 00 00 00 00 00 00 00 
       00008116 00 00 00 00 00 00 00 00 00 00 
       00008120 00 00 00 00 00 00 00 00 00 00 
       0000812A 00 00 00 00 00 00 00 00 00 00 
       00008134 00 00 00 00 00 00 00 00 00 00 
       0000813E 00 00 00 00 00 00 00 00 00 00 
       00008148 00 00 00 00 00 00 00 00 00 00 
       00008152 00 00 00 00 00 00 00 00 00 00 
       0000815C 00 00 00 00 00 00 00 00 00 00 
       00008166 00 00 00 00 00 00 00 00 00 00 
       00008170 00 00 00 00 00 00 00 00 00 00 
       0000817A 00 00 00 00 00 00 00 00 00 00 
       00008184 00 00 00 00 00 00 00 00 00 00 
       0000818E 00 00 00 00 00 00 00 00 00 00 
       00008198 00 00 00 00 00 00 00 00 00 00 
       000081A2 00 00 00 00 00 00 00 00 00 00 
       000081AC 00 00 00 00 00 00 00 00 00 00 
       000081B6 00 00 00 00 00 00 00 00 00 00 
       000081C0 00 00 00 00 00 00 00 00 00 00 
       000081CA 00 00 00 00 00 00 00 00 00 00 
       000081D4 00 00 00 00 00 00 00 00 00 00 
       000081DE 00 00 00 00 00 00 00 00 00 00 
       000081E8 00 00 00 00 00 00 00 00 00 00 
       000081F2 00 00 00 00 00 00 00 00 00 00 
       000081FC 00 00 00 00 00 00 00 00 00 00 
       00008206 00 00 00 00 00 00 00 00 00 00 
       00008210 00 00 00 00 00 00 00 00 00 00 
       0000821A 00 00 00 00 00 00 00 00 00 00 
       00008224 00 00 00 00 00 00 00 00 00 00 
       0000822E 00 00 00 00 00 00 00 00 00 00 
       00008238 00 00 00 00 00 00 00 00 00 00 
       00008242 00 00 00 00 00 00 00 00 00 00 
       0000824C 00 00 00 00 00 00 00 00 00 00 
       00008256 00 00 00 00 00 00 00 00 00 00 
       00008260 00 00 00 00 00 00 00 00 00 00 
       0000826A 00 00 00 00 00 00 00 00 00 00 
       00008274 00 00 00 00 00 00 00 00 00 00 
       0000827E 00 00 00 00 00 00 00 00 00 00 
       00008288 00 00 00 00 00 00 00 00 00 00 
       00008292 00 00 00 00 00 00 00 00 00 00 
       0000829C 00 00 00 00 00 00 00 00 00 00 
       000082A6 00 00 00 00 00 00 00 00 00 00 
       000082B0 00 00 00 00 00 00 00 00 00 00 
       000082BA 00 00 00 00 00 00 00 00 00 00 
       000082C4 00 00 00 00 00 00 00 00 00 00 
       000082CE 00 00 00 00 00 00 00 00 00 00 
       000082D8 00 00 00 00 00 00 00 00 00 00 
       000082E2 00 00 00 00 00 00 00 00 00 00 
       000082EC 00 00 00 00 00 00 00 00 00 00 
       000082F6 00 00 00 00 00 00 00 00 00 00 
       00008300 00 00 00 00 00 00 00 00 00 00 
       0000830A 00 00 00 00 00 00 00 00 00 00 
       00008314 00 00 00 00 00 00 00 00 00 00 
       0000831E 00 00 00 00 00 00 00 00 00 00 
       00008328 00 00 00 00 00 00 00 00 00 00 
       00008332 00 00 00 00 00 00 00 00 00 00 
       0000833C 00 00 00 00 00 00 00 00 00 00 
       00008346 00 00 00 00 00 00 00 00 00 00 
       00008350 00 00 00 00 00 00 00 00 00 00 
       0000835A 00 00 00 00 00 00 00 00 00 00 
       00008364 00 00 00 00 00 00 00 00 00 00 
       0000836E 00 00 00 00 00 00 00 00 00 00 
       00008378 00 00 00 00 00 00 00 00 00 00 
       00008382 00 00 00 00 00 00 00 00 00 00 
       0000838C 00 00 00 00 00 00 00 00 00 00 
       00008396 00 00 00 00 00 00 00 00 00 00 
       000083A0 00 00 00 00 00 00 00 00 00 00 
       000083AA 00 00 00 00 00 00 00 00 00 00 
       000083B4 00 00 00 00 00 00 00 00 00 00 
       000083BE 00 00 00 00 00 00 00 00 00 00 
       000083C8 00 00 00 00 00 00 00 00 00 00 
       000083D2 00 00 00 00 00 00 00 00 00 00 
       000083DC 00 00 00 00 00 00 00 00 00 00 
       000083E6 00 00 00 00 00 00 00 00 00 00 
       000083F0 00 00 00 00 00 00 00 00 00 00 
       000083FA 00 00 00 00 00 00 00 00 00 00 
       00008404 00 00 00 00 00 00 00 00 00 00 
       0000840E 00 00 00 00 00 00 00 00 00 00 
       00008418 00 00 00 00 00 00 00 00 00 00 
       00008422 00 00 00 00 00 00 00 00 00 00 
       0000842C 00 00 00 00 00 00 00 00 00 00 
       00008436 00 00 00 00 00 00 00 00 00 00 
       00008440 00 00 00 00 00 00 00 00 00 00 
       0000844A 00 00 00 00 00 00 00 00 00 00 
       00008454 00 00 00 00 00 00 00 00 00 00 
       0000845E 00 00 00 00 00 00 00 00 00 00 
       00008468 00 00 00 00 00 00 00 00 00 00 
       00008472 00 00 00 00 00 00 00 00 00 00 
       0000847C 00 00 00 00 00 00 00 00 00 00 
       00008486 00 00 00 00 00 00 00 00 00 00 
       00008490 00 00 00 00 00 00 00 00 00 00 
       0000849A 00 00 00 00 00 00 00 00 00 00 
       000084A4 00 00 00 00 00 00 00 00 00 00 
       000084AE 00 00 00 00 00 00 00 00 00 00 
       000084B8 00 00 00 00 00 00 00 00 00 00 
       000084C2 00 00 00 00 00 00 00 00 00 00 
       000084CC 00 00 00 00 00 00 00 00 00 00 
       000084D6 00 00 00 00 00 00 00 00 00 00 
       000084E0 00 00 00 00 00 00 00 00 00 00 
       000084EA 00 00 00 00 00 00 00 00 00 00 
       000084F4 00 00 00 00 00 00 00 00 00 00 
       000084FE 00 00 00 00 00 00 00 00 00 00 
       00008508 00 00 00 00 00 00 00 00 00 00 
       00008512 00 00 00 00 00 00 00 00 00 00 
       0000851C 00 00 00 00 00 00 00 00 00 00 
       00008526 00 00 00 00 00 00 00 00 00 00 
       00008530 00 00 00 00 00 00 00 00 00 00 
       0000853A 00 00 00 00 00 00 00 00 00 00 
       00008544 00 00 00 00 00 00 00 00 00 00 
       0000854E 00 00 00 00 00 00 00 00 00 00 
       00008558 00 00 00 00 00 00 00 00 00 00 
       00008562 00 00 00 00 00 00 00 00 00 00 
       0000856C 00 00 00 00 00 00 00 00 00 00 
       00008576 00 00 00 00 00 00 00 00 00 00 
       00008580 00 00 00 00 00 00 00 00 00 00 
       0000858A 00 00 00 00 00 00 00 00 00 00 
       00008594 00 00 00 00 00 00 00 00 00 00 
       0000859E 00 00 00 00 00 00 00 00 00 00 
       000085A8 00 00 00 00 00 00 00 00 00 00 
       000085B2 00 00 00 00 00 00 00 00 00 00 
       000085BC 00 00 00 00 00 00 00 00 00 00 
       000085C6 00 00 00 00 00 00 00 00 00 00 
       000085D0 00 00 00 00 00 00 00 00 00 00 
       000085DA 00 00 00 00 00 00 00 00 00 00 
       000085E4 00 00 00 00 00 00 00 00 00 00 
       000085EE 00 00 00 00 00 00 00 00 00 00 
       000085F8 00 00 00 00 00 00 00 00 00 00 
       00008602 00 00 00 00 00 00 00 00 00 00 
       0000860C 00 00 00 00 00 00 00 00 00 00 
       00008616 00 00 00 00 00 00 00 00 00 00 
       00008620 00 00 00 00 00 00 00 00 00 00 
       0000862A 00 00 00 00 00 00 00 00 00 00 
       00008634 00 00 00 00 00 00 00 00 00 00 
       0000863E 00 00 00 00 00 00 00 00 00 00 
       00008648 00 00 00 00 00 00 00 00 00 00 
       00008652 00 00 00 00 00 00 00 00 00 00 
       0000865C 00 00 00 00 00 00 00 00 00 00 
       00008666 00 00 00 00 00 00 00 00 00 00 
       00008670 00 00 00 00 00 00 00 00 00 00 
       0000867A 00 00 00 00 00 00 00 00 00 00 
       00008684 00 00 00 00 00 00 00 00 00 00 
       0000868E 00 00 00 00 00 00 00 00 00 00 
       00008698 00 00 00 00 00 00 00 00 00 00 
       000086A2 00 00 00 00 00 00 00 00 00 00 
       000086AC 00 00 00 00 00 00 00 00 00 00 
       000086B6 00 00 00 00 00 00 00 00 00 00 
       000086C0 00 00 00 00 00 00 00 00 00 00 
       000086CA 00 00 00 00 00 00 00 00 00 00 
       000086D4 00 00 00 00 00 00 00 00 00 00 
       000086DE 00 00 00 00 00 00 00 00 00 00 
       000086E8 00 00 00 00 00 00 00 00 00 00 
       000086F2 00 00 00 00 00 00 00 00 00 00 
       000086FC 00 00 00 00 00 00 00 00 00 00 
       00008706 00 00 00 00 00 00 00 00 00 00 
       00008710 00 00 00 00 00 00 00 00 00 00 
       0000871A 00 00 00 00 00 00 00 00 00 00 
       00008724 00 00 00 00 00 00 00 00 00 00 
       0000872E 00 00 00 00 00 00 00 00 00 00 
       00008738 00 00 00 00 00 00 00 00 00 00 
       00008742 00 00 00 00 00 00 00 00 00 00 
       0000874C 00 00 00 00 00 00 00 00 00 00 
       00008756 00 00 00 00 00 00 00 00 00 00 
       00008760 00 00 00 00 00 00 00 00 00 00 
       0000876A 00 00 00 00 00 00 00 00 00 00 
       00008774 00 00 00 00 00 00 00 00 00 00 
       0000877E 00 00 00 00 00 00 00 00 00 00 
       00008788 00 00 00 00 00 00 00 00 00 00 
       00008792 00 00 00 00 00 00 00 00 00 00 
       0000879C 00 00 00 00 00 00 00 00 00 00 
       000087A6 00 00 00 00 00 00 00 00 00 00 
       000087B0 00 00 00 00 00 00 00 00 00 00 
       000087BA 00 00 00 00 00 00 00 00 00 00 
       000087C4 00 00 00 00 00 00 00 00 00 00 
       000087CE 00 00 00 00 00 00 00 00 00 00 
       000087D8 00 00 00 00 00 00 00 00 00 00 
       000087E2 00 00 00 00 00 00 00 00 00 00 
       000087EC 00 00 00 00 00 00 00 00 00 00 
       000087F6 00 00 00 00 00 00 00 00 00 00 
       00008800 00 00 00 00 00 00 00 00 00 00 
       0000880A 00 00 00 00 00 00 00 00 00 00 
       00008814 00 00 00 00 00 00 00 00 00 00 
       0000881E 00 00 00 00 00 00 00 00 00 00 
       00008828 00 00 00 00 00 00 00 00 00 00 
       00008832 00 00 00 00 00 00 00 00 00 00 
       0000883C 00 00 00 00 00 00 00 00 00 00 
       00008846 00 00 00 00 00 00 00 00 00 00 
       00008850 00 00 00 00 00 00 00 00 00 00 
       0000885A 00 00 00 00 00 00 00 00 00 00 
       00008864 00 00 00 00 00 00 00 00 00 00 
       0000886E 00 00 00 00 00 00 00 00 00 00 
       00008878 00 00 00 00 00 00 00 00 00 00 
       00008882 00 00 00 00 00 00 00 00 00 00 
       0000888C 00 00 00 00 00 00 00 00 00 00 
       00008896 00 00 00 00 00 00 00 00 00 00 
       000088A0 00 00 00 00 00 00 00 00 00 00 
       000088AA 00 00 00 00 00 00 00 00 00 00 
       000088B4 00 00 00 00 00 00 00 00 00 00 
       000088BE 00 00 00 00 00 00 00 00 00 00 
       000088C8 00 00 00 00 00 00 00 00 00 00 
       000088D2 00 00 00 00 00 00 00 00 00 00 
       000088DC 00 00 00 00 00 00 00 00 00 00 
       000088E6 00 00 00 00 00 00 00 00 00 00 
       000088F0 00 00 00 00 00 00 00 00 00 00 
       000088FA 00 00 00 00 00 00 00 00 00 00 
       00008904 00 00 00 00 00 00 00 00 00 00 
       0000890E 00 00 00 00 00 00 00 00 00 00 
       00008918 00 00 00 00 00 00 00 00 00 00 
       00008922 00 00 00 00 00 00 00 00 00 00 
       0000892C 00 00 00 00 00 00 00 00 00 00 
       00008936 00 00 00 00 00 00 00 00 00 00 
       00008940 00 00 00 00 00 00 00 00 00 00 
       0000894A 00 00 00 00 00 00 00 00 00 00 
       00008954 00 00 00 00 00 00 00 00 00 00 
       0000895E 00 00 00 00 00 00 00 00 00 00 
       00008968 00 00 00 00 00 00 00 00 00 00 
       00008972 00 00 00 00 00 00 00 00 00 00 
       0000897C 00 00 00 00 00 00 00 00 00 00 
       00008986 00 00 00 00 00 00 00 00 00 00 
       00008990 00 00 00 00 00 00 00 00 00 00 
       0000899A 00 00 00 00 00 00 00 00 00 00 
       000089A4 00 00 00 00 00 00 00 00 00 00 
       000089AE 00 00 00 00 00 00 00 00 00 00 
       000089B8 00 00 00 00 00 00 00 00 00 00 
       000089C2 00 00 00 00 00 00 00 00 00 00 
       000089CC 00 00 00 00 00 00 00 00 00 00 
       000089D6 00 00 00 00 00 00 00 00 00 00 
       000089E0 00 00 00 00 00 00 00 00 00 00 
       000089EA 00 00 00 00 00 00 00 00 00 00 
       000089F4 00 00 00 00 00 00 00 00 00 00 
       000089FE 00 00 00 00 00 00 00 00 00 00 
       00008A08 00 00 00 00 00 00 00 00 00 00 
       00008A12 00 00 00 00 00 00 00 00 00 00 
       00008A1C 00 00 00 00 00 00 00 00 00 00 
       00008A26 00 00 00 00 00 00 00 00 00 00 
       00008A30 00 00 00 00 00 00 00 00 00 00 
       00008A3A 00 00 00 00 00 00 00 00 00 00 
       00008A44 00 00 00 00 00 00 00 00 00 00 
       00008A4E 00 00 00 00 00 00 00 00 00 00 
       00008A58 00 00 00 00 00 00 00 00 00 00 
       00008A62 00 00 00 00 00 00 00 00 00 00 
       00008A6C 00 00 00 00 00 00 00 00 00 00 
       00008A76 00 00 00 00 00 00 00 00 00 00 
       00008A80 00 00 00 00 00 00 00 00 00 00 
       00008A8A 00 00 00 00 00 00 00 00 00 00 
       00008A94 00 00 00 00 00 00 00 00 00 00 
       00008A9E 00 00 00 00 00 00 00 00 00 00 
       00008AA8 00 00 00 00 00 00 00 00 00 00 
       00008AB2 00 00 00 00 00 00 00 00 00 00 
       00008ABC 00 00 00 00 00 00 00 00 00 00 
       00008AC6 00 00 00 00 00 00 00 00 00 00 
       00008AD0 00 00 00 00 00 00 00 00 00 00 
       00008ADA 00 00 00 00 00 00 00 00 00 00 
       00008AE4 00 00 00 00 00 00 00 00 00 00 
       00008AEE 00 00 00 00 00 00 00 00 00 00 
       00008AF8 00 00 00 00 00 00 00 00 00 00 
       00008B02 00 00 00 00 00 00 00 00 00 00 
       00008B0C 00 00 00 00 00 00 00 00 00 00 
       00008B16 00 00 00 00 00 00 00 00 00 00 
       00008B20 00 00 00 00 00 00 00 00 00 00 
       00008B2A 00 00 00 00 00 00 00 00 00 00 
       00008B34 00 00 00 00 00 00 00 00 00 00 
       00008B3E 00 00 00 00 00 00 00 00 00 00 
       00008B48 00 00 00 00 00 00 00 00 00 00 
       00008B52 00 00 00 00 00 00 00 00 00 00 
       00008B5C 00 00 00 00 00 00 00 00 00 00 
       00008B66 00 00 00 00 00 00 00 00 00 00 
       00008B70 00 00 00 00 00 00 00 00 00 00 
       00008B7A 00 00 00 00 00 00 00 00 00 00 
       00008B84 00 00 00 00 00 00 00 00 00 00 
       00008B8E 00 00 00 00 00 00 00 00 00 00 
       00008B98 00 00 00 00 00 00 00 00 00 00 
       00008BA2 00 00 00 00 00 00 00 00 00 00 
       00008BAC 00 00 00 00 00 00 00 00 00 00 
       00008BB6 00 00 00 00 00 00 00 00 00 00 
       00008BC0 00 00 00 00 00 00 00 00 00 00 
       00008BCA 00 00 00 00 00 00 00 00 00 00 
       00008BD4 00 00 00 00 00 00 00 00 00 00 
       00008BDE 00 00 00 00 00 00 00 00 00 00 
       00008BE8 00 00 00 00 00 00 00 00 00 00 
       00008BF2 00 00 00 00 00 00 00 00 00 00 
       00008BFC 00 00 00 00 00 00 00 00 00 00 
       00008C06 00 00 00 00 00 00 00 00 00 00 
       00008C10 00 00 00 00 00 00 00 00 00 00 
       00008C1A 00 00 00 00 00 00 00 00 00 00 
       00008C24 00 00 00 00 00 00 00 00 00 00 
       00008C2E 00 00 00 00 00 00 00 00 00 00 
       00008C38 00 00 00 00 00 00 00 00 00 00 
       00008C42 00 00 00 00 00 00 00 00 00 00 
       00008C4C 00 00 00 00 00 00 00 00 00 00 
       00008C56 00 00 00 00 00 00 00 00 00 00 
       00008C60 00 00 00 00 00 00 00 00 00 00 
       00008C6A 00 00 00 00 00 00 00 00 00 00 
       00008C74 00 00 00 00 00 00 00 00 00 00 
       00008C7E 00 00 00 00 00 00 00 00 00 00 
       00008C88 00 00 00 00 00 00 00 00 00 00 
       00008C92 00 00 00 00 00 00 00 00 00 00 
       00008C9C 00 00 00 00 00 00 00 00 00 00 
       00008CA6 00 00 00 00 00 00 00 00 00 00 
       00008CB0 00 00 00 00 00 00 00 00 00 00 
       00008CBA 00 00 00 00 00 00 00 00 00 00 
       00008CC4 00 00 00 00 00 00 00 00 00 00 
       00008CCE 00 00 00 00 00 00 00 00 00 00 
       00008CD8 00 00 00 00 00 00 00 00 00 00 
       00008CE2 00 00 00 00 00 00 00 00 00 00 
       00008CEC 00 00 00 00 00 00 00 00 00 00 
       00008CF6 00 00 00 00 00 00 00 00 00 00 
       00008D00 00 00 00 00 00 00 00 00 00 00 
       00008D0A 00 00 00 00 00 00 00 00 00 00 
       00008D14 00 00 00 00 00 00 00 00 00 00 
       00008D1E 00 00 00 00 00 00 00 00 00 00 
       00008D28 00 00 00 00 00 00 00 00 00 00 
       00008D32 00 00 00 00 00 00 00 00 00 00 
       00008D3C 00 00 00 00 00 00 00 00 00 00 
       00008D46 00 00 00 00 00 00 00 00 00 00 
       00008D50 00 00 00 00 00 00 00 00 00 00 
       00008D5A 00 00 00 00 00 00 00 00 00 00 
       00008D64 00 00 00 00 00 00 00 00 00 00 
       00008D6E 00 00 00 00 00 00 00 00 00 00 
       00008D78 00 00 00 00 00 00 00 00 00 00 
       00008D82 00 00 00 00 00 00 00 00 00 00 
       00008D8C 00 00 00 00 00 00 00 00 00 00 
       00008D96 00 00 00 00 00 00 00 00 00 00 
       00008DA0 00 00 00 00 00 00 00 00 00 00 
       00008DAA 00 00 00 00 00 00 00 00 00 00 
       00008DB4 00 00 00 00 00 00 00 00 00 00 
       00008DBE 00 00 00 00 00 00 00 00 00 00 
       00008DC8 00 00 00 00 00 00 00 00 00 00 
       00008DD2 00 00 00 00 00 00 00 00 00 00 
       00008DDC 00 00 00 00 00 00 00 00 00 00 
       00008DE6 00 00 00 00 00 00 00 00 00 00 
       00008DF0 00 00 00 00 00 00 00 00 00 00 
       00008DFA 00 00 00 00 00 00 00 00 00 00 
       00008E04 00 00 00 00 00 00 00 00 00 00 
       00008E0E 00 00 00 00 00 00 00 00 00 00 
       00008E18 00 00 00 00 00 00 00 00 00 00 
       00008E22 00 00 00 00 00 00 00 00 00 00 
       00008E2C 00 00 00 00 00 00 00 00 00 00 
       00008E36 00 00 00 00 00 00 00 00 00 00 
       00008E40 00 00 00 00 00 00 00 00 00 00 
       00008E4A 00 00 00 00 00 00 00 00 00 00 
       00008E54 00 00 00 00 00 00 00 00 00 00 
       00008E5E 00 00 00 00 00 00 00 00 00 00 
       00008E68 00 00 00 00 00 00 00 00 00 00 
       00008E72 00 00 00 00 00 00 00 00 00 00 
       00008E7C 00 00 00 00 00 00 00 00 00 00 
       00008E86 00 00 00 00 00 00 00 00 00 00 
       00008E90 00 00 00 00 00 00 00 00 00 00 
       00008E9A 00 00 00 00 00 00 00 00 00 00 
       00008EA4 00 00 00 00 00 00 00 00 00 00 
       00008EAE 00 00 00 00 00 00 00 00 00 00 
       00008EB8 00 00 00 00 00 00 00 00 00 00 
       00008EC2 00 00 00 00 00 00 00 00 00 00 
       00008ECC 00 00 00 00 00 00 00 00 00 00 
       00008ED6 00 00 00 00 00 00 00 00 00 00 
       00008EE0 00 00 00 00 00 00 00 00 00 00 
       00008EEA 00 00 00 00 00 00 00 00 00 00 
       00008EF4 00 00 00 00 00 00 00 00 00 00 
       00008EFE 00 00 00 00 00 00 00 00 00 00 
       00008F08 00 00 00 00 00 00 00 00 00 00 
       00008F12 00 00 00 00 00 00 00 00 00 00 
       00008F1C 00 00 00 00 00 00 00 00 00 00 
       00008F26 00 00 00 00 00 00 00 00 00 00 
       00008F30 00 00 00 00 00 00 00 00 00 00 
       00008F3A 00 00 00 00 00 00 00 00 00 00 
       00008F44 00 00 00 00 00 00 00 00 00 00 
       00008F4E 00 00 00 00 00 00 00 00 00 00 
       00008F58 00 00 00 00 00 00 00 00 00 00 
       00008F62 00 00 00 00 00 00 00 00 00 00 
       00008F6C 00 00 00 00 00 00 00 00 00 00 
       00008F76 00 00 00 00 00 00 00 00 00 00 
       00008F80 00 00 00 00 00 00 00 00 00 00 
       00008F8A 00 00 00 00 00 00 00 00 00 00 
       00008F94 00 00 00 00 00 00 00 00 00 00 
       00008F9E 00 00 00 00 00 00 00 00 00 00 
       00008FA8 00 00 00 00 00 00 00 00 00 00 
       00008FB2 00 00 00 00 00 00 00 00 00 00 
       00008FBC 00 00 00 00 00 00 00 00 00 00 
       00008FC6 00 00 00 00 00 00 00 00 00 00 
       00008FD0 00 00 00 00 00 00 00 00 00 00 
       00008FDA 00 00 00 00 00 00 00 00 00 00 
       00008FE4 00 00 00 00 00 00 00 00 00 00 
       00008FEE 00 00 00 00 00 00 00 00 00 00 
       00008FF8 00 00 00 00 00 00 00 00 00 00 
       00009002 00 00 00 00 00 00 00 00 00 00 
       0000900C 00 00 00 00 00 00 00 00 00 00 
       00009016 00 00 00 00 00 00 00 00 00 00 
       00009020 00 00 00 00 00 00 00 00 00 00 
       0000902A 00 00 00 00 00 00 00 00 00 00 
       00009034 00 00 00 00 00 00 00 00 00 00 
       0000903E 00 00 00 00 00 00 00 00 00 00 
       00009048 00 00 00 00 00 00 00 00 00 00 
       00009052 00 00 00 00 00 00 00 00 00 00 
       0000905C 00 00 00 00 00 00 00 00 00 00 
       00009066 00 00 00 00 00 00 00 00 00 00 
       00009070 00 00 00 00 00 00 00 00 00 00 
       0000907A 00 00 00 00 00 00 00 00 00 00 
       00009084 00 00 00 00 00 00 00 00 00 00 
       0000908E 00 00 00 00 00 00 00 00 00 00 
       00009098 00 00 00 00 00 00 00 00 00 00 
       000090A2 00 00 00 00 00 00 00 00 00 00 
       000090AC 00 00 00 00 00 00 00 00 00 00 
       000090B6 00 00 00 00 00 00 00 00 00 00 
       000090C0 00 00 00 00 00 00 00 00 00 00 
       000090CA 00 00 00 00 00 00 00 00 00 00 
       000090D4 00 00 00 00 00 00 00 00 00 00 
       000090DE 00 00 00 00 00 00 00 00 00 00 
       000090E8 00 00 00 00 00 00 00 00 00 00 
       000090F2 00 00 00 00 00 00 00 00 00 00 
       000090FC 00 00 00 00 00 00 00 00 00 00 
       00009106 00 00 00 00 00 00 00 00 00 00 
       00009110 00 00 00 00 00 00 00 00 00 00 
       0000911A 00 00 00 00 00 00 00 00 00 00 
       00009124 00 00 00 00 00 00 00 00 00 00 
       0000912E 00 00 00 00 00 00 00 00 00 00 
       00009138 00 00 00 00 00 00 00 00 00 00 
       00009142 00 00 00 00 00 00 00 00 00 00 
       0000914C 00 00 00 00 00 00 00 00 00 00 
       00009156 00 00 00 00 00 00 00 00 00 00 
       00009160 00 00 00 00 00 00 00 00 00 00 
       0000916A 00 00 00 00 00 00 00 00 00 00 
       00009174 00 00 00 00 00 00 00 00 00 00 
       0000917E 00 00 00 00 00 00 00 00 00 00 
       00009188 00 00 00 00 00 00 00 00 00 00 
       00009192 00 00 00 00 00 00 00 00 00 00 
       0000919C 00 00 00 00 00 00 00 00 00 00 
       000091A6 00 00 00 00 00 00 00 00 00 00 
       000091B0 00 00 00 00 00 00 00 00 00 00 
       000091BA 00 00 00 00 00 00 00 00 00 00 
       000091C4 00 00 00 00 00 00 00 00 00 00 
       000091CE 00 00 00 00 00 00 00 00 00 00 
       000091D8 00 00 00 00 00 00 00 00 00 00 
       000091E2 00 00 00 00 00 00 00 00 00 00 
       000091EC 00 00 00 00 00 00 00 00 00 00 
       000091F6 00 00 00 00 00 00 00 00 00 00 
       00009200 00 00 00 00 00 00 00 00 00 00 
       0000920A 00 00 00 00 00 00 00 00 00 00 
       00009214 00 00 00 00 00 00 00 00 00 00 
       0000921E 00 00 00 00 00 00 00 00 00 00 
       00009228 00 00 00 00 00 00 00 00 00 00 
       00009232 00 00 00 00 00 00 00 00 00 00 
       0000923C 00 00 00 00 00 00 00 00 00 00 
       00009246 00 00 00 00 00 00 00 00 00 00 
       00009250 00 00 00 00 00 00 00 00 00 00 
       0000925A 00 00 00 00 00 00 00 00 00 00 
       00009264 00 00 00 00 00 00 00 00 00 00 
       0000926E 00 00 00 00 00 00 00 00 00 00 
       00009278 00 00 00 00 00 00 00 00 00 00 
       00009282 00 00 00 00 00 00 00 00 00 00 
       0000928C 00 00 00 00 00 00 00 00 00 00 
       00009296 00 00 00 00 00 00 00 00 00 00 
       000092A0 00 00 00 00 00 00 00 00 00 00 
       000092AA 00 00 00 00 00 00 00 00 00 00 
       000092B4 00 00 00 00 00 00 00 00 00 00 
       000092BE 00 00 00 00 00 00 00 00 00 00 
       000092C8 00 00 00 00 00 00 00 00 00 00 
       000092D2 00 00 00 00 00 00 00 00 00 00 
       000092DC 00 00 00 00 00 00 00 00 00 00 
       000092E6 00 00 00 00 00 00 00 00 00 00 
       000092F0 00 00 00 00 00 00 00 00 00 00 
       000092FA 00 00 00 00 00 00 00 00 00 00 
       00009304 00 00 00 00 00 00 00 00 00 00 
       0000930E 00 00 00 00 00 00 00 00 00 00 
       00009318 00 00 00 00 00 00 00 00 00 00 
       00009322 00 00 00 00 00 00 00 00 00 00 
       0000932C 00 00 00 00 00 00 00 00 00 00 
       00009336 00 00 00 00 00 00 00 00 00 00 
       00009340 00 00 00 00 00 00 00 00 00 00 
       0000934A 00 00 00 00 00 00 00 00 00 00 
       00009354 00 00 00 00 00 00 00 00 00 00 
       0000935E 00 00 00 00 00 00 00 00 00 00 
       00009368 00 00 00 00 00 00 00 00 00 00 
       00009372 00 00 00 00 00 00 00 00 00 00 
       0000937C 00 00 00 00 00 00 00 00 00 00 
       00009386 00 00 00 00 00 00 00 00 00 00 
       00009390 00 00 00 00 00 00 00 00 00 00 
       0000939A 00 00 00 00 00 00 00 00 00 00 
       000093A4 00 00 00 00 00 00 00 00 00 00 
       000093AE 00 00 00 00 00 00 00 00 00 00 
       000093B8 00 00 00 00 00 00 00 00 00 00 
       000093C2 00 00 00 00 00 00 00 00 00 00 
       000093CC 00 00 00 00 00 00 00 00 00 00 
       000093D6 00 00 00 00 00 00 00 00 00 00 
       000093E0 00 00 00 00 00 00 00 00 00 00 
       000093EA 00 00 00 00 00 00 00 00 00 00 
       000093F4 00 00 00 00 00 00 00 00 00 00 
       000093FE 00 00 00 00 00 00 00 00 00 00 
       00009408 00 00 00 00 00 00 00 00 00 00 
       00009412 00 00 00 00 00 00 00 00 00 00 
       0000941C 00 00 00 00 00 00 00 00 00 00 
       00009426 00 00 00 00 00 00 00 00 00 00 
       00009430 00 00 00 00 00 00 00 00 00 00 
       0000943A 00 00 00 00 00 00 00 00 00 00 
       00009444 00 00 00 00 00 00 00 00 00 00 
       0000944E 00 00 00 00 00 00 00 00 00 00 
       00009458 00 00 00 00 00 00 00 00 00 00 
       00009462 00 00 00 00 00 00 00 00 00 00 
       0000946C 00 00 00 00 00 00 00 00 00 00 
       00009476 00 00 00 00 00 00 00 00 00 00 
       00009480 00 00 00 00 00 00 00 00 00 00 
       0000948A 00 00 00 00 00 00 00 00 00 00 
       00009494 00 00 00 00 00 00 00 00 00 00 
       0000949E 00 00 00 00 00 00 00 00 00 00 
       000094A8 00 00 00 00 00 00 00 00 00 00 
       000094B2 00 00 00 00 00 00 00 00 00 00 
       000094BC 00 00 00 00 00 00 00 00 00 00 
       000094C6 00 00 00 00 00 00 00 00 00 00 
       000094D0 00 00 00 00 00 00 00 00 00 00 
       000094DA 00 00 00 00 00 00 00 00 00 00 
       000094E4 00 00 00 00 00 00 00 00 00 00 
       000094EE 00 00 00 00 00 00 00 00 00 00 
       000094F8 00 00 00 00 00 00 00 00 00 00 
       00009502 00 00 00 00 00 00 00 00 00 00 
       0000950C 00 00 00 00 00 00 00 00 00 00 
       00009516 00 00 00 00 00 00 00 00 00 00 
       00009520 00 00 00 00 00 00 00 00 00 00 
       0000952A 00 00 00 00 00 00 00 00 00 00 
       00009534 00 00 00 00 00 00 00 00 00 00 
       0000953E 00 00 00 00 00 00 00 00 00 00 
       00009548 00 00 00 00 00 00 00 00 00 00 
       00009552 00 00 00 00 00 00 00 00 00 00 
       0000955C 00 00 00 00 00 00 00 00 00 00 
       00009566 00 00 00 00 00 00 00 00 00 00 
       00009570 00 00 00 00 00 00 00 00 00 00 
       0000957A 00 00 00 00 00 00 00 00 00 00 
       00009584 00 00 00 00 00 00 00 00 00 00 
       0000958E 00 00 00 00 00 00 00 00 00 00 
       00009598 00 00 00 00 00 00 00 00 00 00 
       000095A2 00 00 00 00 00 00 00 00 00 00 
       000095AC 00 00 00 00 00 00 00 00 00 00 
       000095B6 00 00 00 00 00 00 00 00 00 00 
       000095C0 00 00 00 00 00 00 00 00 00 00 
       000095CA 00 00 00 00 00 00 00 00 00 00 
       000095D4 00 00 00 00 00 00 00 00 00 00 
       000095DE 00 00 00 00 00 00 00 00 00 00 
       000095E8 00 00 00 00 00 00 00 00 00 00 
       000095F2 00 00 00 00 00 00 00 00 00 00 
       000095FC 00 00 00 00 00 00 00 00 00 00 
       00009606 00 00 00 00 00 00 00 00 00 00 
       00009610 00 00 00 00 00 00 00 00 00 00 
       0000961A 00 00 00 00 00 00 00 00 00 00 
       00009624 00 00 00 00 00 00 00 00 00 00 
       0000962E 00 00 00 00 00 00 00 00 00 00 
       00009638 00 00 00 00 00 00 00 00 00 00 
       00009642 00 00 00 00 00 00 00 00 00 00 
       0000964C 00 00 00 00 00 00 00 00 00 00 
       00009656 00 00 00 00 00 00 00 00 00 00 
       00009660 00 00 00 00 00 00 00 00 00 00 
       0000966A 00 00 00 00 00 00 00 00 00 00 
       00009674 00 00 00 00 00 00 00 00 00 00 
       0000967E 00 00 00 00 00 00 00 00 00 00 
       00009688 00 00 00 00 00 00 00 00 00 00 
       00009692 00 00 00 00 00 00 00 00 00 00 
       0000969C 00 00 00 00 00 00 00 00 00 00 
       000096A6 00 00 00 00 00 00 00 00 00 00 
       000096B0 00 00 00 00 00 00 00 00 00 00 
       000096BA 00 00 00 00 00 00 00 00 00 00 
       000096C4 00 00 00 00 00 00 00 00 00 00 
       000096CE 00 00 00 00 00 00 00 00 00 00 
       000096D8 00 00 00 00 00 00 00 00 00 00 
       000096E2 00 00 00 00 00 00 00 00 00 00 
       000096EC 00 00 00 00 00 00 00 00 00 00 
       000096F6 00 00 00 00 00 00 00 00 00 00 
       00009700 00 00 00 00 00 00 00 00 00 00 
       0000970A 00 00 00 00 00 00 00 00 00 00 
       00009714 00 00 00 00 00 00 00 00 00 00 
       0000971E 00 00 00 00 00 00 00 00 00 00 
       00009728 00 00 00 00 00 00 00 00 00 00 
       00009732 00 00 00 00 00 00 00 00 00 00 
       0000973C 00 00 00 00 00 00 00 00 00 00 
       00009746 00 00 00 00 00 00 00 00 00 00 
       00009750 00 00 00 00 00 00 00 00 00 00 
       0000975A 00 00 00 00 00 00 00 00 00 00 
       00009764 00 00 00 00 00 00 00 00 00 00 
       0000976E 00 00 00 00 00 00 00 00 00 00 
       00009778 00 00 00 00 00 00 00 00 00 00 
       00009782 00 00 00 00 00 00 00 00 00 00 
       0000978C 00 00 00 00 00 00 00 00 00 00 
       00009796 00 00 00 00 00 00 00 00 00 00 
       000097A0 00 00 00 00 00 00 00 00 00 00 
       000097AA 00 00 00 00 00 00 00 00 00 00 
       000097B4 00 00 00 00 00 00 00 00 00 00 
       000097BE 00 00 00 00 00 00 00 00 00 00 
       000097C8 00 00 00 00 00 00 00 00 00 00 
       000097D2 00 00 00 00 00 00 00 00 00 00 
       000097DC 00 00 00 00 00 00 00 00 00 00 
       000097E6 00 00 00 00 00 00 00 00 00 00 
       000097F0 00 00 00 00 00 00 00 00 00 00 
       000097FA 00 00 00 00 00 00 00 00 00 00 
       00009804 00 00 00 00 00 00 00 00 00 00 
       0000980E 00 00 00 00 00 00 00 00 00 00 
       00009818 00 00 00 00 00 00 00 00 00 00 
       00009822 00 00 00 00 00 00 00 00 00 00 
       0000982C 00 00 00 00 00 00 00 00 00 00 
       00009836 00 00 00 00 00 00 00 00 00 00 
       00009840 00 00 00 00 00 00 00 00 00 00 
       0000984A 00 00 00 00 00 00 00 00 00 00 
       00009854 00 00 00 00 00 00 00 00 00 00 
       0000985E 00 00 00 00 00 00 00 00 00 00 
       00009868 00 00 00 00 00 00 00 00 00 00 
       00009872 00 00 00 00 00 00 00 00 00 00 
       0000987C 00 00 00 00 00 00 00 00 00 00 
       00009886 00 00 00 00 00 00 00 00 00 00 
       00009890 00 00 00 00 00 00 00 00 00 00 
       0000989A 00 00 00 00 00 00 00 00 00 00 
       000098A4 00 00 00 00 00 00 00 00 00 00 
       000098AE 00 00 00 00 00 00 00 00 00 00 
       000098B8 00 00 00 00 00 00 00 00 00 00 
       000098C2 00 00 00 00 00 00 00 00 00 00 
       000098CC 00 00 00 00 00 00 00 00 00 00 
       000098D6 00 00 00 00 00 00 00 00 00 00 
       000098E0 00 00 00 00 00 00 00 00 00 00 
       000098EA 00 00 00 00 00 00 00 00 00 00 
       000098F4 00 00 00 00 00 00 00 00 00 00 
       000098FE 00 00 00 00 00 00 00 00 00 00 
       00009908 00 00 00 00 00 00 00 00 00 00 
       00009912 00 00 00 00 00 00 00 00 00 00 
       0000991C 00 00 00 00 00 00 00 00 00 00 
       00009926 00 00 00 00 00 00 00 00 00 00 
       00009930 00 00 00 00 00 00 00 00 00 00 
       0000993A 00 00 00 00 00 00 00 00 00 00 
       00009944 00 00 00 00 00 00 00 00 00 00 
       0000994E 00 00 00 00 00 00 00 00 00 00 
       00009958 00 00 00 00 00 00 00 00 00 00 
       00009962 00 00 00 00 00 00 00 00 00 00 
       0000996C 00 00 00 00 00 00 00 00 00 00 
       00009976 00 00 00 00 00 00 00 00 00 00 
       00009980 00 00 00 00 00 00 00 00 00 00 
       0000998A 00 00 00 00 00 00 00 00 00 00 
       00009994 00 00 00 00 00 00 00 00 00 00 
       0000999E 00 00 00 00 00 00 00 00 00 00 
       000099A8 00 00 00 00 00 00 00 00 00 00 
       000099B2 00 00 00 00 00 00 00 00 00 00 
       000099BC 00 00 00 00 00 00 00 00 00 00 
       000099C6 00 00 00 00 00 00 00 00 00 00 
       000099D0 00 00 00 00 00 00 00 00 00 00 
       000099DA 00 00 00 00 00 00 00 00 00 00 
       000099E4 00 00 00 00 00 00 00 00 00 00 
       000099EE 00 00 00 00 00 00 00 00 00 00 
       000099F8 00 00 00 00 00 00 00 00 00 00 
       00009A02 00 00 00 00 00 00 00 00 00 00 
       00009A0C 00 00 00 00 00 00 00 00 00 00 
       00009A16 00 00 00 00 00 00 00 00 00 00 
       00009A20 00 00 00 00 00 00 00 00 00 00 
       00009A2A 00 00 00 00 00 00 00 00 00 00 
       00009A34 00 00 00 00 00 00 00 00 00 00 
       00009A3E 00 00 00 00 00 00 00 00 00 00 
       00009A48 00 00 00 00 00 00 00 00 00 00 
       00009A52 00 00 00 00 00 00 00 00 00 00 
       00009A5C 00 00 00 00 00 00 00 00 00 00 
       00009A66 00 00 00 00 00 00 00 00 00 00 
       00009A70 00 00 00 00 00 00 00 00 00 00 
       00009A7A 00 00 00 00 00 00 00 00 00 00 
       00009A84 00 00 00 00 00 00 00 00 00 00 
       00009A8E 00 00 00 00 00 00 00 00 00 00 
       00009A98 00 00 00 00 00 00 00 00 00 00 
       00009AA2 00 00 00 00 00 00 00 00 00 00 
       00009AAC 00 00 00 00 00 00 00 00 00 00 
       00009AB6 00 00 00 00 00 00 00 00 00 00 
       00009AC0 00 00 00 00 00 00 00 00 00 00 
       00009ACA 00 00 00 00 00 00 00 00 00 00 
       00009AD4 00 00 00 00 00 00 00 00 00 00 
       00009ADE 00 00 00 00 00 00 00 00 00 00 
       00009AE8 00 00 00 00 00 00 00 00 00 00 
       00009AF2 00 00 00 00 00 00 00 00 00 00 
       00009AFC 00 00 00 00 00 00 00 00 00 00 
       00009B06 00 00 00 00 00 00 00 00 00 00 
       00009B10 00 00 00 00 00 00 00 00 00 00 
       00009B1A 00 00 00 00 00 00 00 00 00 00 
       00009B24 00 00 00 00 00 00 00 00 00 00 
       00009B2E 00 00 00 00 00 00 00 00 00 00 
       00009B38 00 00 00 00 00 00 00 00 00 00 
       00009B42 00 00 00 00 00 00 00 00 00 00 
       00009B4C 00 00 00 00 00 00 00 00 00 00 
       00009B56 00 00 00 00 00 00 00 00 00 00 
       00009B60 00 00 00 00 00 00 00 00 00 00 
       00009B6A 00 00 00 00 00 00 00 00 00 00 
       00009B74 00 00 00 00 00 00 00 00 00 00 
       00009B7E 00 00 00 00 00 00 00 00 00 00 
       00009B88 00 00 00 00 00 00 00 00 00 00 
       00009B92 00 00 00 00 00 00 00 00 00 00 
       00009B9C 00 00 00 00 00 00 00 00 00 00 
       00009BA6 00 00 00 00 00 00 00 00 00 00 
       00009BB0 00 00 00 00 00 00 00 00 00 00 
       00009BBA 00 00 00 00 00 00 00 00 00 00 
       00009BC4 00 00 00 00 00 00 00 00 00 00 
       00009BCE 00 00 00 00 00 00 00 00 00 00 
       00009BD8 00 00 00 00 00 00 00 00 00 00 
       00009BE2 00 00 00 00 00 00 00 00 00 00 
       00009BEC 00 00 00 00 00 00 00 00 00 00 
       00009BF6 00 00 00 00 00 00 00 00 00 00 
       00009C00 00 00 00 00 00 00 00 00 00 00 
       00009C0A 00 00 00 00 00 00 00 00 00 00 
       00009C14 00 00 00 00 00 00 00 00 00 00 
       00009C1E 00 00 00 00 00 00 00 00 00 00 
       00009C28 00 00 00 00 00 00 00 00 00 00 
       00009C32 00 00 00 00 00 00 00 00 00 00 
       00009C3C 00 00 00 00 00 00 00 00 00 00 
       00009C46 00 00 00 00 00 00 00 00 00 00 
       00009C50 00 00 00 00 00 00 00 00 00 00 
       00009C5A 00 00 00 00 00 00 00 00 00 00 
       00009C64 00 00 00 00 00 00 00 00 00 00 
       00009C6E 00 00 00 00 00 00 00 00 00 00 
       00009C78 00 00 00 00 00 00 00 00 00 00 
       00009C82 00 00 00 00 00 00 00 00 00 00 
       00009C8C 00 00 00 00 00 00 00 00 00 00 
       00009C96 00 00 00 00 00 00 00 00 00 00 
       00009CA0 00 00 00 00 00 00 00 00 00 00 
       00009CAA 00 00 00 00 00 00 00 00 00 00 
       00009CB4 00 00 00 00 00 00 00 00 00 00 
       00009CBE 00 00 00 00 00 00 00 00 00 00 
       00009CC8 00 00 00 00 00 00 00 00 00 00 
       00009CD2 00 00 00 00 00 00 00 00 00 00 
       00009CDC 00 00 00 00 00 00 00 00 00 00 
       00009CE6 00 00 00 00 00 00 00 00 00 00 
       00009CF0 00 00 00 00 00 00 00 00 00 00 
       00009CFA 00 00 00 00 00 00 00 00 00 00 
       00009D04 00 00 00 00 00 00 00 00 00 00 
       00009D0E 00 00 00 00 00 00 00 00 00 00 
       00009D18 00 00 00 00 00 00 00 00 00 00 
       00009D22 00 00 00 00 00 00 00 00 00 00 
       00009D2C 00 00 00 00 00 00 00 00 00 00 
       00009D36 00 00 00 00 00 00 00 00 00 00 
       00009D40 00 00 00 00 00 00 00 00 00 00 
       00009D4A 00 00 00 00 00 00 00 00 00 00 
       00009D54 00 00 00 00 00 00 00 00 00 00 
       00009D5E 00 00 00 00 00 00 00 00 00 00 
       00009D68 00 00 00 00 00 00 00 00 00 00 
       00009D72 00 00 00 00 00 00 00 00 00 00 
       00009D7C 00 00 00 00 00 00 00 00 00 00 
       00009D86 00 00 00 00 00 00 00 00 00 00 
       00009D90 00 00 00 00 00 00 00 00 00 00 
       00009D9A 00 00 00 00 00 00 00 00 00 00 
       00009DA4 00 00 00 00 00 00 00 00 00 00 
       00009DAE 00 00 00 00 00 00 00 00 00 00 
       00009DB8 00 00 00 00 00 00 00 00 00 00 
       00009DC2 00 00 00 00 00 00 00 00 00 00 
       00009DCC 00 00 00 00 00 00 00 00 00 00 
       00009DD6 00 00 00 00 00 00 00 00 00 00 
       00009DE0 00 00 00 00 00 00 00 00 00 00 
       00009DEA 00 00 00 00 00 00 00 00 00 00 
       00009DF4 00 00 00 00 00 00 00 00 00 00 
       00009DFE 00 00 00 00 00 00 00 00 00 00 
       00009E08 00 00 00 00 00 00 00 00 00 00 
       00009E12 00 00 00 00 00 00 00 00 00 00 
       00009E1C 00 00 00 00 00 00 00 00 00 00 
       00009E26 00 00 00 00 00 00 00 00 00 00 
       00009E30 00 00 00 00 00 00 00 00 00 00 
       00009E3A 00 00 00 00 00 00 00 00 00 00 
       00009E44 00 00 00 00 00 00 00 00 00 00 
       00009E4E 00 00 00 00 00 00 00 00 00 00 
       00009E58 00 00 00 00 00 00 00 00 00 00 
       00009E62 00 00 00 00 00 00 00 00 00 00 
       00009E6C 00 00 00 00 00 00 00 00 00 00 
       00009E76 00 00 00 00 00 00 00 00 00 00 
       00009E80 00 00 00 00 00 00 00 00 00 00 
       00009E8A 00 00 00 00 00 00 00 00 00 00 
       00009E94 00 00 00 00 00 00 00 00 00 00 
       00009E9E 00 00 00 00 00 00 00 00 00 00 
       00009EA8 00 00 00 00 00 00 00 00 00 00 
       00009EB2 00 00 00 00 00 00 00 00 00 00 
       00009EBC 00 00 00 00 00 00 00 00 00 00 
       00009EC6 00 00 00 00 00 00 00 00 00 00 
       00009ED0 00 00 00 00 00 00 00 00 00 00 
       00009EDA 00 00 00 00 00 00 00 00 00 00 
       00009EE4 00 00 00 00 00 00 00 00 00 00 
       00009EEE 00 00 00 00 00 00 00 00 00 00 
       00009EF8 00 00 00 00 00 00 00 00 00 00 
       00009F02 00 00 00 00 00 00 00 00 00 00 
       00009F0C 00 00 00 00 00 00 00 00 00 00 
       00009F16 00 00 00 00 00 00 00 00 00 00 
       00009F20 00 00 00 00 00 00 00 00 00 00 
       00009F2A 00 00 00 00 00 00 00 00 00 00 
       00009F34 00 00 00 00 00 00 00 00 00 00 
       00009F3E 00 00 00 00 00 00 00 00 00 00 
       00009F48 00 00 00 00 00 00 00 00 00 00 
       00009F52 00 00 00 00 00 00 00 00 00 00 
       00009F5C 00 00 00 00 00 00 00 00 00 00 
       00009F66 00 00 00 00 00 00 00 00 00 00 
       00009F70 00 00 00 00 00 00 00 00 00 00 
       00009F7A 00 00 00 00 00 00 00 00 00 00 
       00009F84 00 00 00 00 00 00 00 00 00 00 
       00009F8E 00 00 00 00 00 00 00 00 00 00 
       00009F98 00 00 00 00 00 00 00 00 00 00 
       00009FA2 00 00 00 00 00 00 00 00 00 00 
       00009FAC 00 00 00 00 00 00 00 00 00 00 
       00009FB6 00 00 00 00 00 00 00 00 00 00 
       00009FC0 00 00 00 00 00 00 00 00 00 00 
       00009FCA 00 00 00 00 00 00 00 00 00 00 
       00009FD4 00 00 00 00 00 00 00 00 00 00 
       00009FDE 00 00 00 00 00 00 00 00 00 00 
       00009FE8 00 00 00 00 00 00 00 00 00 00 
       00009FF2 00 00 00 00 00 00 00 00 00 00 
       00009FFC 00 00 00 00 00 00 00 00 00 00 
       0000A006 00 00 00 00 00 00 00 00 00 00 
       0000A010 00 00 00 00 00 00 00 00 00 00 
       0000A01A 00 00 00 00 00 00 00 00 00 00 
       0000A024 00 00 00 00 00 00 00 00 00 00 
       0000A02E 00 00 00 00 00 00 00 00 00 00 
       0000A038 00 00 00 00 00 00 00 00 00 00 
       0000A042 00 00 00 00 00 00 00 00 00 00 
       0000A04C 00 00 00 00 00 00 00 00 00 00 
       0000A056 00 00 00 00 00 00 00 00 00 00 
       0000A060 00 00 00 00 00 00 00 00 00 00 
       0000A06A 00 00 00 00 00 00 00 00 00 00 
       0000A074 00 00 00 00 00 00 00 00 00 00 
       0000A07E 00 00 00 00 00 00 00 00 00 00 
       0000A088 00 00 00 00 00 00 00 00 00 00 
       0000A092 00 00 00 00 00 00 00 00 00 00 
       0000A09C 00 00 00 00 00 00 00 00 00 00 
       0000A0A6 00 00 00 00 00 00 00 00 00 00 
       0000A0B0 00 00 00 00 00 00 00 00 00 00 
       0000A0BA 00 00 00 00 00 00 00 00 00 00 
       0000A0C4 00 00 00 00 00 00 00 00 00 00 
       0000A0CE 00 00 00 00 00 00 00 00 00 00 
       0000A0D8 00 00 00 00 00 00 00 00 00 00 
       0000A0E2 00 00 00 00 00 00 00 00 00 00 
       0000A0EC 00 00 00 00 00 00 00 00 00 00 
       0000A0F6 00 00 00 00 00 00 00 00 00 00 
       0000A100 00 00 00 00 00 00 00 00 00 00 
       0000A10A 00 00 00 00 00 00 00 00 00 00 
       0000A114 00 00 00 00 00 00 00 00 00 00 
       0000A11E 00 00 00 00 00 00 00 00 00 00 
       0000A128 00 00 00 00 00 00 00 00 00 00 
       0000A132 00 00 00 00 00 00 00 00 00 00 
       0000A13C 00 00 00 00 00 00 00 00 00 00 
       0000A146 00 00 00 00 00 00 00 00 00 00 
       0000A150 00 00 00 00 00 00 00 00 00 00 
       0000A15A 00 00 00 00 00 00 00 00 00 00 
       0000A164 00 00 00 00 00 00 00 00 00 00 
       0000A16E 00 00 00 00 00 00 00 00 00 00 
       0000A178 00 00 00 00 00 00 00 00 00 00 
       0000A182 00 00 00 00 00 00 00 00 00 00 
       0000A18C 00 00 00 00 00 00 00 00 00 00 
       0000A196 00 00 00 00 00 00 00 00 00 00 
       0000A1A0 00 00 00 00 00 00 00 00 00 00 
       0000A1AA 00 00 00 00 00 00 00 00 00 00 
       0000A1B4 00 00 00 00 00 00 00 00 00 00 
       0000A1BE 00 00 00 00 00 00 00 00 00 00 
       0000A1C8 00 00 00 00 00 00 00 00 00 00 
       0000A1D2 00 00 00 00 00 00 00 00 00 00 
       0000A1DC 00 00 00 00 00 00 00 00 00 00 
       0000A1E6 00 00 00 00 00 00 00 00 00 00 
       0000A1F0 00 00 00 00 00 00 00 00 00 00 
       0000A1FA 00 00 00 00 00 00 00 00 00 00 
       0000A204 00 00 00 00 00 00 00 00 00 00 
       0000A20E 00 00 00 00 00 00 00 00 00 00 
       0000A218 00 00 00 00 00 00 00 00 00 00 
       0000A222 00 00 00 00 00 00 00 00 00 00 
       0000A22C 00 00 00 00 00 00 00 00 00 00 
       0000A236 00 00 00 00 00 00 00 00 00 00 
       0000A240 00 00 00 00 00 00 00 00 00 00 
       0000A24A 00 00 00 00 00 00 00 00 00 00 
       0000A254 00 00 00 00 00 00 00 00 00 00 
       0000A25E 00 00 00 00 00 00 00 00 00 00 
       0000A268 00 00 00 00 00 00 00 00 00 00 
       0000A272 00 00 00 00 00 00 00 00 00 00 
       0000A27C 00 00 00 00 00 00 00 00 00 00 
       0000A286 00 00 00 00 00 00 00 00 00 00 
       0000A290 00 00 00 00 00 00 00 00 00 00 
       0000A29A 00 00 00 00 00 00 00 00 00 00 
       0000A2A4 00 00 00 00 00 00 00 00 00 00 
       0000A2AE 00 00 00 00 00 00 00 00 00 00 
       0000A2B8 00 00 00 00 00 00 00 00 00 00 
       0000A2C2 00 00 00 00 00 00 00 00 00 00 
       0000A2CC 00 00 00 00 00 00 00 00 00 00 
       0000A2D6 00 00 00 00 00 00 00 00 00 00 
       0000A2E0 00 00 00 00 00 00 00 00 00 00 
       0000A2EA 00 00 00 00 00 00 00 00 00 00 
       0000A2F4 00 00 00 00 00 00 00 00 00 00 
       0000A2FE 00 00 00 00 00 00 00 00 00 00 
       0000A308 00 00 00 00 00 00 00 00 00 00 
       0000A312 00 00 00 00 00 00 00 00 00 00 
       0000A31C 00 00 00 00 00 00 00 00 00 00 
       0000A326 00 00 00 00 00 00 00 00 00 00 
       0000A330 00 00 00 00 00 00 00 00 00 00 
       0000A33A 00 00 00 00 00 00 00 00 00 00 
       0000A344 00 00 00 00 00 00 00 00 00 00 
       0000A34E 00 00 00 00 00 00 00 00 00 00 
       0000A358 00 00 00 00 00 00 00 00 00 00 
       0000A362 00 00 00 00 00 00 00 00 00 00 
       0000A36C 00 00 00 00 00 00 00 00 00 00 
       0000A376 00 00 00 00 00 00 00 00 00 00 
       0000A380 00 00 00 00 00 00 00 00 00 00 
       0000A38A 00 00 00 00 00 00 00 00 00 00 
       0000A394 00 00 00 00 00 00 00 00 00 00 
       0000A39E 00 00 00 00 00 00 00 00 00 00 
       0000A3A8 00 00 00 00 00 00 00 00 00 00 
       0000A3B2 00 00 00 00 00 00 00 00 00 00 
       0000A3BC 00 00 00 00 00 00 00 00 00 00 
       0000A3C6 00 00 00 00 00 00 00 00 00 00 
       0000A3D0 00 00 00 00 00 00 00 00 00 00 
       0000A3DA 00 00 00 00 00 00 00 00 00 00 
       0000A3E4 00 00 00 00 00 00 00 00 00 00 
       0000A3EE 00 00 00 00 00 00 00 00 00 00 
       0000A3F8 00 00 00 00 00 00 00 00 00 00 
       0000A402 00 00 00 00 00 00 00 00 00 00 
       0000A40C 00 00 00 00 00 00 00 00 00 00 
       0000A416 00 00 00 00 00 00 00 00 00 00 
       0000A420 00 00 00 00 00 00 00 00 00 00 
       0000A42A 00 00 00 00 00 00 00 00 00 00 
       0000A434 00 00 00 00 00 00 00 00 00 00 
       0000A43E 00 00 00 00 00 00 00 00 00 00 
       0000A448 00 00 00 00 00 00 00 00 00 00 
       0000A452 00 00 00 00 00 00 00 00 00 00 
       0000A45C 00 00 00 00 00 00 00 00 00 00 
       0000A466 00 00 00 00 00 00 00 00 00 00 
       0000A470 00 00 00 00 00 00 00 00 00 00 
       0000A47A 00 00 00 00 00 00 00 00 00 00 
       0000A484 00 00 00 00 00 00 00 00 00 00 
       0000A48E 00 00 00 00 00 00 00 00 00 00 
       0000A498 00 00 00 00 00 00 00 00 00 00 
       0000A4A2 00 00 00 00 00 00 00 00 00 00 
       0000A4AC 00 00 00 00 00 00 00 00 00 00 
       0000A4B6 00 00 00 00 00 00 00 00 00 00 
       0000A4C0 00 00 00 00 00 00 00 00 00 00 
       0000A4CA 00 00 00 00 00 00 00 00 00 00 
       0000A4D4 00 00 00 00 00 00 00 00 00 00 
       0000A4DE 00 00 00 00 00 00 00 00 00 00 
       0000A4E8 00 00 00 00 00 00 00 00 00 00 
       0000A4F2 00 00 00 00 00 00 00 00 00 00 
       0000A4FC 00 00 00 00 00 00 00 00 00 00 
       0000A506 00 00 00 00 00 00 00 00 00 00 
       0000A510 00 00 00 00 00 00 00 00 00 00 
       0000A51A 00 00 00 00 00 00 00 00 00 00 
       0000A524 00 00 00 00 00 00 00 00 00 00 
       0000A52E 00 00 00 00 00 00 00 00 00 00 
       0000A538 00 00 00 00 00 00 00 00 00 00 
       0000A542 00 00 00 00 00 00 00 00 00 00 
       0000A54C 00 00 00 00 00 00 00 00 00 00 
       0000A556 00 00 00 00 00 00 00 00 00 00 
       0000A560 00 00 00 00 00 00 00 00 00 00 
       0000A56A 00 00 00 00 00 00 00 00 00 00 
       0000A574 00 00 00 00 00 00 00 00 00 00 
       0000A57E 00 00 00 00 00 00 00 00 00 00 
       0000A588 00 00 00 00 00 00 00 00 00 00 
       0000A592 00 00 00 00 00 00 00 00 00 00 
       0000A59C 00 00 00 00 00 00 00 00 00 00 
       0000A5A6 00 00 00 00 00 00 00 00 00 00 
       0000A5B0 00 00 00 00 00 00 00 00 00 00 
       0000A5BA 00 00 00 00 00 00 00 00 00 00 
       0000A5C4 00 00 00 00 00 00 00 00 00 00 
       0000A5CE 00 00 00 00 00 00 00 00 00 00 
       0000A5D8 00 00 00 00 00 00 00 00 00 00 
       0000A5E2 00 00 00 00 00 00 00 00 00 00 
       0000A5EC 00 00 00 00 00 00 00 00 00 00 
       0000A5F6 00 00 00 00 00 00 00 00 00 00 
       0000A600 00 00 00 00 00 00 00 00 00 00 
       0000A60A 00 00 00 00 00 00 00 00 00 00 
       0000A614 00 00 00 00 00 00 00 00 00 00 
       0000A61E 00 00 00 00 00 00 00 00 00 00 
       0000A628 00 00 00 00 00 00 00 00 00 00 
       0000A632 00 00 00 00 00 00 00 00 00 00 
       0000A63C 00 00 00 00 00 00 00 00 00 00 
       0000A646 00 00 00 00 00 00 00 00 00 00 
       0000A650 00 00 00 00 00 00 00 00 00 00 
       0000A65A 00 00 00 00 00 00 00 00 00 00 
       0000A664 00 00 00 00 00 00 00 00 00 00 
       0000A66E 00 00 00 00 00 00 00 00 00 00 
       0000A678 00 00 00 00 00 00 00 00 00 00 
       0000A682 00 00 00 00 00 00 00 00 00 00 
       0000A68C 00 00 00 00 00 00 00 00 00 00 
       0000A696 00 00 00 00 00 00 00 00 00 00 
       0000A6A0 00 00 00 00 00 00 00 00 00 00 
       0000A6AA 00 00 00 00 00 00 00 00 00 00 
       0000A6B4 00 00 00 00 00 00 00 00 00 00 
       0000A6BE 00 00 00 00 00 00 00 00 00 00 
       0000A6C8 00 00 00 00 00 00 00 00 00 00 
       0000A6D2 00 00 00 00 00 00 00 00 00 00 
       0000A6DC 00 00 00 00 00 00 00 00 00 00 
       0000A6E6 00 00 00 00 00 00 00 00 00 00 
       0000A6F0 00 00 00 00 00 00 00 00 00 00 
       0000A6FA 00 00 00 00 00 00 00 00 00 00 
       0000A704 00 00 00 00 00 00 00 00 00 00 
       0000A70E 00 00 00 00 00 00 00 00 00 00 
       0000A718 00 00 00 00 00 00 00 00 00 00 
       0000A722 00 00 00 00 00 00 00 00 00 00 
       0000A72C 00 00 00 00 00 00 00 00 00 00 
       0000A736 00 00 00 00 00 00 00 00 00 00 
       0000A740 00 00 00 00 00 00 00 00 00 00 
       0000A74A 00 00 00 00 00 00 00 00 00 00 
       0000A754 00 00 00 00 00 00 00 00 00 00 
       0000A75E 00 00 00 00 00 00 00 00 00 00 
       0000A768 00 00 00 00 00 00 00 00 00 00 
       0000A772 00 00 00 00 00 00 00 00 00 00 
       0000A77C 00 00 00 00 00 00 00 00 00 00 
       0000A786 00 00 00 00 00 00 00 00 00 00 
       0000A790 00 00 00 00 00 00 00 00 00 00 
       0000A79A 00 00 00 00 00 00 00 00 00 00 
       0000A7A4 00 00 00 00 00 00 00 00 00 00 
       0000A7AE 00 00 00 00 00 00 00 00 00 00 
       0000A7B8 00 00 00 00 00 00 00 00 00 00 
       0000A7C2 00 00 00 00 00 00 00 00 00 00 
       0000A7CC 00 00 00 00 00 00 00 00 00 00 
       0000A7D6 00 00 00 00 00 00 00 00 00 00 
       0000A7E0 00 00 00 00 00 00 00 00 00 00 
       0000A7EA 00 00 00 00 00 00 00 00 00 00 
       0000A7F4 00 00 00 00 00 00 00 00 00 00 
       0000A7FE 00 00 00 00 00 00 00 00 00 00 
       0000A808 00 00 00 00 00 00 00 00 00 00 
       0000A812 00 00 00 00 00 00 00 00 00 00 
       0000A81C 00 00 00 00 00 00 00 00 00 00 
       0000A826 00 00 00 00 00 00 00 00 00 00 
       0000A830 00 00 00 00 00 00 00 00 00 00 
       0000A83A 00 00 00 00 00 00 00 00 00 00 
       0000A844 00 00 00 00 00 00 00 00 00 00 
       0000A84E 00 00 00 00 00 00 00 00 00 00 
       0000A858 00 00 00 00 00 00 00 00 00 00 
       0000A862 00 00 00 00 00 00 00 00 00 00 
       0000A86C 00 00 00 00 00 00 00 00 00 00 
       0000A876 00 00 00 00 00 00 00 00 00 00 
       0000A880 00 00 00 00 00 00 00 00 00 00 
       0000A88A 00 00 00 00 00 00 00 00 00 00 
       0000A894 00 00 00 00 00 00 00 00 00 00 
       0000A89E 00 00 00 00 00 00 00 00 00 00 
       0000A8A8 00 00 00 00 00 00 00 00 00 00 
       0000A8B2 00 00 00 00 00 00 00 00 00 00 
       0000A8BC 00 00 00 00 00 00 00 00 00 00 
       0000A8C6 00 00 00 00 00 00 00 00 00 00 
       0000A8D0 00 00 00 00 00 00 00 00 00 00 
       0000A8DA 00 00 00 00 00 00 00 00 00 00 
       0000A8E4 00 00 00 00 00 00 00 00 00 00 
       0000A8EE 00 00 00 00 00 00 00 00 00 00 
       0000A8F8 00 00 00 00 00 00 00 00 00 00 
       0000A902 00 00 00 00 00 00 00 00 00 00 
       0000A90C 00 00 00 00 00 00 00 00 00 00 
       0000A916 00 00 00 00 00 00 00 00 00 00 
       0000A920 00 00 00 00 00 00 00 00 00 00 
       0000A92A 00 00 00 00 00 00 00 00 00 00 
       0000A934 00 00 00 00 00 00 00 00 00 00 
       0000A93E 00 00 00 00 00 00 00 00 00 00 
       0000A948 00 00 00 00 00 00 00 00 00 00 
       0000A952 00 00 00 00 00 00 00 00 00 00 
       0000A95C 00 00 00 00 00 00 00 00 00 00 
       0000A966 00 00 00 00 00 00 00 00 00 00 
       0000A970 00 00 00 00 00 00 00 00 00 00 
       0000A97A 00 00 00 00 00 00 00 00 00 00 
       0000A984 00 00 00 00 00 00 00 00 00 00 
       0000A98E 00 00 00 00 00 00 00 00 00 00 
       0000A998 00 00 00 00 00 00 00 00 00 00 
       0000A9A2 00 00 00 00 00 00 00 00 00 00 
       0000A9AC 00 00 00 00 00 00 00 00 00 00 
       0000A9B6 00 00 00 00 00 00 00 00 00 00 
       0000A9C0 00 00 00 00 00 00 00 00 00 00 
       0000A9CA 00 00 00 00 00 00 00 00 00 00 
       0000A9D4 00 00 00 00 00 00 00 00 00 00 
       0000A9DE 00 00 00 00 00 00 00 00 00 00 
       0000A9E8 00 00 00 00 00 00 00 00 00 00 
       0000A9F2 00 00 00 00 00 00 00 00 00 00 
       0000A9FC 00 00 00 00 00 00 00 00 00 00 
       0000AA06 00 00 00 00 00 00 00 00 00 00 
       0000AA10 00 00 00 00 00 00 00 00 00 00 
       0000AA1A 00 00 00 00 00 00 00 00 00 00 
       0000AA24 00 00 00 00 00 00 00 00 00 00 
       0000AA2E 00 00 00 00 00 00 00 00 00 00 
       0000AA38 00 00 00 00 00 00 00 00 00 00 
       0000AA42 00 00 00 00 00 00 00 00 00 00 
       0000AA4C 00 00 00 00 00 00 00 00 00 00 
       0000AA56 00 00 00 00 00 00 00 00 00 00 
       0000AA60 00 00 00 00 00 00 00 00 00 00 
       0000AA6A 00 00 00 00 00 00 00 00 00 00 
       0000AA74 00 00 00 00 00 00 00 00 00 00 
       0000AA7E 00 00 00 00 00 00 00 00 00 00 
       0000AA88 00 00 00 00 00 00 00 00 00 00 
       0000AA92 00 00 00 00 00 00 00 00 00 00 
       0000AA9C 00 00 00 00 00 00 00 00 00 00 
       0000AAA6 00 00 00 00 00 00 00 00 00 00 
       0000AAB0 00 00 00 00 00 00 00 00 00 00 
       0000AABA 00 00 00 00 00 00 00 00 00 00 
       0000AAC4 00 00 00 00 00 00 00 00 00 00 
       0000AACE 00 00 00 00 00 00 00 00 00 00 
       0000AAD8 00 00 00 00 00 00 00 00 00 00 
       0000AAE2 00 00 00 00 00 00 00 00 00 00 
       0000AAEC 00 00 00 00 00 00 00 00 00 00 
       0000AAF6 00 00 00 00 00 00 00 00 00 00 
       0000AB00 00 00 00 00 00 00 00 00 00 00 
       0000AB0A 00 00 00 00 00 00 00 00 00 00 
       0000AB14 00 00 00 00 00 00 00 00 00 00 
       0000AB1E 00 00 00 00 00 00 00 00 00 00 
       0000AB28 00 00 00 00 00 00 00 00 00 00 
       0000AB32 00 00 00 00 00 00 00 00 00 00 
       0000AB3C 00 00 00 00 00 00 00 00 00 00 
       0000AB46 00 00 00 00 00 00 00 00 00 00 
       0000AB50 00 00 00 00 00 00 00 00 00 00 
       0000AB5A 00 00 00 00 00 00 00 00 00 00 
       0000AB64 00 00 00 00 00 00 00 00 00 00 
       0000AB6E 00 00 00 00 00 00 00 00 00 00 
       0000AB78 00 00 00 00 00 00 00 00 00 00 
       0000AB82 00 00 00 00 00 00 00 00 00 00 
       0000AB8C 00 00 00 00 00 00 00 00 00 00 
       0000AB96 00 00 00 00 00 00 00 00 00 00 
       0000ABA0 00 00 00 00 00 00 00 00 00 00 
       0000ABAA 00 00 00 00 00 00 00 00 00 00 
       0000ABB4 00 00 00 00 00 00 00 00 00 00 
       0000ABBE 00 00 00 00 00 00 00 00 00 00 
       0000ABC8 00 00 00 00 00 00 00 00 00 00 
       0000ABD2 00 00 00 00 00 00 00 00 00 00 
       0000ABDC 00 00 00 00 00 00 00 00 00 00 
       0000ABE6 00 00 00 00 00 00 00 00 00 00 
       0000ABF0 00 00 00 00 00 00 00 00 00 00 
       0000ABFA 00 00 00 00 00 00 00 00 00 00 
       0000AC04 00 00 00 00 00 00 00 00 00 00 
       0000AC0E 00 00 00 00 00 00 00 00 00 00 
       0000AC18 00 00 00 00 00 00 00 00 00 00 
       0000AC22 00 00 00 00 00 00 00 00 00 00 
       0000AC2C 00 00 00 00 00 00 00 00 00 00 
       0000AC36 00 00 00 00 00 00 00 00 00 00 
       0000AC40 00 00 00 00 00 00 00 00 00 00 
       0000AC4A 00 00 00 00 00 00 00 00 00 00 
       0000AC54 00 00 00 00 00 00 00 00 00 00 
       0000AC5E 00 00 00 00 00 00 00 00 00 00 
       0000AC68 00 00 00 00 00 00 00 00 00 00 
       0000AC72 00 00 00 00 00 00 00 00 00 00 
       0000AC7C 00 00 00 00 00 00 00 00 00 00 
       0000AC86 00 00 00 00 00 00 00 00 00 00 
       0000AC90 00 00 00 00 00 00 00 00 00 00 
       0000AC9A 00 00 00 00 00 00 00 00 00 00 
       0000ACA4 00 00 00 00 00 00 00 00 00 00 
       0000ACAE 00 00 00 00 00 00 00 00 00 00 
       0000ACB8 00 00 00 00 00 00 00 00 00 00 
       0000ACC2 00 00 00 00 00 00 00 00 00 00 
       0000ACCC 00 00 00 00 00 00 00 00 00 00 
       0000ACD6 00 00 00 00 00 00 00 00 00 00 
       0000ACE0 00 00 00 00 00 00 00 00 00 00 
       0000ACEA 00 00 00 00 00 00 00 00 00 00 
       0000ACF4 00 00 00 00 00 00 00 00 00 00 
       0000ACFE 00 00 00 00 00 00 00 00 00 00 
       0000AD08 00 00 00 00 00 00 00 00 00 00 
       0000AD12 00 00 00 00 00 00 00 00 00 00 
       0000AD1C 00 00 00 00 00 00 00 00 00 00 
       0000AD26 00 00 00 00 00 00 00 00 00 00 
       0000AD30 00 00 00 00 00 00 00 00 00 00 
       0000AD3A 00 00 00 00 00 00 00 00 00 00 
       0000AD44 00 00 00 00 00 00 00 00 00 00 
       0000AD4E 00 00 00 00 00 00 00 00 00 00 
       0000AD58 00 00 00 00 00 00 00 00 00 00 
       0000AD62 00 00 00 00 00 00 00 00 00 00 
       0000AD6C 00 00 00 00 00 00 00 00 00 00 
       0000AD76 00 00 00 00 00 00 00 00 00 00 
       0000AD80 00 00 00 00 00 00 00 00 00 00 
       0000AD8A 00 00 00 00 00 00 00 00 00 00 
       0000AD94 00 00 00 00 00 00 00 00 00 00 
       0000AD9E 00 00 00 00 00 00 00 00 00 00 
       0000ADA8 00 00 00 00 00 00 00 00 00 00 
       0000ADB2 00 00 00 00 00 00 00 00 00 00 
       0000ADBC 00 00 00 00 00 00 00 00 00 00 
       0000ADC6 00 00 00 00 00 00 00 00 00 00 
       0000ADD0 00 00 00 00 00 00 00 00 00 00 
       0000ADDA 00 00 00 00 00 00 00 00 00 00 
       0000ADE4 00 00 00 00 00 00 00 00 00 00 
       0000ADEE 00 00 00 00 00 00 00 00 00 00 
       0000ADF8 00 00 00 00 00 00 00 00 00 00 
       0000AE02 00 00 00 00 00 00 00 00 00 00 
       0000AE0C 00 00 00 00 00 00 00 00 00 00 
       0000AE16 00 00 00 00 00 00 00 00 00 00 
       0000AE20 00 00 00 00 00 00 00 00 00 00 
       0000AE2A 00 00 00 00 00 00 00 00 00 00 
       0000AE34 00 00 00 00 00 00 00 00 00 00 
       0000AE3E 00 00 00 00 00 00 00 00 00 00 
       0000AE48 00 00 00 00 00 00 00 00 00 00 
       0000AE52 00 00 00 00 00 00 00 00 00 00 
       0000AE5C 00 00 00 00 00 00 00 00 00 00 
       0000AE66 00 00 00 00 00 00 00 00 00 00 
       0000AE70 00 00 00 00 00 00 00 00 00 00 
       0000AE7A 00 00 00 00 00 00 00 00 00 00 
       0000AE84 00 00 00 00 00 00 00 00 00 00 
       0000AE8E 00 00 00 00 00 00 00 00 00 00 
       0000AE98 00 00 00 00 00 00 00 00 00 00 
       0000AEA2 00 00 00 00 00 00 00 00 00 00 
       0000AEAC 00 00 00 00 00 00 00 00 00 00 
       0000AEB6 00 00 00 00 00 00 00 00 00 00 
       0000AEC0 00 00 00 00 00 00 00 00 00 00 
       0000AECA 00 00 00 00 00 00 00 00 00 00 
       0000AED4 00 00 00 00 00 00 00 00 00 00 
       0000AEDE 00 00 00 00 00 00 00 00 00 00 
       0000AEE8 00 00 00 00 00 00 00 00 00 00 
       0000AEF2 00 00 00 00 00 00 00 00 00 00 
       0000AEFC 00 00 00 00 00 00 00 00 00 00 
       0000AF06 00 00 00 00 00 00 00 00 00 00 
       0000AF10 00 00 00 00 00 00 00 00 00 00 
       0000AF1A 00 00 00 00 00 00 00 00 00 00 
       0000AF24 00 00 00 00 00 00 00 00 00 00 
       0000AF2E 00 00 00 00 00 00 00 00 00 00 
       0000AF38 00 00 00 00 00 00 00 00 00 00 
       0000AF42 00 00 00 00 00 00 00 00 00 00 
       0000AF4C 00 00 00 00 00 00 00 00 00 00 
       0000AF56 00 00 00 00 00 00 00 00 00 00 
       0000AF60 00 00 00 00 00 00 00 00 00 00 
       0000AF6A 00 00 00 00 00 00 00 00 00 00 
       0000AF74 00 00 00 00 00 00 00 00 00 00 
       0000AF7E 00 00 00 00 00 00 00 00 00 00 
       0000AF88 00 00 00 00 00 00 00 00 00 00 
       0000AF92 00 00 00 00 00 00 00 00 00 00 
       0000AF9C 00 00 00 00 00 00 00 00 00 00 
       0000AFA6 00 00 00 00 00 00 00 00 00 00 
       0000AFB0 00 00 00 00 00 00 00 00 00 00 
       0000AFBA 00 00 00 00 00 00 00 00 00 00 
       0000AFC4 00 00 00 00 00 00 00 00 00 00 
       0000AFCE 00 00 00 00 00 00 00 00 00 00 
       0000AFD8 00 00 00 00 00 00 00 00 00 00 
       0000AFE2 00 00 00 00 00 00 00 00 00 00 
       0000AFEC 00 00 00 00 00 00 00 00 00 00 
       0000AFF6 00 00 00 00 00 00 00 00 00 00 
       0000B000 00 00 00 00 00 00 00 00 00 00 
       0000B00A 00 00 00 00 00 00 00 00 00 00 
       0000B014 00 00 00 00 00 00 00 00 00 00 
       0000B01E 00 00 00 00 00 00 00 00 00 00 
       0000B028 00 00 00 00 00 00 00 00 00 00 
       0000B032 00 00 00 00 00 00 00 00 00 00 
       0000B03C 00 00 00 00 00 00 00 00 00 00 
       0000B046 00 00 00 00 00 00 00 00 00 00 
       0000B050 00 00 00 00 00 00 00 00 00 00 
       0000B05A 00 00 00 00 00 00 00 00 00 00 
       0000B064 00 00 00 00 00 00 00 00 00 00 
       0000B06E 00 00 00 00 00 00 00 00 00 00 
       0000B078 00 00 00 00 00 00 00 00 00 00 
       0000B082 00 00 00 00 00 00 00 00 00 00 
       0000B08C 00 00 00 00 00 00 00 00 00 00 
       0000B096 00 00 00 00 00 00 00 00 00 00 
       0000B0A0 00 00 00 00 00 00 00 00 00 00 
       0000B0AA 00 00 00 00 00 00 00 00 00 00 
       0000B0B4 00 00 00 00 00 00 00 00 00 00 
       0000B0BE 00 00 00 00 00 00 00 00 00 00 
       0000B0C8 00 00 00 00 00 00 00 00 00 00 
       0000B0D2 00 00 00 00 00 00 00 00 00 00 
       0000B0DC 00 00 00 00 00 00 00 00 00 00 
       0000B0E6 00 00 00 00 00 00 00 00 00 00 
       0000B0F0 00 00 00 00 00 00 00 00 00 00 
       0000B0FA 00 00 00 00 00 00 00 00 00 00 
       0000B104 00 00 00 00 00 00 00 00 00 00 
       0000B10E 00 00 00 00 00 00 00 00 00 00 
       0000B118 00 00 00 00 00 00 00 00 00 00 
       0000B122 00 00 00 00 00 00 00 00 00 00 
       0000B12C 00 00 00 00 00 00 00 00 00 00 
       0000B136 00 00 00 00 00 00 00 00 00 00 
       0000B140 00 00 00 00 00 00 00 00 00 00 
       0000B14A 00 00 00 00 00 00 00 00 00 00 
       0000B154 00 00 00 00 00 00 00 00 00 00 
       0000B15E 00 00 00 00 00 00 00 00 00 00 
       0000B168 00 00 00 00 00 00 00 00 00 00 
       0000B172 00 00 00 00 00 00 00 00 00 00 
       0000B17C 00 00 00 00 00 00 00 00 00 00 
       0000B186 00 00 00 00 00 00 00 00 00 00 
       0000B190 00 00 00 00 00 00 00 00 00 00 
       0000B19A 00 00 00 00 00 00 00 00 00 00 
       0000B1A4 00 00 00 00 00 00 00 00 00 00 
       0000B1AE 00 00 00 00 00 00 00 00 00 00 
       0000B1B8 00 00 00 00 00 00 00 00 00 00 
       0000B1C2 00 00 00 00 00 00 00 00 00 00 
       0000B1CC 00 00 00 00 00 00 00 00 00 00 
       0000B1D6 00 00 00 00 00 00 00 00 00 00 
       0000B1E0 00 00 00 00 00 00 00 00 00 00 
       0000B1EA 00 00 00 00 00 00 00 00 00 00 
       0000B1F4 00 00 00 00 00 00 00 00 00 00 
       0000B1FE 00 00 00 00 00 00 00 00 00 00 
       0000B208 00 00 00 00 00 00 00 00 00 00 
       0000B212 00 00 00 00 00 00 00 00 00 00 
       0000B21C 00 00 00 00 00 00 00 00 00 00 
       0000B226 00 00 00 00 00 00 00 00 00 00 
       0000B230 00 00 00 00 00 00 00 00 00 00 
       0000B23A 00 00 00 00 00 00 00 00 00 00 
       0000B244 00 00 00 00 00 00 00 00 00 00 
       0000B24E 00 00 00 00 00 00 00 00 00 00 
       0000B258 00 00 00 00 00 00 00 00 00 00 
       0000B262 00 00 00 00 00 00 00 00 00 00 
       0000B26C 00 00 00 00 00 00 00 00 00 00 
       0000B276 00 00 00 00 00 00 00 00 00 00 
       0000B280 00 00 00 00 00 00 00 00 00 00 
       0000B28A 00 00 00 00 00 00 00 00 00 00 
       0000B294 00 00 00 00 00 00 00 00 00 00 
       0000B29E 00 00 00 00 00 00 00 00 00 00 
       0000B2A8 00 00 00 00 00 00 00 00 00 00 
       0000B2B2 00 00 00 00 00 00 00 00 00 00 
       0000B2BC 00 00 00 00 00 00 00 00 00 00 
       0000B2C6 00 00 00 00 00 00 00 00 00 00 
       0000B2D0 00 00 00 00 00 00 00 00 00 00 
       0000B2DA 00 00 00 00 00 00 00 00 00 00 
       0000B2E4 00 00 00 00 00 00 00 00 00 00 
       0000B2EE 00 00 00 00 00 00 00 00 00 00 
       0000B2F8 00 00 00 00 00 00 00 00 00 00 
       0000B302 00 00 00 00 00 00 00 00 00 00 
       0000B30C 00 00 00 00 00 00 00 00 00 00 
       0000B316 00 00 00 00 00 00 00 00 00 00 
       0000B320 00 00 00 00 00 00 00 00 00 00 
       0000B32A 00 00 00 00 00 00 00 00 00 00 
       0000B334 00 00 00 00 00 00 00 00 00 00 
       0000B33E 00 00 00 00 00 00 00 00 00 00 
       0000B348 00 00 00 00 00 00 00 00 00 00 
       0000B352 00 00 00 00 00 00 00 00 00 00 
       0000B35C 00 00 00 00 00 00 00 00 00 00 
       0000B366 00 00 00 00 00 00 00 00 00 00 
       0000B370 00 00 00 00 00 00 00 00 00 00 
       0000B37A 00 00 00 00 00 00 00 00 00 00 
       0000B384 00 00 00 00 00 00 00 00 00 00 
       0000B38E 00 00 00 00 00 00 00 00 00 00 
       0000B398 00 00 00 00 00 00 00 00 00 00 
       0000B3A2 00 00 00 00 00 00 00 00 00 00 
       0000B3AC 00 00 00 00 00 00 00 00 00 00 
       0000B3B6 00 00 00 00 00 00 00 00 00 00 
       0000B3C0 00 00 00 00 00 00 00 00 00 00 
       0000B3CA 00 00 00 00 00 00 00 00 00 00 
       0000B3D4 00 00 00 00 00 00 00 00 00 00 
       0000B3DE 00 00 00 00 00 00 00 00 00 00 
       0000B3E8 00 00 00 00 00 00 00 00 00 00 
       0000B3F2 00 00 00 00 00 00 00 00 00 00 
       0000B3FC 00 00 00 00 00 00 00 00 00 00 
       0000B406 00 00 00 00 00 00 00 00 00 00 
       0000B410 00 00 00 00 00 00 00 00 00 00 
       0000B41A 00 00 00 00 00 00 00 00 00 00 
       0000B424 00 00 00 00 00 00 00 00 00 00 
       0000B42E 00 00 00 00 00 00 00 00 00 00 
       0000B438 00 00 00 00 00 00 00 00 00 00 
       0000B442 00 00 00 00 00 00 00 00 00 00 
       0000B44C 00 00 00 00 00 00 00 00 00 00 
       0000B456 00 00 00 00 00 00 00 00 00 00 
       0000B460 00 00 00 00 00 00 00 00 00 00 
       0000B46A 00 00 00 00 00 00 00 00 00 00 
       0000B474 00 00 00 00 00 00 00 00 00 00 
       0000B47E 00 00 00 00 00 00 00 00 00 00 
       0000B488 00 00 00 00 00 00 00 00 00 00 
       0000B492 00 00 00 00 00 00 00 00 00 00 
       0000B49C 00 00 00 00 00 00 00 00 00 00 
       0000B4A6 00 00 00 00 00 00 00 00 00 00 
       0000B4B0 00 00 00 00 00 00 00 00 00 00 
       0000B4BA 00 00 00 00 00 00 00 00 00 00 
       0000B4C4 00 00 00 00 00 00 00 00 00 00 
       0000B4CE 00 00 00 00 00 00 00 00 00 00 
       0000B4D8 00 00 00 00 00 00 00 00 00 00 
       0000B4E2 00 00 00 00 00 00 00 00 00 00 
       0000B4EC 00 00 00 00 00 00 00 00 00 00 
       0000B4F6 00 00 00 00 00 00 00 00 00 00 
       0000B500 00 00 00 00 00 00 00 00 00 00 
       0000B50A 00 00 00 00 00 00 00 00 00 00 
       0000B514 00 00 00 00 00 00 00 00 00 00 
       0000B51E 00 00 00 00 00 00 00 00 00 00 
       0000B528 00 00 00 00 00 00 00 00 00 00 
       0000B532 00 00 00 00 00 00 00 00 00 00 
       0000B53C 00 00 00 00 00 00 00 00 00 00 
       0000B546 00 00 00 00 00 00 00 00 00 00 
       0000B550 00 00 00 00 00 00 00 00 00 00 
       0000B55A 00 00 00 00 00 00 00 00 00 00 
       0000B564 00 00 00 00 00 00 00 00 00 00 
       0000B56E 00 00 00 00 00 00 00 00 00 00 
       0000B578 00 00 00 00 00 00 00 00 00 00 
       0000B582 00 00 00 00 00 00 00 00 00 00 
       0000B58C 00 00 00 00 00 00 00 00 00 00 
       0000B596 00 00 00 00 00 00 00 00 00 00 
       0000B5A0 00 00 00 00 00 00 00 00 00 00 
       0000B5AA 00 00 00 00 00 00 00 00 00 00 
       0000B5B4 00 00 00 00 00 00 00 00 00 00 
       0000B5BE 00 00 00 00 00 00 00 00 00 00 
       0000B5C8 00 00 00 00 00 00 00 00 00 00 
       0000B5D2 00 00 00 00 00 00 00 00 00 00 
       0000B5DC 00 00 00 00 00 00 00 00 00 00 
       0000B5E6 00 00 00 00 00 00 00 00 00 00 
       0000B5F0 00 00 00 00 00 00 00 00 00 00 
       0000B5FA 00 00 00 00 00 00 00 00 00 00 
       0000B604 00 00 00 00 00 00 00 00 00 00 
       0000B60E 00 00 00 00 00 00 00 00 00 00 
       0000B618 00 00 00 00 00 00 00 00 00 00 
       0000B622 00 00 00 00 00 00 00 00 00 00 
       0000B62C 00 00 00 00 00 00 00 00 00 00 
       0000B636 00 00 00 00 00 00 00 00 00 00 
       0000B640 00 00 00 00 00 00 00 00 00 00 
       0000B64A 00 00 00 00 00 00 00 00 00 00 
       0000B654 00 00 00 00 00 00 00 00 00 00 
       0000B65E 00 00 00 00 00 00 00 00 00 00 
       0000B668 00 00 00 00 00 00 00 00 00 00 
       0000B672 00 00 00 00 00 00 00 00 00 00 
       0000B67C 00 00 00 00 00 00 00 00 00 00 
       0000B686 00 00 00 00 00 00 00 00 00 00 
       0000B690 00 00 00 00 00 00 00 00 00 00 
       0000B69A 00 00 00 00 00 00 00 00 00 00 
       0000B6A4 00 00 00 00 00 00 00 00 00 00 
       0000B6AE 00 00 00 00 00 00 00 00 00 00 
       0000B6B8 00 00 00 00 00 00 00 00 00 00 
       0000B6C2 00 00 00 00 00 00 00 00 00 00 
       0000B6CC 00 00 00 00 00 00 00 00 00 00 
       0000B6D6 00 00 00 00 00 00 00 00 00 00 
       0000B6E0 00 00 00 00 00 00 00 00 00 00 
       0000B6EA 00 00 00 00 00 00 00 00 00 00 
       0000B6F4 00 00 00 00 00 00 00 00 00 00 
       0000B6FE 00 00 00 00 00 00 00 00 00 00 
       0000B708 00 00 00 00 00 00 00 00 00 00 
       0000B712 00 00 00 00 00 00 00 00 00 00 
       0000B71C 00 00 00 00 00 00 00 00 00 00 
       0000B726 00 00 00 00 00 00 00 00 00 00 
       0000B730 00 00 00 00 00 00 00 00 00 00 
       0000B73A 00 00 00 00 00 00 00 00 00 00 
       0000B744 00 00 00 00 00 00 00 00 00 00 
       0000B74E 00 00 00 00 00 00 00 00 00 00 
       0000B758 00 00 00 00 00 00 00 00 00 00 
       0000B762 00 00 00 00 00 00 00 00 00 00 
       0000B76C 00 00 00 00 00 00 00 00 00 00 
       0000B776 00 00 00 00 00 00 00 00 00 00 
       0000B780 00 00 00 00 00 00 00 00 00 00 
       0000B78A 00 00 00 00 00 00 00 00 00 00 
       0000B794 00 00 00 00 00 00 00 00 00 00 
       0000B79E 00 00 00 00 00 00 00 00 00 00 
       0000B7A8 00 00 00 00 00 00 00 00 00 00 
       0000B7B2 00 00 00 00 00 00 00 00 00 00 
       0000B7BC 00 00 00 00 00 00 00 00 00 00 
       0000B7C6 00 00 00 00 00 00 00 00 00 00 
       0000B7D0 00 00 00 00 00 00 00 00 00 00 
       0000B7DA 00 00 00 00 00 00 00 00 00 00 
       0000B7E4 00 00 00 00 00 00 00 00 00 00 
       0000B7EE 00 00 00 00 00 00 00 00 00 00 
       0000B7F8 00 00 00 00 00 00 00 00 00 00 
       0000B802 00 00 00 00 00 00 00 00 00 00 
       0000B80C 00 00 00 00 00 00 00 00 00 00 
       0000B816 00 00 00 00 00 00 00 00 00 00 
       0000B820 00 00 00 00 00 00 00 00 00 00 
       0000B82A 00 00 00 00 00 00 00 00 00 00 
       0000B834 00 00 00 00 00 00 00 00 00 00 
       0000B83E 00 00 00 00 00 00 00 00 00 00 
       0000B848 00 00 00 00 00 00 00 00 00 00 
       0000B852 00 00 00 00 00 00 00 00 00 00 
       0000B85C 00 00 00 00 00 00 00 00 00 00 
       0000B866 00 00 00 00 00 00 00 00 00 00 
       0000B870 00 00 00 00 00 00 00 00 00 00 
       0000B87A 00 00 00 00 00 00 00 00 00 00 
       0000B884 00 00 00 00 00 00 00 00 00 00 
       0000B88E 00 00 00 00 00 00 00 00 00 00 
       0000B898 00 00 00 00 00 00 00 00 00 00 
       0000B8A2 00 00 00 00 00 00 00 00 00 00 
       0000B8AC 00 00 00 00 00 00 00 00 00 00 
       0000B8B6 00 00 00 00 00 00 00 00 00 00 
       0000B8C0 00 00 00 00 00 00 00 00 00 00 
       0000B8CA 00 00 00 00 00 00 00 00 00 00 
       0000B8D4 00 00 00 00 00 00 00 00 00 00 
       0000B8DE 00 00 00 00 00 00 00 00 00 00 
       0000B8E8 00 00 00 00 00 00 00 00 00 00 
       0000B8F2 00 00 00 00 00 00 00 00 00 00 
       0000B8FC 00 00 00 00 00 00 00 00 00 00 
       0000B906 00 00 00 00 00 00 00 00 00 00 
       0000B910 00 00 00 00 00 00 00 00 00 00 
       0000B91A 00 00 00 00 00 00 00 00 00 00 
       0000B924 00 00 00 00 00 00 00 00 00 00 
       0000B92E 00 00 00 00 00 00 00 00 00 00 
       0000B938 00 00 00 00 00 00 00 00 00 00 
       0000B942 00 00 00 00 00 00 00 00 00 00 
       0000B94C 00 00 00 00 00 00 00 00 00 00 
       0000B956 00 00 00 00 00 00 00 00 00 00 
       0000B960 00 00 00 00 00 00 00 00 00 00 
       0000B96A 00 00 00 00 00 00 00 00 00 00 
       0000B974 00 00 00 00 00 00 00 00 00 00 
       0000B97E 00 00 00 00 00 00 00 00 00 00 
       0000B988 00 00 00 00 00 00 00 00 00 00 
       0000B992 00 00 00 00 00 00 00 00 00 00 
       0000B99C 00 00 00 00 00 00 00 00 00 00 
       0000B9A6 00 00 00 00 00 00 00 00 00 00 
       0000B9B0 00 00 00 00 00 00 00 00 00 00 
       0000B9BA 00 00 00 00 00 00 00 00 00 00 
       0000B9C4 00 00 00 00 00 00 00 00 00 00 
       0000B9CE 00 00 00 00 00 00 00 00 00 00 
       0000B9D8 00 00 00 00 00 00 00 00 00 00 
       0000B9E2 00 00 00 00 00 00 00 00 00 00 
       0000B9EC 00 00 00 00 00 00 00 00 00 00 
       0000B9F6 00 00 00 00 00 00 00 00 00 00 
       0000BA00 00 00 00 00 00 00 00 00 00 00 
       0000BA0A 00 00 00 00 00 00 00 00 00 00 
       0000BA14 00 00 00 00 00 00 00 00 00 00 
       0000BA1E 00 00 00 00 00 00 00 00 00 00 
       0000BA28 00 00 00 00 00 00 00 00 00 00 
       0000BA32 00 00 00 00 00 00 00 00 00 00 
       0000BA3C 00 00 00 00 00 00 00 00 00 00 
       0000BA46 00 00 00 00 00 00 00 00 00 00 
       0000BA50 00 00 00 00 00 00 00 00 00 00 
       0000BA5A 00 00 00 00 00 00 00 00 00 00 
       0000BA64 00 00 00 00 00 00 00 00 00 00 
       0000BA6E 00 00 00 00 00 00 00 00 00 00 
       0000BA78 00 00 00 00 00 00 00 00 00 00 
       0000BA82 00 00 00 00 00 00 00 00 00 00 
       0000BA8C 00 00 00 00 00 00 00 00 00 00 
       0000BA96 00 00 00 00 00 00 00 00 00 00 
       0000BAA0 00 00 00 00 00 00 00 00 00 00 
       0000BAAA 00 00 00 00 00 00 00 00 00 00 
       0000BAB4 00 00 00 00 00 00 00 00 00 00 
       0000BABE 00 00 00 00 00 00 00 00 00 00 
       0000BAC8 00 00 00 00 00 00 00 00 00 00 
       0000BAD2 00 00 00 00 00 00 00 00 00 00 
       0000BADC 00 00 00 00 00 00 00 00 00 00 
       0000BAE6 00 00 00 00 00 00 00 00 00 00 
       0000BAF0 00 00 00 00 00 00 00 00 00 00 
       0000BAFA 00 00 00 00 00 00 00 00 00 00 
       0000BB04 00 00 00 00 00 00 00 00 00 00 
       0000BB0E 00 00 00 00 00 00 00 00 00 00 
       0000BB18 00 00 00 00 00 00 00 00 00 00 
       0000BB22 00 00 00 00 00 00 00 00 00 00 
       0000BB2C 00 00 00 00 00 00 00 00 00 00 
       0000BB36 00 00 00 00 00 00 00 00 00 00 
       0000BB40 00 00 00 00 00 00 00 00 00 00 
       0000BB4A 00 00 00 00 00 00 00 00 00 00 
       0000BB54 00 00 00 00 00 00 00 00 00 00 
       0000BB5E 00 00 00 00 00 00 00 00 00 00 
       0000BB68 00 00 00 00 00 00 00 00 00 00 
       0000BB72 00 00 00 00 00 00 00 00 00 00 
       0000BB7C 00 00 00 00 00 00 00 00 00 00 
       0000BB86 00 00 00 00 00 00 00 00 00 00 
       0000BB90 00 00 00 00 00 00 00 00 00 00 
       0000BB9A 00 00 00 00 00 00 00 00 00 00 
       0000BBA4 00 00 00 00 00 00 00 00 00 00 
       0000BBAE 00 00 00 00 00 00 00 00 00 00 
       0000BBB8 00 00 00 00 00 00 00 00 00 00 
       0000BBC2 00 00 00 00 00 00 00 00 00 00 
       0000BBCC 00 00 00 00 00 00 00 00 00 00 
       0000BBD6 00 00 00 00 00 00 00 00 00 00 
       0000BBE0 00 00 00 00 00 00 00 00 00 00 
       0000BBEA 00 00 00 00 00 00 00 00 00 00 
       0000BBF4 00 00 00 00 00 00 00 00 00 00 
       0000BBFE 00 00 00 00 00 00 00 00 00 00 
       0000BC08 00 00 00 00 00 00 00 00 00 00 
       0000BC12 00 00 00 00 00 00 00 00 00 00 
       0000BC1C 00 00 00 00 00 00 00 00 00 00 
       0000BC26 00 00 00 00 00 00 00 00 00 00 
       0000BC30 00 00 00 00 00 00 00 00 00 00 
       0000BC3A 00 00 00 00 00 00 00 00 00 00 
       0000BC44 00 00 00 00 00 00 00 00 00 00 
       0000BC4E 00 00 00 00 00 00 00 00 00 00 
       0000BC58 00 00 00 00 00 00 00 00 00 00 
       0000BC62 00 00 00 00 00 00 00 00 00 00 
       0000BC6C 00 00 00 00 00 00 00 00 00 00 
       0000BC76 00 00 00 00 00 00 00 00 00 00 
       0000BC80 00 00 00 00 00 00 00 00 00 00 
       0000BC8A 00 00 00 00 00 00 00 00 00 00 
       0000BC94 00 00 00 00 00 00 00 00 00 00 
       0000BC9E 00 00 00 00 00 00 00 00 00 00 
       0000BCA8 00 00 00 00 00 00 00 00 00 00 
       0000BCB2 00 00 00 00 00 00 00 00 00 00 
       0000BCBC 00 00 00 00 00 00 00 00 00 00 
       0000BCC6 00 00 00 00 00 00 00 00 00 00 
       0000BCD0 00 00 00 00 00 00 00 00 00 00 
       0000BCDA 00 00 00 00 00 00 00 00 00 00 
       0000BCE4 00 00 00 00 00 00 00 00 00 00 
       0000BCEE 00 00 00 00 00 00 00 00 00 00 
       0000BCF8 00 00 00 00 00 00 00 00 00 00 
       0000BD02 00 00 00 00 00 00 00 00 00 00 
       0000BD0C 00 00 00 00 00 00 00 00 00 00 
       0000BD16 00 00 00 00 00 00 00 00 00 00 
       0000BD20 00 00 00 00 00 00 00 00 00 00 
       0000BD2A 00 00 00 00 00 00 00 00 00 00 
       0000BD34 00 00 00 00 00 00 00 00 00 00 
       0000BD3E 00 00 00 00 00 00 00 00 00 00 
       0000BD48 00 00 00 00 00 00 00 00 00 00 
       0000BD52 00 00 00 00 00 00 00 00 00 00 
       0000BD5C 00 00 00 00 00 00 00 00 00 00 
       0000BD66 00 00 00 00 00 00 00 00 00 00 
       0000BD70 00 00 00 00 00 00 00 00 00 00 
       0000BD7A 00 00 00 00 00 00 00 00 00 00 
       0000BD84 00 00 00 00 00 00 00 00 00 00 
       0000BD8E 00 00 00 00 00 00 00 00 00 00 
       0000BD98 00 00 00 00 00 00 00 00 00 00 
       0000BDA2 00 00 00 00 00 00 00 00 00 00 
       0000BDAC 00 00 00 00 00 00 00 00 00 00 
       0000BDB6 00 00 00 00 00 00 00 00 00 00 
       0000BDC0 00 00 00 00 00 00 00 00 00 00 
       0000BDCA 00 00 00 00 00 00 00 00 00 00 
       0000BDD4 00 00 00 00 00 00 00 00 00 00 
       0000BDDE 00 00 00 00 00 00 00 00 00 00 
       0000BDE8 00 00 00 00 00 00 00 00 00 00 
       0000BDF2 00 00 00 00 00 00 00 00 00 00 
       0000BDFC 00 00 00 00 00 00 00 00 00 00 
       0000BE06 00 00 00 00 00 00 00 00 00 00 
       0000BE10 00 00 00 00 00 00 00 00 00 00 
       0000BE1A 00 00 00 00 00 00 00 00 00 00 
       0000BE24 00 00 00 00 00 00 00 00 00 00 
       0000BE2E 00 00 00 00 00 00 00 00 00 00 
       0000BE38 00 00 00 00 00 00 00 00 00 00 
       0000BE42 00 00 00 00 00 00 00 00 00 00 
       0000BE4C 00 00 00 00 00 00 00 00 00 00 
       0000BE56 00 00 00 00 00 00 00 00 00 00 
       0000BE60 00 00 00 00 00 00 00 00 00 00 
       0000BE6A 00 00 00 00 00 00 00 00 00 00 
       0000BE74 00 00 00 00 00 00 00 00 00 00 
       0000BE7E 00 00 00 00 00 00 00 00 00 00 
       0000BE88 00 00 00 00 00 00 00 00 00 00 
       0000BE92 00 00 00 00 00 00 00 00 00 00 
       0000BE9C 00 00 00 00 00 00 00 00 00 00 
       0000BEA6 00 00 00 00 00 00 00 00 00 00 
       0000BEB0 00 00 00 00 00 00 00 00 00 00 
       0000BEBA 00 00 00 00 00 00 00 00 00 00 
       0000BEC4 00 00 00 00 00 00 00 00 00 00 
       0000BECE 00 00 00 00 00 00 00 00 00 00 
       0000BED8 00 00 00 00 00 00 00 00 00 00 
       0000BEE2 00 00 00 00 00 00 00 00 00 00 
       0000BEEC 00 00 00 00 00 00 00 00 00 00 
       0000BEF6 00 00 00 00 00 00 00 00 00 00 
       0000BF00 00 00 00 00 00 00 00 00 00 00 
       0000BF0A 00 00 00 00 00 00 00 00 00 00 
       0000BF14 00 00 00 00 00 00 00 00 00 00 
       0000BF1E 00 00 00 00 00 00 00 00 00 00 
       0000BF28 00 00 00 00 00 00 00 00 00 00 
       0000BF32 00 00 00 00 00 00 00 00 00 00 
       0000BF3C 00 00 00 00 00 00 00 00 00 00 
       0000BF46 00 00 00 00 00 00 00 00 00 00 
       0000BF50 00 00 00 00 00 00 00 00 00 00 
       0000BF5A 00 00 00 00 00 00 00 00 00 00 
       0000BF64 00 00 00 00 00 00 00 00 00 00 
       0000BF6E 00 00 00 00 00 00 00 00 00 00 
       0000BF78 00 00 00 00 00 00 00 00 00 00 
       0000BF82 00 00 00 00 00 00 00 00 00 00 
       0000BF8C 00 00 00 00 00 00 00 00 00 00 
       0000BF96 00 00 00 00 00 00 00 00 00 00 
       0000BFA0 00 00 00 00 00 00 00 00 00 00 
       0000BFAA 00 00 00 00 00 00 00 00 00 00 
       0000BFB4 00 00 00 00 00 00 00 00 00 00 
       0000BFBE 00 00 00 00 00 00 00 00 00 00 
       0000BFC8 00 00 00 00 00 00 00 00 00 00 
       0000BFD2 00 00 00 00 00 00 00 00 00 00 
       0000BFDC 00 00 00 00 00 00 00 00 00 00 
       0000BFE6 00 00 00 00 00 00 00 00 00 00 
       0000BFF0 00 00 00 00 00 00 00 00 00 00 
       0000BFFA 00 00 00 00 00 00 00 00 00 00 
       0000C004 00 00 00 00 00 00 00 00 00 00 
       0000C00E 00 00 00 00 00 00 00 00 00 00 
       0000C018 00 00 00 00 00 00 00 00 00 00 
       0000C022 00 00 00 00 00 00 00 00 00 00 
       0000C02C 00 00 00 00 00 00 00 00 00 00 
       0000C036 00 00 00 00 00 00 00 00 00 00 
       0000C040 00 00 00 00 00 00 00 00 00 00 
       0000C04A 00 00 00 00 00 00 00 00 00 00 
       0000C054 00 00 00 00 00 00 00 00 00 00 
       0000C05E 00 00 00 00 00 00 00 00 00 00 
       0000C068 00 00 00 00 00 00 00 00 00 00 
       0000C072 00 00 00 00 00 00 00 00 00 00 
       0000C07C 00 00 00 00 00 00 00 00 00 00 
       0000C086 00 00 00 00 00 00 00 00 00 00 
       0000C090 00 00 00 00 00 00 00 00 00 00 
       0000C09A 00 00 00 00 00 00 00 00 00 00 
       0000C0A4 00 00 00 00 00 00 00 00 00 00 
       0000C0AE 00 00 00 00 00 00 00 00 00 00 
       0000C0B8 00 00 00 00 00 00 00 00 00 00 
       0000C0C2 00 00 00 00 00 00 00 00 00 00 
       0000C0CC 00 00 00 00 00 00 00 00 00 00 
       0000C0D6 00 00 00 00 00 00 00 00 00 00 
       0000C0E0 00 00 00 00 00 00 00 00 00 00 
       0000C0EA 00 00 00 00 00 00 00 00 00 00 
       0000C0F4 00 00 00 00 00 00 00 00 00 00 
       0000C0FE 00 00 00 00 00 00 00 00 00 00 
       0000C108 00 00 00 00 00 00 00 00 00 00 
       0000C112 00 00 00 00 00 00 00 00 00 00 
       0000C11C 00 00 00 00 00 00 00 00 00 00 
       0000C126 00 00 00 00 00 00 00 00 00 00 
       0000C130 00 00 00 00 00 00 00 00 00 00 
       0000C13A 00 00 00 00 00 00 00 00 00 00 
       0000C144 00 00 00 00 00 00 00 00 00 00 
       0000C14E 00 00 00 00 00 00 00 00 00 00 
       0000C158 00 00 00 00 00 00 00 00 00 00 
       0000C162 00 00 00 00 00 00 00 00 00 00 
       0000C16C 00 00 00 00 00 00 00 00 00 00 
       0000C176 00 00 00 00 00 00 00 00 00 00 
       0000C180 00 00 00 00 00 00 00 00 00 00 
       0000C18A 00 00 00 00 00 00 00 00 00 00 
       0000C194 00 00 00 00 00 00 00 00 00 00 
       0000C19E 00 00 00 00 00 00 00 00 00 00 
       0000C1A8 00 00 00 00 00 00 00 00 00 00 
       0000C1B2 00 00 00 00 00 00 00 00 00 00 
       0000C1BC 00 00 00 00 00 00 00 00 00 00 
       0000C1C6 00 00 00 00 00 00 00 00 00 00 
       0000C1D0 00 00 00 00 00 00 00 00 00 00 
       0000C1DA 00 00 00 00 00 00 00 00 00 00 
       0000C1E4 00 00 00 00 00 00 00 00 00 00 
       0000C1EE 00 00 00 00 00 00 00 00 00 00 
       0000C1F8 00 00 00 00 00 00 00 00 00 00 
       0000C202 00 00 00 00 00 00 00 00 00 00 
       0000C20C 00 00 00 00 00 00 00 00 00 00 
       0000C216 00 00 00 00 00 00 00 00 00 00 
       0000C220 00 00 00 00 00 00 00 00 00 00 
       0000C22A 00 00 00 00 00 00 00 00 00 00 
       0000C234 00 00 00 00 00 00 00 00 00 00 
       0000C23E 00 00 00 00 00 00 00 00 00 00 
       0000C248 00 00 00 00 00 00 00 00 00 00 
       0000C252 00 00 00 00 00 00 00 00 00 00 
       0000C25C 00 00 00 00 00 00 00 00 00 00 
       0000C266 00 00 00 00 00 00 00 00 00 00 
       0000C270 00 00 00 00 00 00 00 00 00 00 
       0000C27A 00 00 00 00 00 00 00 00 00 00 
       0000C284 00 00 00 00 00 00 00 00 00 00 
       0000C28E 00 00 00 00 00 00 00 00 00 00 
       0000C298 00 00 00 00 00 00 00 00 00 00 
       0000C2A2 00 00 00 00 00 00 00 00 00 00 
       0000C2AC 00 00 00 00 00 00 00 00 00 00 
       0000C2B6 00 00 00 00 00 00 00 00 00 00 
       0000C2C0 00 00 00 00 00 00 00 00 00 00 
       0000C2CA 00 00 00 00 00 00 00 00 00 00 
       0000C2D4 00 00 00 00 00 00 00 00 00 00 
       0000C2DE 00 00 00 00 00 00 00 00 00 00 
       0000C2E8 00 00 00 00 00 00 00 00 00 00 
       0000C2F2 00 00 00 00 00 00 00 00 00 00 
       0000C2FC 00 00 00 00 00 00 00 00 00 00 
       0000C306 00 00 00 00 00 00 00 00 00 00 
       0000C310 00 00 00 00 00 00 00 00 00 00 
       0000C31A 00 00 00 00 00 00 00 00 00 00 
       0000C324 00 00 00 00 00 00 00 00 00 00 
       0000C32E 00 00 00 00 00 00 00 00 00 00 
       0000C338 00 00 00 00 00 00 00 00 00 00 
       0000C342 00 00 00 00 00 00 00 00 00 00 
       0000C34C 00 00 00 00 00 00 00 00 00 00 
       0000C356 00 00 00 00 00 00 00 00 00 00 
       0000C360 00 00 00 00 00 00 00 00 00 00 
       0000C36A 00 00 00 00 00 00 00 00 00 00 
       0000C374 00 00 00 00 00 00 00 00 00 00 
       0000C37E 00 00 00 00 00 00 00 00 00 00 
       0000C388 00 00 00 00 00 00 00 00 00 00 
       0000C392 00 00 00 00 00 00 00 00 00 00 
       0000C39C 00 00 00 00 00 00 00 00 00 00 
       0000C3A6 00 00 00 00 00 00 00 00 00 00 
       0000C3B0 00 00 00 00 00 00 00 00 00 00 
       0000C3BA 00 00 00 00 00 00 00 00 00 00 
       0000C3C4 00 00 00 00 00 00 00 00 00 00 
       0000C3CE 00 00 00 00 00 00 00 00 00 00 
       0000C3D8 00 00 00 00 00 00 00 00 00 00 
       0000C3E2 00 00 00 00 00 00 00 00 00 00 
       0000C3EC 00 00 00 00 00 00 00 00 00 00 
       0000C3F6 00 00 00 00 00 00 00 00 00 00 
       0000C400 00 00 00 00 00 00 00 00 00 00 
       0000C40A 00 00 00 00 00 00 00 00 00 00 
       0000C414 00 00 00 00 00 00 00 00 00 00 
       0000C41E 00 00 00 00 00 00 00 00 00 00 
       0000C428 00 00 00 00 00 00 00 00 00 00 
       0000C432 00 00 00 00 00 00 00 00 00 00 
       0000C43C 00 00 00 00 00 00 00 00 00 00 
       0000C446 00 00 00 00 00 00 00 00 00 00 
       0000C450 00 00 00 00 00 00 00 00 00 00 
       0000C45A 00 00 00 00 00 00 00 00 00 00 
       0000C464 00 00 00 00 00 00 00 00 00 00 
       0000C46E 00 00 00 00 00 00 00 00 00 00 
       0000C478 00 00 00 00 00 00 00 00 00 00 
       0000C482 00 00 00 00 00 00 00 00 00 00 
       0000C48C 00 00 00 00 00 00 00 00 00 00 
       0000C496 00 00 00 00 00 00 00 00 00 00 
       0000C4A0 00 00 00 00 00 00 00 00 00 00 
       0000C4AA 00 00 00 00 00 00 00 00 00 00 
       0000C4B4 00 00 00 00 00 00 00 00 00 00 
       0000C4BE 00 00 00 00 00 00 00 00 00 00 
       0000C4C8 00 00 00 00 00 00 00 00 00 00 
       0000C4D2 00 00 00 00 00 00 00 00 00 00 
       0000C4DC 00 00 00 00 00 00 00 00 00 00 
       0000C4E6 00 00 00 00 00 00 00 00 00 00 
       0000C4F0 00 00 00 00 00 00 00 00 00 00 
       0000C4FA 00 00 00 00 00 00 00 00 00 00 
       0000C504 00 00 00 00 00 00 00 00 00 00 
       0000C50E 00 00 00 00 00 00 00 00 00 00 
       0000C518 00 00 00 00 00 00 00 00 00 00 
       0000C522 00 00 00 00 00 00 00 00 00 00 
       0000C52C 00 00 00 00 00 00 00 00 00 00 
       0000C536 00 00 00 00 00 00 00 00 00 00 
       0000C540 00 00 00 00 00 00 00 00 00 00 
       0000C54A 00 00 00 00 00 00 00 00 00 00 
       0000C554 00 00 00 00 00 00 00 00 00 00 
       0000C55E 00 00 00 00 00 00 00 00 00 00 
       0000C568 00 00 00 00 00 00 00 00 00 00 
       0000C572 00 00 00 00 00 00 00 00 00 00 
       0000C57C 00 00 00 00 00 00 00 00 00 00 
       0000C586 00 00 00 00 00 00 00 00 00 00 
       0000C590 00 00 00 00 00 00 00 00 00 00 
       0000C59A 00 00 00 00 00 00 00 00 00 00 
       0000C5A4 00 00 00 00 00 00 00 00 00 00 
       0000C5AE 00 00 00 00 00 00 00 00 00 00 
       0000C5B8 00 00 00 00 00 00 00 00 00 00 
       0000C5C2 00 00 00 00 00 00 00 00 00 00 
       0000C5CC 00 00 00 00 00 00 00 00 00 00 
       0000C5D6 00 00 00 00 00 00 00 00 00 00 
       0000C5E0 00 00 00 00 00 00 00 00 00 00 
       0000C5EA 00 00 00 00 00 00 00 00 00 00 
       0000C5F4 00 00 00 00 00 00 00 00 00 00 
       0000C5FE 00 00 00 00 00 00 00 00 00 00 
       0000C608 00 00 00 00 00 00 00 00 00 00 
       0000C612 00 00 00 00 00 00 00 00 00 00 
       0000C61C 00 00 00 00 00 00 00 00 00 00 
       0000C626 00 00 00 00 00 00 00 00 00 00 
       0000C630 00 00 00 00 00 00 00 00 00 00 
       0000C63A 00 00 00 00 00 00 00 00 00 00 
       0000C644 00 00 00 00 00 00 00 00 00 00 
       0000C64E 00 00 00 00 00 00 00 00 00 00 
       0000C658 00 00 00 00 00 00 00 00 00 00 
       0000C662 00 00 00 00 00 00 00 00 00 00 
       0000C66C 00 00 00 00 00 00 00 00 00 00 
       0000C676 00 00 00 00 00 00 00 00 00 00 
       0000C680 00 00 00 00 00 00 00 00 00 00 
       0000C68A 00 00 00 00 00 00 00 00 00 00 
       0000C694 00 00 00 00 00 00 00 00 00 00 
       0000C69E 00 00 00 00 00 00 00 00 00 00 
       0000C6A8 00 00 00 00 00 00 00 00 00 00 
       0000C6B2 00 00 00 00 00 00 00 00 00 00 
       0000C6BC 00 00 00 00 00 00 00 00 00 00 
       0000C6C6 00 00 00 00 00 00 00 00 00 00 
       0000C6D0 00 00 00 00 00 00 00 00 00 00 
       0000C6DA 00 00 00 00 00 00 00 00 00 00 
       0000C6E4 00 00 00 00 00 00 00 00 00 00 
       0000C6EE 00 00 00 00 00 00 00 00 00 00 
       0000C6F8 00 00 00 00 00 00 00 00 00 00 
       0000C702 00 00 00 00 00 00 00 00 00 00 
       0000C70C 00 00 00 00 00 00 00 00 00 00 
       0000C716 00 00 00 00 00 00 00 00 00 00 
       0000C720 00 00 00 00 00 00 00 00 00 00 
       0000C72A 00 00 00 00 00 00 00 00 00 00 
       0000C734 00 00 00 00 00 00 00 00 00 00 
       0000C73E 00 00 00 00 00 00 00 00 00 00 
       0000C748 00 00 00 00 00 00 00 00 00 00 
       0000C752 00 00 00 00 00 00 00 00 00 00 
       0000C75C 00 00 00 00 00 00 00 00 00 00 
       0000C766 00 00 00 00 00 00 00 00 00 00 
       0000C770 00 00 00 00 00 00 00 00 00 00 
       0000C77A 00 00 00 00 00 00 00 00 00 00 
       0000C784 00 00 00 00 00 00 00 00 00 00 
       0000C78E 00 00 00 00 00 00 00 00 00 00 
       0000C798 00 00 00 00 00 00 00 00 00 00 
       0000C7A2 00 00 00 00 00 00 00 00 00 00 
       0000C7AC 00 00 00 00 00 00 00 00 00 00 
       0000C7B6 00 00 00 00 00 00 00 00 00 00 
       0000C7C0 00 00 00 00 00 00 00 00 00 00 
       0000C7CA 00 00 00 00 00 00 00 00 00 00 
       0000C7D4 00 00 00 00 00 00 00 00 00 00 
       0000C7DE 00 00 00 00 00 00 00 00 00 00 
       0000C7E8 00 00 00 00 00 00 00 00 00 00 
       0000C7F2 00 00 00 00 00 00 00 00 00 00 
       0000C7FC 00 00 00 00 00 00 00 00 00 00 
       0000C806 00 00 00 00 00 00 00 00 00 00 
       0000C810 00 00 00 00 00 00 00 00 00 00 
       0000C81A 00 00 00 00 00 00 00 00 00 00 
       0000C824 00 00 00 00 00 00 00 00 00 00 
       0000C82E 00 00 00 00 00 00 00 00 00 00 
       0000C838 00 00 00 00 00 00 00 00 00 00 
       0000C842 00 00 00 00 00 00 00 00 00 00 
       0000C84C 00 00 00 00 00 00 00 00 00 00 
       0000C856 00 00 00 00 00 00 00 00 00 00 
       0000C860 00 00 00 00 00 00 00 00 00 00 
       0000C86A 00 00 00 00 00 00 00 00 00 00 
       0000C874 00 00 00 00 00 00 00 00 00 00 
       0000C87E 00 00 00 00 00 00 00 00 00 00 
       0000C888 00 00 00 00 00 00 00 00 00 00 
       0000C892 00 00 00 00 00 00 00 00 00 00 
       0000C89C 00 00 00 00 00 00 00 00 00 00 
       0000C8A6 00 00 00 00 00 00 00 00 00 00 
       0000C8B0 00 00 00 00 00 00 00 00 00 00 
       0000C8BA 00 00 00 00 00 00 00 00 00 00 
       0000C8C4 00 00 00 00 00 00 00 00 00 00 
       0000C8CE 00 00 00 00 00 00 00 00 00 00 
       0000C8D8 00 00 00 00 00 00 00 00 00 00 
       0000C8E2 00 00 00 00 00 00 00 00 00 00 
       0000C8EC 00 00 00 00 00 00 00 00 00 00 
       0000C8F6 00 00 00 00 00 00 00 00 00 00 
       0000C900 00 00 00 00 00 00 00 00 00 00 
       0000C90A 00 00 00 00 00 00 00 00 00 00 
       0000C914 00 00 00 00 00 00 00 00 00 00 
       0000C91E 00 00 00 00 00 00 00 00 00 00 
       0000C928 00 00 00 00 00 00 00 00 00 00 
       0000C932 00 00 00 00 00 00 00 00 00 00 
       0000C93C 00 00 00 00 00 00 00 00 00 00 
       0000C946 00 00 00 00 00 00 00 00 00 00 
       0000C950 00 00 00 00 00 00 00 00 00 00 
       0000C95A 00 00 00 00 00 00 00 00 00 00 
       0000C964 00 00 00 00 00 00 00 00 00 00 
       0000C96E 00 00 00 00 00 00 00 00 00 00 
       0000C978 00 00 00 00 00 00 00 00 00 00 
       0000C982 00 00 00 00 00 00 00 00 00 00 
       0000C98C 00 00 00 00 00 00 00 00 00 00 
       0000C996 00 00 00 00 00 00 00 00 00 00 
       0000C9A0 00 00 00 00 00 00 00 00 00 00 
       0000C9AA 00 00 00 00 00 00 00 00 00 00 
       0000C9B4 00 00 00 00 00 00 00 00 00 00 
       0000C9BE 00 00 00 00 00 00 00 00 00 00 
       0000C9C8 00 00 00 00 00 00 00 00 00 00 
       0000C9D2 00 00 00 00 00 00 00 00 00 00 
       0000C9DC 00 00 00 00 00 00 00 00 00 00 
       0000C9E6 00 00 00 00 00 00 00 00 00 00 
       0000C9F0 00 00 00 00 00 00 00 00 00 00 
       0000C9FA 00 00 00 00 00 00 00 00 00 00 
       0000CA04 00 00 00 00 00 00 00 00 00 00 
       0000CA0E 00 00 00 00 00 00 00 00 00 00 
       0000CA18 00 00 00 00 00 00 00 00 00 00 
       0000CA22 00 00 00 00 00 00 00 00 00 00 
       0000CA2C 00 00 00 00 00 00 00 00 00 00 
       0000CA36 00 00 00 00 00 00 00 00 00 00 
       0000CA40 00 00 00 00 00 00 00 00 00 00 
       0000CA4A 00 00 00 00 00 00 00 00 00 00 
       0000CA54 00 00 00 00 00 00 00 00 00 00 
       0000CA5E 00 00 00 00 00 00 00 00 00 00 
       0000CA68 00 00 00 00 00 00 00 00 00 00 
       0000CA72 00 00 00 00 00 00 00 00 00 00 
       0000CA7C 00 00 00 00 00 00 00 00 00 00 
       0000CA86 00 00 00 00 00 00 00 00 00 00 
       0000CA90 00 00 00 00 00 00 00 00 00 00 
       0000CA9A 00 00 00 00 00 00 00 00 00 00 
       0000CAA4 00 00 00 00 00 00 00 00 00 00 
       0000CAAE 00 00 00 00 00 00 00 00 00 00 
       0000CAB8 00 00 00 00 00 00 00 00 00 00 
       0000CAC2 00 00 00 00 00 00 00 00 00 00 
       0000CACC 00 00 00 00 00 00 00 00 00 00 
       0000CAD6 00 00 00 00 00 00 00 00 00 00 
       0000CAE0 00 00 00 00 00 00 00 00 00 00 
       0000CAEA 00 00 00 00 00 00 00 00 00 00 
       0000CAF4 00 00 00 00 00 00 00 00 00 00 
       0000CAFE 00 00 00 00 00 00 00 00 00 00 
       0000CB08 00 00 00 00 00 00 00 00 00 00 
       0000CB12 00 00 00 00 00 00 00 00 00 00 
       0000CB1C 00 00 00 00 00 00 00 00 00 00 
       0000CB26 00 00 00 00 00 00 00 00 00 00 
       0000CB30 00 00 00 00 00 00 00 00 00 00 
       0000CB3A 00 00 00 00 00 00 00 00 00 00 
       0000CB44 00 00 00 00 00 00 00 00 00 00 
       0000CB4E 00 00 00 00 00 00 00 00 00 00 
       0000CB58 00 00 00 00 00 00 00 00 00 00 
       0000CB62 00 00 00 00 00 00 00 00 00 00 
       0000CB6C 00 00 00 00 00 00 00 00 00 00 
       0000CB76 00 00 00 00 00 00 00 00 00 00 
       0000CB80 00 00 00 00 00 00 00 00 00 00 
       0000CB8A 00 00 00 00 00 00 00 00 00 00 
       0000CB94 00 00 00 00 00 00 00 00 00 00 
       0000CB9E 00 00 00 00 00 00 00 00 00 00 
       0000CBA8 00 00 00 00 00 00 00 00 00 00 
       0000CBB2 00 00 00 00 00 00 00 00 00 00 
       0000CBBC 00 00 00 00 00 00 00 00 00 00 
       0000CBC6 00 00 00 00 00 00 00 00 00 00 
       0000CBD0 00 00 00 00 00 00 00 00 00 00 
       0000CBDA 00 00 00 00 00 00 00 00 00 00 
       0000CBE4 00 00 00 00 00 00 00 00 00 00 
       0000CBEE 00 00 00 00 00 00 00 00 00 00 
       0000CBF8 00 00 00 00 00 00 00 00 00 00 
       0000CC02 00 00 00 00 00 00 00 00 00 00 
       0000CC0C 00 00 00 00 00 00 00 00 00 00 
       0000CC16 00 00 00 00 00 00 00 00 00 00 
       0000CC20 00 00 00 00 00 00 00 00 00 00 
       0000CC2A 00 00 00 00 00 00 00 00 00 00 
       0000CC34 00 00 00 00 00 00 00 00 00 00 
       0000CC3E 00 00 00 00 00 00 00 00 00 00 
       0000CC48 00 00 00 00 00 00 00 00 00 00 
       0000CC52 00 00 00 00 00 00 00 00 00 00 
       0000CC5C 00 00 00 00 00 00 00 00 00 00 
       0000CC66 00 00 00 00 00 00 00 00 00 00 
       0000CC70 00 00 00 00 00 00 00 00 00 00 
       0000CC7A 00 00 00 00 00 00 00 00 00 00 
       0000CC84 00 00 00 00 00 00 00 00 00 00 
       0000CC8E 00 00 00 00 00 00 00 00 00 00 
       0000CC98 00 00 00 00 00 00 00 00 00 00 
       0000CCA2 00 00 00 00 00 00 00 00 00 00 
       0000CCAC 00 00 00 00 00 00 00 00 00 00 
       0000CCB6 00 00 00 00 00 00 00 00 00 00 
       0000CCC0 00 00 00 00 00 00 00 00 00 00 
       0000CCCA 00 00 00 00 00 00 00 00 00 00 
       0000CCD4 00 00 00 00 00 00 00 00 00 00 
       0000CCDE 00 00 00 00 00 00 00 00 00 00 
       0000CCE8 00 00 00 00 00 00 00 00 00 00 
       0000CCF2 00 00 00 00 00 00 00 00 00 00 
       0000CCFC 00 00 00 00 00 00 00 00 00 00 
       0000CD06 00 00 00 00 00 00 00 00 00 00 
       0000CD10 00 00 00 00 00 00 00 00 00 00 
       0000CD1A 00 00 00 00 00 00 00 00 00 00 
       0000CD24 00 00 00 00 00 00 00 00 00 00 
       0000CD2E 00 00 00 00 00 00 00 00 00 00 
       0000CD38 00 00 00 00 00 00 00 00 00 00 
       0000CD42 00 00 00 00 00 00 00 00 00 00 
       0000CD4C 00 00 00 00 00 00 00 00 00 00 
       0000CD56 00 00 00 00 00 00 00 00 00 00 
       0000CD60 00 00 00 00 00 00 00 00 00 00 
       0000CD6A 00 00 00 00 00 00 00 00 00 00 
       0000CD74 00 00 00 00 00 00 00 00 00 00 
       0000CD7E 00 00 00 00 00 00 00 00 00 00 
       0000CD88 00 00 00 00 00 00 00 00 00 00 
       0000CD92 00 00 00 00 00 00 00 00 00 00 
       0000CD9C 00 00 00 00 00 00 00 00 00 00 
       0000CDA6 00 00 00 00 00 00 00 00 00 00 
       0000CDB0 00 00 00 00 00 00 00 00 00 00 
       0000CDBA 00 00 00 00 00 00 00 00 00 00 
       0000CDC4 00 00 00 00 00 00 00 00 00 00 
       0000CDCE 00 00 00 00 00 00 00 00 00 00 
       0000CDD8 00 00 00 00 00 00 00 00 00 00 
       0000CDE2 00 00 00 00 00 00 00 00 00 00 
       0000CDEC 00 00 00 00 00 00 00 00 00 00 
       0000CDF6 00 00 00 00 00 00 00 00 00 00 
       0000CE00 00 00 00 00 00 00 00 00 00 00 
       0000CE0A 00 00 00 00 00 00 00 00 00 00 
       0000CE14 00 00 00 00 00 00 00 00 00 00 
       0000CE1E 00 00 00 00 00 00 00 00 00 00 
       0000CE28 00 00 00 00 00 00 00 00 00 00 
       0000CE32 00 00 00 00 00 00 00 00 00 00 
       0000CE3C 00 00 00 00 00 00 00 00 00 00 
       0000CE46 00 00 00 00 00 00 00 00 00 00 
       0000CE50 00 00 00 00 00 00 00 00 00 00 
       0000CE5A 00 00 00 00 00 00 00 00 00 00 
       0000CE64 00 00 00 00 00 00 00 00 00 00 
       0000CE6E 00 00 00 00 00 00 00 00 00 00 
       0000CE78 00 00 00 00 00 00 00 00 00 00 
       0000CE82 00 00 00 00 00 00 00 00 00 00 
       0000CE8C 00 00 00 00 00 00 00 00 00 00 
       0000CE96 00 00 00 00 00 00 00 00 00 00 
       0000CEA0 00 00 00 00 00 00 00 00 00 00 
       0000CEAA 00 00 00 00 00 00 00 00 00 00 
       0000CEB4 00 00 00 00 00 00 00 00 00 00 
       0000CEBE 00 00 00 00 00 00 00 00 00 00 
       0000CEC8 00 00 00 00 00 00 00 00 00 00 
       0000CED2 00 00 00 00 00 00 00 00 00 00 
       0000CEDC 00 00 00 00 00 00 00 00 00 00 
       0000CEE6 00 00 00 00 00 00 00 00 00 00 
       0000CEF0 00 00 00 00 00 00 00 00 00 00 
       0000CEFA 00 00 00 00 00 00 00 00 00 00 
       0000CF04 00 00 00 00 00 00 00 00 00 00 
       0000CF0E 00 00 00 00 00 00 00 00 00 00 
       0000CF18 00 00 00 00 00 00 00 00 00 00 
       0000CF22 00 00 00 00 00 00 00 00 00 00 
       0000CF2C 00 00 00 00 00 00 00 00 00 00 
       0000CF36 00 00 00 00 00 00 00 00 00 00 
       0000CF40 00 00 00 00 00 00 00 00 00 00 
       0000CF4A 00 00 00 00 00 00 00 00 00 00 
       0000CF54 00 00 00 00 00 00 00 00 00 00 
       0000CF5E 00 00 00 00 00 00 00 00 00 00 
       0000CF68 00 00 00 00 00 00 00 00 00 00 
       0000CF72 00 00 00 00 00 00 00 00 00 00 
       0000CF7C 00 00 00 00 00 00 00 00 00 00 
       0000CF86 00 00 00 00 00 00 00 00 00 00 
       0000CF90 00 00 00 00 00 00 00 00 00 00 
       0000CF9A 00 00 00 00 00 00 00 00 00 00 
       0000CFA4 00 00 00 00 00 00 00 00 00 00 
       0000CFAE 00 00 00 00 00 00 00 00 00 00 
       0000CFB8 00 00 00 00 00 00 00 00 00 00 
       0000CFC2 00 00 00 00 00 00 00 00 00 00 
       0000CFCC 00 00 00 00 00 00 00 00 00 00 
       0000CFD6 00 00 00 00 00 00 00 00 00 00 
       0000CFE0 00 00 00 00 00 00 00 00 00 00 
       0000CFEA 00 00 00 00 00 00 00 00 00 00 
       0000CFF4 00 00 00 00 00 00 00 00 00 00 
       0000CFFE 00 00 00 00 00 00 00 00 00 00 
       0000D008 00 00 00 00 00 00 00 00 00 00 
       0000D012 00 00 00 00 00 00 00 00 00 00 
       0000D01C 00 00 00 00 00 00 00 00 00 00 
       0000D026 00 00 00 00 00 00 00 00 00 00 
       0000D030 00 00 00 00 00 00 00 00 00 00 
       0000D03A 00 00 00 00 00 00 00 00 00 00 
       0000D044 00 00 00 00 00 00 00 00 00 00 
       0000D04E 00 00 00 00 00 00 00 00 00 00 
       0000D058 00 00 00 00 00 00 00 00 00 00 
       0000D062 00 00 00 00 00 00 00 00 00 00 
       0000D06C 00 00 00 00 00 00 00 00 00 00 
       0000D076 00 00 00 00 00 00 00 00 00 00 
       0000D080 00 00 00 00 00 00 00 00 00 00 
       0000D08A 00 00 00 00 00 00 00 00 00 00 
       0000D094 00 00 00 00 00 00 00 00 00 00 
       0000D09E 00 00 00 00 00 00 00 00 00 00 
       0000D0A8 00 00 00 00 00 00 00 00 00 00 
       0000D0B2 00 00 00 00 00 00 00 00 00 00 
       0000D0BC 00 00 00 00 00 00 00 00 00 00 
       0000D0C6 00 00 00 00 00 00 00 00 00 00 
       0000D0D0 00 00 00 00 00 00 00 00 00 00 
       0000D0DA 00 00 00 00 00 00 00 00 00 00 
       0000D0E4 00 00 00 00 00 00 00 00 00 00 
       0000D0EE 00 00 00 00 00 00 00 00 00 00 
       0000D0F8 00 00 00 00 00 00 00 00 00 00 
       0000D102 00 00 00 00 00 00 00 00 00 00 
       0000D10C 00 00 00 00 00 00 00 00 00 00 
       0000D116 00 00 00 00 00 00 00 00 00 00 
       0000D120 00 00 00 00 00 00 00 00 00 00 
       0000D12A 00 00 00 00 00 00 00 00 00 00 
       0000D134 00 00 00 00 00 00 00 00 00 00 
       0000D13E 00 00 00 00 00 00 00 00 00 00 
       0000D148 00 00 00 00 00 00 00 00 00 00 
       0000D152 00 00 00 00 00 00 00 00 00 00 
       0000D15C 00 00 00 00 00 00 00 00 00 00 
       0000D166 00 00 00 00 00 00 00 00 00 00 
       0000D170 00 00 00 00 00 00 00 00 00 00 
       0000D17A 00 00 00 00 00 00 00 00 00 00 
       0000D184 00 00 00 00 00 00 00 00 00 00 
       0000D18E 00 00 00 00 00 00 00 00 00 00 
       0000D198 00 00 00 00 00 00 00 00 00 00 
       0000D1A2 00 00 00 00 00 00 00 00 00 00 
       0000D1AC 00 00 00 00 00 00 00 00 00 00 
       0000D1B6 00 00 00 00 00 00 00 00 00 00 
       0000D1C0 00 00 00 00 00 00 00 00 00 00 
       0000D1CA 00 00 00 00 00 00 00 00 00 00 
       0000D1D4 00 00 00 00 00 00 00 00 00 00 
       0000D1DE 00 00 00 00 00 00 00 00 00 00 
       0000D1E8 00 00 00 00 00 00 00 00 00 00 
       0000D1F2 00 00 00 00 00 00 00 00 00 00 
       0000D1FC 00 00 00 00 00 00 00 00 00 00 
       0000D206 00 00 00 00 00 00 00 00 00 00 
       0000D210 00 00 00 00 00 00 00 00 00 00 
       0000D21A 00 00 00 00 00 00 00 00 00 00 
       0000D224 00 00 00 00 00 00 00 00 00 00 
       0000D22E 00 00 00 00 00 00 00 00 00 00 
       0000D238 00 00 00 00 00 00 00 00 00 00 
       0000D242 00 00 00 00 00 00 00 00 00 00 
       0000D24C 00 00 00 00 00 00 00 00 00 00 
       0000D256 00 00 00 00 00 00 00 00 00 00 
       0000D260 00 00 00 00 00 00 00 00 00 00 
       0000D26A 00 00 00 00 00 00 00 00 00 00 
       0000D274 00 00 00 00 00 00 00 00 00 00 
       0000D27E 00 00 00 00 00 00 00 00 00 00 
       0000D288 00 00 00 00 00 00 00 00 00 00 
       0000D292 00 00 00 00 00 00 00 00 00 00 
       0000D29C 00 00 00 00 00 00 00 00 00 00 
       0000D2A6 00 00 00 00 00 00 00 00 00 00 
       0000D2B0 00 00 00 00 00 00 00 00 00 00 
       0000D2BA 00 00 00 00 00 00 00 00 00 00 
       0000D2C4 00 00 00 00 00 00 00 00 00 00 
       0000D2CE 00 00 00 00 00 00 00 00 00 00 
       0000D2D8 00 00 00 00 00 00 00 00 00 00 
       0000D2E2 00 00 00 00 00 00 00 00 00 00 
       0000D2EC 00 00 00 00 00 00 00 00 00 00 
       0000D2F6 00 00 00 00 00 00 00 00 00 00 
       0000D300 00 00 00 00 00 00 00 00 00 00 
       0000D30A 00 00 00 00 00 00 00 00 00 00 
       0000D314 00 00 00 00 00 00 00 00 00 00 
       0000D31E 00 00 00 00 00 00 00 00 00 00 
       0000D328 00 00 00 00 00 00 00 00 00 00 
       0000D332 00 00 00 00 00 00 00 00 00 00 
       0000D33C 00 00 00 00 00 00 00 00 00 00 
       0000D346 00 00 00 00 00 00 00 00 00 00 
       0000D350 00 00 00 00 00 00 00 00 00 00 
       0000D35A 00 00 00 00 00 00 00 00 00 00 
       0000D364 00 00 00 00 00 00 00 00 00 00 
       0000D36E 00 00 00 00 00 00 00 00 00 00 
       0000D378 00 00 00 00 00 00 00 00 00 00 
       0000D382 00 00 00 00 00 00 00 00 00 00 
       0000D38C 00 00 00 00 00 00 00 00 00 00 
       0000D396 00 00 00 00 00 00 00 00 00 00 
       0000D3A0 00 00 00 00 00 00 00 00 00 00 
       0000D3AA 00 00 00 00 00 00 00 00 00 00 
       0000D3B4 00 00 00 00 00 00 00 00 00 00 
       0000D3BE 00 00 00 00 00 00 00 00 00 00 
       0000D3C8 00 00 00 00 00 00 00 00 00 00 
       0000D3D2 00 00 00 00 00 00 00 00 00 00 
       0000D3DC 00 00 00 00 00 00 00 00 00 00 
       0000D3E6 00 00 00 00 00 00 00 00 00 00 
       0000D3F0 00 00 00 00 00 00 00 00 00 00 
       0000D3FA 00 00 00 00 00 00 00 00 00 00 
       0000D404 00 00 00 00 00 00 00 00 00 00 
       0000D40E 00 00 00 00 00 00 00 00 00 00 
       0000D418 00 00 00 00 00 00 00 00 00 00 
       0000D422 00 00 00 00 00 00 00 00 00 00 
       0000D42C 00 00 00 00 00 00 00 00 00 00 
       0000D436 00 00 00 00 00 00 00 00 00 00 
       0000D440 00 00 00 00 00 00 00 00 00 00 
       0000D44A 00 00 00 00 00 00 00 00 00 00 
       0000D454 00 00 00 00 00 00 00 00 00 00 
       0000D45E 00 00 00 00 00 00 00 00 00 00 
       0000D468 00 00 00 00 00 00 00 00 00 00 
       0000D472 00 00 00 00 00 00 00 00 00 00 
       0000D47C 00 00 00 00 00 00 00 00 00 00 
       0000D486 00 00 00 00 00 00 00 00 00 00 
       0000D490 00 00 00 00 00 00 00 00 00 00 
       0000D49A 00 00 00 00 00 00 00 00 00 00 
       0000D4A4 00 00 00 00 00 00 00 00 00 00 
       0000D4AE 00 00 00 00 00 00 00 00 00 00 
       0000D4B8 00 00 00 00 00 00 00 00 00 00 
       0000D4C2 00 00 00 00 00 00 00 00 00 00 
       0000D4CC 00 00 00 00 00 00 00 00 00 00 
       0000D4D6 00 00 00 00 00 00 00 00 00 00 
       0000D4E0 00 00 00 00 00 00 00 00 00 00 
       0000D4EA 00 00 00 00 00 00 00 00 00 00 
       0000D4F4 00 00 00 00 00 00 00 00 00 00 
       0000D4FE 00 00 00 00 00 00 00 00 00 00 
       0000D508 00 00 00 00 00 00 00 00 00 00 
       0000D512 00 00 00 00 00 00 00 00 00 00 
       0000D51C 00 00 00 00 00 00 00 00 00 00 
       0000D526 00 00 00 00 00 00 00 00 00 00 
       0000D530 00 00 00 00 00 00 00 00 00 00 
       0000D53A 00 00 00 00 00 00 00 00 00 00 
       0000D544 00 00 00 00 00 00 00 00 00 00 
       0000D54E 00 00 00 00 00 00 00 00 00 00 
       0000D558 00 00 00 00 00 00 00 00 00 00 
       0000D562 00 00 00 00 00 00 00 00 00 00 
       0000D56C 00 00 00 00 00 00 00 00 00 00 
       0000D576 00 00 00 00 00 00 00 00 00 00 
       0000D580 00 00 00 00 00 00 00 00 00 00 
       0000D58A 00 00 00 00 00 00 00 00 00 00 
       0000D594 00 00 00 00 00 00 00 00 00 00 
       0000D59E 00 00 00 00 00 00 00 00 00 00 
       0000D5A8 00 00 00 00 00 00 00 00 00 00 
       0000D5B2 00 00 00 00 00 00 00 00 00 00 
       0000D5BC 00 00 00 00 00 00 00 00 00 00 
       0000D5C6 00 00 00 00 00 00 00 00 00 00 
       0000D5D0 00 00 00 00 00 00 00 00 00 00 
       0000D5DA 00 00 00 00 00 00 00 00 00 00 
       0000D5E4 00 00 00 00 00 00 00 00 00 00 
       0000D5EE 00 00 00 00 00 00 00 00 00 00 
       0000D5F8 00 00 00 00 00 00 00 00 00 00 
       0000D602 00 00 00 00 00 00 00 00 00 00 
       0000D60C 00 00 00 00 00 00 00 00 00 00 
       0000D616 00 00 00 00 00 00 00 00 00 00 
       0000D620 00 00 00 00 00 00 00 00 00 00 
       0000D62A 00 00 00 00 00 00 00 00 00 00 
       0000D634 00 00 00 00 00 00 00 00 00 00 
       0000D63E 00 00 00 00 00 00 00 00 00 00 
       0000D648 00 00 00 00 00 00 00 00 00 00 
       0000D652 00 00 00 00 00 00 00 00 00 00 
       0000D65C 00 00 00 00 00 00 00 00 00 00 
       0000D666 00 00 00 00 00 00 00 00 00 00 
       0000D670 00 00 00 00 00 00 00 00 00 00 
       0000D67A 00 00 00 00 00 00 00 00 00 00 
       0000D684 00 00 00 00 00 00 00 00 00 00 
       0000D68E 00 00 00 00 00 00 00 00 00 00 
       0000D698 00 00 00 00 00 00 00 00 00 00 
       0000D6A2 00 00 00 00 00 00 00 00 00 00 
       0000D6AC 00 00 00 00 00 00 00 00 00 00 
       0000D6B6 00 00 00 00 00 00 00 00 00 00 
       0000D6C0 00 00 00 00 00 00 00 00 00 00 
       0000D6CA 00 00 00 00 00 00 00 00 00 00 
       0000D6D4 00 00 00 00 00 00 00 00 00 00 
       0000D6DE 00 00 00 00 00 00 00 00 00 00 
       0000D6E8 00 00 00 00 00 00 00 00 00 00 
       0000D6F2 00 00 00 00 00 00 00 00 00 00 
       0000D6FC 00 00 00 00 00 00 00 00 00 00 
       0000D706 00 00 00 00 00 00 00 00 00 00 
       0000D710 00 00 00 00 00 00 00 00 00 00 
       0000D71A 00 00 00 00 00 00 00 00 00 00 
       0000D724 00 00 00 00 00 00 00 00 00 00 
       0000D72E 00 00 00 00 00 00 00 00 00 00 
       0000D738 00 00 00 00 00 00 00 00 00 00 
       0000D742 00 00 00 00 00 00 00 00 00 00 
       0000D74C 00 00 00 00 00 00 00 00 00 00 
       0000D756 00 00 00 00 00 00 00 00 00 00 
       0000D760 00 00 00 00 00 00 00 00 00 00 
       0000D76A 00 00 00 00 00 00 00 00 00 00 
       0000D774 00 00 00 00 00 00 00 00 00 00 
       0000D77E 00 00 00 00 00 00 00 00 00 00 
       0000D788 00 00 00 00 00 00 00 00 00 00 
       0000D792 00 00 00 00 00 00 00 00 00 00 
       0000D79C 00 00 00 00 00 00 00 00 00 00 
       0000D7A6 00 00 00 00 00 00 00 00 00 00 
       0000D7B0 00 00 00 00 00 00 00 00 00 00 
       0000D7BA 00 00 00 00 00 00 00 00 00 00 
       0000D7C4 00 00 00 00 00 00 00 00 00 00 
       0000D7CE 00 00 00 00 00 00 00 00 00 00 
       0000D7D8 00 00 00 00 00 00 00 00 00 00 
       0000D7E2 00 00 00 00 00 00 00 00 00 00 
       0000D7EC 00 00 00 00 00 00 00 00 00 00 
       0000D7F6 00 00 00 00 00 00 00 00 00 00 
       0000D800 00 00 00 00 00 00 00 00 00 00 
       0000D80A 00 00 00 00 00 00 00 00 00 00 
       0000D814 00 00 00 00 00 00 00 00 00 00 
       0000D81E 00 00 00 00 00 00 00 00 00 00 
       0000D828 00 00 00 00 00 00 00 00 00 00 
       0000D832 00 00 00 00 00 00 00 00 00 00 
       0000D83C 00 00 00 00 00 00 00 00 00 00 
       0000D846 00 00 00 00 00 00 00 00 00 00 
       0000D850 00 00 00 00 00 00 00 00 00 00 
       0000D85A 00 00 00 00 00 00 00 00 00 00 
       0000D864 00 00 00 00 00 00 00 00 00 00 
       0000D86E 00 00 00 00 00 00 00 00 00 00 
       0000D878 00 00 00 00 00 00 00 00 00 00 
       0000D882 00 00 00 00 00 00 00 00 00 00 
       0000D88C 00 00 00 00 00 00 00 00 00 00 
       0000D896 00 00 00 00 00 00 00 00 00 00 
       0000D8A0 00 00 00 00 00 00 00 00 00 00 
       0000D8AA 00 00 00 00 00 00 00 00 00 00 
       0000D8B4 00 00 00 00 00 00 00 00 00 00 
       0000D8BE 00 00 00 00 00 00 00 00 00 00 
       0000D8C8 00 00 00 00 00 00 00 00 00 00 
       0000D8D2 00 00 00 00 00 00 00 00 00 00 
       0000D8DC 00 00 00 00 00 00 00 00 00 00 
       0000D8E6 00 00 00 00 00 00 00 00 00 00 
       0000D8F0 00 00 00 00 00 00 00 00 00 00 
       0000D8FA 00 00 00 00 00 00 00 00 00 00 
       0000D904 00 00 00 00 00 00 00 00 00 00 
       0000D90E 00 00 00 00 00 00 00 00 00 00 
       0000D918 00 00 00 00 00 00 00 00 00 00 
       0000D922 00 00 00 00 00 00 00 00 00 00 
       0000D92C 00 00 00 00 00 00 00 00 00 00 
       0000D936 00 00 00 00 00 00 00 00 00 00 
       0000D940 00 00 00 00 00 00 00 00 00 00 
       0000D94A 00 00 00 00 00 00 00 00 00 00 
       0000D954 00 00 00 00 00 00 00 00 00 00 
       0000D95E 00 00 00 00 00 00 00 00 00 00 
       0000D968 00 00 00 00 00 00 00 00 00 00 
       0000D972 00 00 00 00 00 00 00 00 00 00 
       0000D97C 00 00 00 00 00 00 00 00 00 00 
       0000D986 00 00 00 00 00 00 00 00 00 00 
       0000D990 00 00 00 00 00 00 00 00 00 00 
       0000D99A 00 00 00 00 00 00 00 00 00 00 
       0000D9A4 00 00 00 00 00 00 00 00 00 00 
       0000D9AE 00 00 00 00 00 00 00 00 00 00 
       0000D9B8 00 00 00 00 00 00 00 00 00 00 
       0000D9C2 00 00 00 00 00 00 00 00 00 00 
       0000D9CC 00 00 00 00 00 00 00 00 00 00 
       0000D9D6 00 00 00 00 00 00 00 00 00 00 
       0000D9E0 00 00 00 00 00 00 00 00 00 00 
       0000D9EA 00 00 00 00 00 00 00 00 00 00 
       0000D9F4 00 00 00 00 00 00 00 00 00 00 
       0000D9FE 00 00 00 00 00 00 00 00 00 00 
       0000DA08 00 00 00 00 00 00 00 00 00 00 
       0000DA12 00 00 00 00 00 00 00 00 00 00 
       0000DA1C 00 00 00 00 00 00 00 00 00 00 
       0000DA26 00 00 00 00 00 00 00 00 00 00 
       0000DA30 00 00 00 00 00 00 00 00 00 00 
       0000DA3A 00 00 00 00 00 00 00 00 00 00 
       0000DA44 00 00 00 00 00 00 00 00 00 00 
       0000DA4E 00 00 00 00 00 00 00 00 00 00 
       0000DA58 00 00 00 00 00 00 00 00 00 00 
       0000DA62 00 00 00 00 00 00 00 00 00 00 
       0000DA6C 00 00 00 00 00 00 00 00 00 00 
       0000DA76 00 00 00 00 00 00 00 00 00 00 
       0000DA80 00 00 00 00 00 00 00 00 00 00 
       0000DA8A 00 00 00 00 00 00 00 00 00 00 
       0000DA94 00 00 00 00 00 00 00 00 00 00 
       0000DA9E 00 00 00 00 00 00 00 00 00 00 
       0000DAA8 00 00 00 00 00 00 00 00 00 00 
       0000DAB2 00 00 00 00 00 00 00 00 00 00 
       0000DABC 00 00 00 00 00 00 00 00 00 00 
       0000DAC6 00 00 00 00 00 00 00 00 00 00 
       0000DAD0 00 00 00 00 00 00 00 00 00 00 
       0000DADA 00 00 00 00 00 00 00 00 00 00 
       0000DAE4 00 00 00 00 00 00 00 00 00 00 
       0000DAEE 00 00 00 00 00 00 00 00 00 00 
       0000DAF8 00 00 00 00 00 00 00 00 00 00 
       0000DB02 00 00 00 00 00 00 00 00 00 00 
       0000DB0C 00 00 00 00 00 00 00 00 00 00 
       0000DB16 00 00 00 00 00 00 00 00 00 00 
       0000DB20 00 00 00 00 00 00 00 00 00 00 
       0000DB2A 00 00 00 00 00 00 00 00 00 00 
       0000DB34 00 00 00 00 00 00 00 00 00 00 
       0000DB3E 00 00 00 00 00 00 00 00 00 00 
       0000DB48 00 00 00 00 00 00 00 00 00 00 
       0000DB52 00 00 00 00 00 00 00 00 00 00 
       0000DB5C 00 00 00 00 00 00 00 00 00 00 
       0000DB66 00 00 00 00 00 00 00 00 00 00 
       0000DB70 00 00 00 00 00 00 00 00 00 00 
       0000DB7A 00 00 00 00 00 00 00 00 00 00 
       0000DB84 00 00 00 00 00 00 00 00 00 00 
       0000DB8E 00 00 00 00 00 00 00 00 00 00 
       0000DB98 00 00 00 00 00 00 00 00 00 00 
       0000DBA2 00 00 00 00 00 00 00 00 00 00 
       0000DBAC 00 00 00 00 00 00 00 00 00 00 
       0000DBB6 00 00 00 00 00 00 00 00 00 00 
       0000DBC0 00 00 00 00 00 00 00 00 00 00 
       0000DBCA 00 00 00 00 00 00 00 00 00 00 
       0000DBD4 00 00 00 00 00 00 00 00 00 00 
       0000DBDE 00 00 00 00 00 00 00 00 00 00 
       0000DBE8 00 00 00 00 00 00 00 00 00 00 
       0000DBF2 00 00 00 00 00 00 00 00 00 00 
       0000DBFC 00 00 00 00 00 00 00 00 00 00 
       0000DC06 00 00 00 00 00 00 00 00 00 00 
       0000DC10 00 00 00 00 00 00 00 00 00 00 
       0000DC1A 00 00 00 00 00 00 00 00 00 00 
       0000DC24 00 00 00 00 00 00 00 00 00 00 
       0000DC2E 00 00 00 00 00 00 00 00 00 00 
       0000DC38 00 00 00 00 00 00 00 00 00 00 
       0000DC42 00 00 00 00 00 00 00 00 00 00 
       0000DC4C 00 00 00 00 00 00 00 00 00 00 
       0000DC56 00 00 00 00 00 00 00 00 00 00 
       0000DC60 00 00 00 00 00 00 00 00 00 00 
       0000DC6A 00 00 00 00 00 00 00 00 00 00 
       0000DC74 00 00 00 00 00 00 00 00 00 00 
       0000DC7E 00 00 00 00 00 00 00 00 00 00 
       0000DC88 00 00 00 00 00 00 00 00 00 00 
       0000DC92 00 00 00 00 00 00 00 00 00 00 
       0000DC9C 00 00 00 00 00 00 00 00 00 00 
       0000DCA6 00 00 00 00 00 00 00 00 00 00 
       0000DCB0 00 00 00 00 00 00 00 00 00 00 
       0000DCBA 00 00 00 00 00 00 00 00 00 00 
       0000DCC4 00 00 00 00 00 00 00 00 00 00 
       0000DCCE 00 00 00 00 00 00 00 00 00 00 
       0000DCD8 00 00 00 00 00 00 00 00 00 00 
       0000DCE2 00 00 00 00 00 00 00 00 00 00 
       0000DCEC 00 00 00 00 00 00 00 00 00 00 
       0000DCF6 00 00 00 00 00 00 00 00 00 00 
       0000DD00 00 00 00 00 00 00 00 00 00 00 
       0000DD0A 00 00 00 00 00 00 00 00 00 00 
       0000DD14 00 00 00 00 00 00 00 00 00 00 
       0000DD1E 00 00 00 00 00 00 00 00 00 00 
       0000DD28 00 00 00 00 00 00 00 00 00 00 
       0000DD32 00 00 00 00 00 00 00 00 00 00 
       0000DD3C 00 00 00 00 00 00 00 00 00 00 
       0000DD46 00 00 00 00 00 00 00 00 00 00 
       0000DD50 00 00 00 00 00 00 00 00 00 00 
       0000DD5A 00 00 00 00 00 00 00 00 00 00 
       0000DD64 00 00 00 00 00 00 00 00 00 00 
       0000DD6E 00 00 00 00 00 00 00 00 00 00 
       0000DD78 00 00 00 00 00 00 00 00 00 00 
       0000DD82 00 00 00 00 00 00 00 00 00 00 
       0000DD8C 00 00 00 00 00 00 00 00 00 00 
       0000DD96 00 00 00 00 00 00 00 00 00 00 
       0000DDA0 00 00 00 00 00 00 00 00 00 00 
       0000DDAA 00 00 00 00 00 00 00 00 00 00 
       0000DDB4 00 00 00 00 00 00 00 00 00 00 
       0000DDBE 00 00 00 00 00 00 00 00 00 00 
       0000DDC8 00 00 00 00 00 00 00 00 00 00 
       0000DDD2 00 00 00 00 00 00 00 00 00 00 
       0000DDDC 00 00 00 00 00 00 00 00 00 00 
       0000DDE6 00 00 00 00 00 00 00 00 00 00 
       0000DDF0 00 00 00 00 00 00 00 00 00 00 
       0000DDFA 00 00 00 00 00 00 00 00 00 00 
       0000DE04 00 00 00 00 00 00 00 00 00 00 
       0000DE0E 00 00 00 00 00 00 00 00 00 00 
       0000DE18 00 00 00 00 00 00 00 00 00 00 
       0000DE22 00 00 00 00 00 00 00 00 00 00 
       0000DE2C 00 00 00 00 00 00 00 00 00 00 
       0000DE36 00 00 00 00 00 00 00 00 00 00 
       0000DE40 00 00 00 00 00 00 00 00 00 00 
       0000DE4A 00 00 00 00 00 00 00 00 00 00 
       0000DE54 00 00 00 00 00 00 00 00 00 00 
       0000DE5E 00 00 00 00 00 00 00 00 00 00 
       0000DE68 00 00 00 00 00 00 00 00 00 00 
       0000DE72 00 00 00 00 00 00 00 00 00 00 
       0000DE7C 00 00 00 00 00 00 00 00 00 00 
       0000DE86 00 00 00 00 00 00 00 00 00 00 
       0000DE90 00 00 00 00 00 00 00 00 00 00 
       0000DE9A 00 00 00 00 00 00 00 00 00 00 
       0000DEA4 00 00 00 00 00 00 00 00 00 00 
       0000DEAE 00 00 00 00 00 00 00 00 00 00 
       0000DEB8 00 00 00 00 00 00 00 00 00 00 
       0000DEC2 00 00 00 00 00 00 00 00 00 00 
       0000DECC 00 00 00 00 00 00 00 00 00 00 
       0000DED6 00 00 00 00 00 00 00 00 00 00 
       0000DEE0 00 00 00 00 00 00 00 00 00 00 
       0000DEEA 00 00 00 00 00 00 00 00 00 00 
       0000DEF4 00 00 00 00 00 00 00 00 00 00 
       0000DEFE 00 00 00 00 00 00 00 00 00 00 
       0000DF08 00 00 00 00 00 00 00 00 00 00 
       0000DF12 00 00 00 00 00 00 00 00 00 00 
       0000DF1C 00 00 00 00 00 00 00 00 00 00 
       0000DF26 00 00 00 00 00 00 00 00 00 00 
       0000DF30 00 00 00 00 00 00 00 00 00 00 
       0000DF3A 00 00 00 00 00 00 00 00 00 00 
       0000DF44 00 00 00 00 00 00 00 00 00 00 
       0000DF4E 00 00 00 00 00 00 00 00 00 00 
       0000DF58 00 00 00 00 00 00 00 00 00 00 
       0000DF62 00 00 00 00 00 00 00 00 00 00 
       0000DF6C 00 00 00 00 00 00 00 00 00 00 
       0000DF76 00 00 00 00 00 00 00 00 00 00 
       0000DF80 00 00 00 00 00 00 00 00 00 00 
       0000DF8A 00 00 00 00 00 00 00 00 00 00 
       0000DF94 00 00 00 00 00 00 00 00 00 00 
       0000DF9E 00 00 00 00 00 00 00 00 00 00 
       0000DFA8 00 00 00 00 00 00 00 00 00 00 
       0000DFB2 00 00 00 00 00 00 00 00 00 00 
       0000DFBC 00 00 00 00 00 00 00 00 00 00 
       0000DFC6 00 00 00 00 00 00 00 00 00 00 
       0000DFD0 00 00 00 00 00 00 00 00 00 00 
       0000DFDA 00 00 00 00 00 00 00 00 00 00 
       0000DFE4 00 00 00 00 00 00 00 00 00 00 
       0000DFEE 00 00 00 00 00 00 00 00 00 00 
       0000DFF8 00 00 00 00 00 00 00 00 00 00 
       0000E002 00 00 00 00 00 00 00 00 00 00 
       0000E00C 00 00 00 00 00 00 00 00 00 00 
       0000E016 00 00 00 00 00 00 00 00 00 00 
       0000E020 00 00 00 00 00 00 00 00 00 00 
       0000E02A 00 00 00 00 00 00 00 00 00 00 
       0000E034 00 00 00 00 00 00 00 00 00 00 
       0000E03E 00 00 00 00 00 00 00 00 00 00 
       0000E048 00 00 00 00 00 00 00 00 00 00 
       0000E052 00 00 00 00 00 00 00 00 00 00 
       0000E05C 00 00 00 00 00 00 00 00 00 00 
       0000E066 00 00 00 00 00 00 00 00 00 00 
       0000E070 00 00 00 00 00 00 00 00 00 00 
       0000E07A 00 00 00 00 00 00 00 00 00 00 
       0000E084 00 00 00 00 00 00 00 00 00 00 
       0000E08E 00 00 00 00 00 00 00 00 00 00 
       0000E098 00 00 00 00 00 00 00 00 00 00 
       0000E0A2 00 00 00 00 00 00 00 00 00 00 
       0000E0AC 00 00 00 00 00 00 00 00 00 00 
       0000E0B6 00 00 00 00 00 00 00 00 00 00 
       0000E0C0 00 00 00 00 00 00 00 00 00 00 
       0000E0CA 00 00 00 00 00 00 00 00 00 00 
       0000E0D4 00 00 00 00 00 00 00 00 00 00 
       0000E0DE 00 00 00 00 00 00 00 00 00 00 
       0000E0E8 00 00 00 00 00 00 00 00 00 00 
       0000E0F2 00 00 00 00 00 00 00 00 00 00 
       0000E0FC 00 00 00 00 00 00 00 00 00 00 
       0000E106 00 00 00 00 00 00 00 00 00 00 
       0000E110 00 00 00 00 00 00 00 00 00 00 
       0000E11A 00 00 00 00 00 00 00 00 00 00 
       0000E124 00 00 00 00 00 00 00 00 00 00 
       0000E12E 00 00 00 00 00 00 00 00 00 00 
       0000E138 00 00 00 00 00 00 00 00 00 00 
       0000E142 00 00 00 00 00 00 00 00 00 00 
       0000E14C 00 00 00 00 00 00 00 00 00 00 
       0000E156 00 00 00 00 00 00 00 00 00 00 
       0000E160 00 00 00 00 00 00 00 00 00 00 
       0000E16A 00 00 00 00 00 00 00 00 00 00 
       0000E174 00 00 00 00 00 00 00 00 00 00 
       0000E17E 00 00 00 00 00 00 00 00 00 00 
       0000E188 00 00 00 00 00 00 00 00 00 00 
       0000E192 00 00 00 00 00 00 00 00 00 00 
       0000E19C 00 00 00 00 00 00 00 00 00 00 
       0000E1A6 00 00 00 00 00 00 00 00 00 00 
       0000E1B0 00 00 00 00 00 00 00 00 00 00 
       0000E1BA 00 00 00 00 00 00 00 00 00 00 
       0000E1C4 00 00 00 00 00 00 00 00 00 00 
       0000E1CE 00 00 00 00 00 00 00 00 00 00 
       0000E1D8 00 00 00 00 00 00 00 00 00 00 
       0000E1E2 00 00 00 00 00 00 00 00 00 00 
       0000E1EC 00 00 00 00 00 00 00 00 00 00 
       0000E1F6 00 00 00 00 00 00 00 00 00 00 
       0000E200 00 00 00 00 00 00 00 00 00 00 
       0000E20A 00 00 00 00 00 00 00 00 00 00 
       0000E214 00 00 00 00 00 00 00 00 00 00 
       0000E21E 00 00 00 00 00 00 00 00 00 00 
       0000E228 00 00 00 00 00 00 00 00 00 00 
       0000E232 00 00 00 00 00 00 00 00 00 00 
       0000E23C 00 00 00 00 00 00 00 00 00 00 
       0000E246 00 00 00 00 00 00 00 00 00 00 
       0000E250 00 00 00 00 00 00 00 00 00 00 
       0000E25A 00 00 00 00 00 00 00 00 00 00 
       0000E264 00 00 00 00 00 00 00 00 00 00 
       0000E26E 00 00 00 00 00 00 00 00 00 00 
       0000E278 00 00 00 00 00 00 00 00 00 00 
       0000E282 00 00 00 00 00 00 00 00 00 00 
       0000E28C 00 00 00 00 00 00 00 00 00 00 
       0000E296 00 00 00 00 00 00 00 00 00 00 
       0000E2A0 00 00 00 00 00 00 00 00 00 00 
       0000E2AA 00 00 00 00 00 00 00 00 00 00 
       0000E2B4 00 00 00 00 00 00 00 00 00 00 
       0000E2BE 00 00 00 00 00 00 00 00 00 00 
       0000E2C8 00 00 00 00 00 00 00 00 00 00 
       0000E2D2 00 00 00 00 00 00 00 00 00 00 
       0000E2DC 00 00 00 00 00 00 00 00 00 00 
       0000E2E6 00 00 00 00 00 00 00 00 00 00 
       0000E2F0 00 00 00 00 00 00 00 00 00 00 
       0000E2FA 00 00 00 00 00 00 00 00 00 00 
       0000E304 00 00 00 00 00 00 00 00 00 00 
       0000E30E 00 00 00 00 00 00 00 00 00 00 
       0000E318 00 00 00 00 00 00 00 00 00 00 
       0000E322 00 00 00 00 00 00 00 00 00 00 
       0000E32C 00 00 00 00 00 00 00 00 00 00 
       0000E336 00 00 00 00 00 00 00 00 00 00 
       0000E340 00 00 00 00 00 00 00 00 00 00 
       0000E34A 00 00 00 00 00 00 00 00 00 00 
       0000E354 00 00 00 00 00 00 00 00 00 00 
       0000E35E 00 00 00 00 00 00 00 00 00 00 
       0000E368 00 00 00 00 00 00 00 00 00 00 
       0000E372 00 00 00 00 00 00 00 00 00 00 
       0000E37C 00 00 00 00 00 00 00 00 00 00 
       0000E386 00 00 00 00 00 00 00 00 00 00 
       0000E390 00 00 00 00 00 00 00 00 00 00 
       0000E39A 00 00 00 00 00 00 00 00 00 00 
       0000E3A4 00 00 00 00 00 00 00 00 00 00 
       0000E3AE 00 00 00 00 00 00 00 00 00 00 
       0000E3B8 00 00 00 00 00 00 00 00 00 00 
       0000E3C2 00 00 00 00 00 00 00 00 00 00 
       0000E3CC 00 00 00 00 00 00 00 00 00 00 
       0000E3D6 00 00 00 00 00 00 00 00 00 00 
       0000E3E0 00 00 00 00 00 00 00 00 00 00 
       0000E3EA 00 00 00 00 00 00 00 00 00 00 
       0000E3F4 00 00 00 00 00 00 00 00 00 00 
       0000E3FE 00 00 00 00 00 00 00 00 00 00 
       0000E408 00 00 00 00 00 00 00 00 00 00 
       0000E412 00 00 00 00 00 00 00 00 00 00 
       0000E41C 00 00 00 00 00 00 00 00 00 00 
       0000E426 00 00 00 00 00 00 00 00 00 00 
       0000E430 00 00 00 00 00 00 00 00 00 00 
       0000E43A 00 00 00 00 00 00 00 00 00 00 
       0000E444 00 00 00 00 00 00 00 00 00 00 
       0000E44E 00 00 00 00 00 00 00 00 00 00 
       0000E458 00 00 00 00 00 00 00 00 00 00 
       0000E462 00 00 00 00 00 00 00 00 00 00 
       0000E46C 00 00 00 00 00 00 00 00 00 00 
       0000E476 00 00 00 00 00 00 00 00 00 00 
       0000E480 00 00 00 00 00 00 00 00 00 00 
       0000E48A 00 00 00 00 00 00 00 00 00 00 
       0000E494 00 00 00 00 00 00 00 00 00 00 
       0000E49E 00 00 00 00 00 00 00 00 00 00 
       0000E4A8 00 00 00 00 00 00 00 00 00 00 
       0000E4B2 00 00 00 00 00 00 00 00 00 00 
       0000E4BC 00 00 00 00 00 00 00 00 00 00 
       0000E4C6 00 00 00 00 00 00 00 00 00 00 
       0000E4D0 00 00 00 00 00 00 00 00 00 00 
       0000E4DA 00 00 00 00 00 00 00 00 00 00 
       0000E4E4 00 00 00 00 00 00 00 00 00 00 
       0000E4EE 00 00 00 00 00 00 00 00 00 00 
       0000E4F8 00 00 00 00 00 00 00 00 00 00 
       0000E502 00 00 00 00 00 00 00 00 00 00 
       0000E50C 00 00 00 00 00 00 00 00 00 00 
       0000E516 00 00 00 00 00 00 00 00 00 00 
       0000E520 00 00 00 00 00 00 00 00 00 00 
       0000E52A 00 00 00 00 00 00 00 00 00 00 
       0000E534 00 00 00 00 00 00 00 00 00 00 
       0000E53E 00 00 00 00 00 00 00 00 00 00 
       0000E548 00 00 00 00 00 00 00 00 00 00 
       0000E552 00 00 00 00 00 00 00 00 00 00 
       0000E55C 00 00 00 00 00 00 00 00 00 00 
       0000E566 00 00 00 00 00 00 00 00 00 00 
       0000E570 00 00 00 00 00 00 00 00 00 00 
       0000E57A 00 00 00 00 00 00 00 00 00 00 
       0000E584 00 00 00 00 00 00 00 00 00 00 
       0000E58E 00 00 00 00 00 00 00 00 00 00 
       0000E598 00 00 00 00 00 00 00 00 00 00 
       0000E5A2 00 00 00 00 00 00 00 00 00 00 
       0000E5AC 00 00 00 00 00 00 00 00 00 00 
       0000E5B6 00 00 00 00 00 00 00 00 00 00 
       0000E5C0 00 00 00 00 00 00 00 00 00 00 
       0000E5CA 00 00 00 00 00 00 00 00 00 00 
       0000E5D4 00 00 00 00 00 00 00 00 00 00 
       0000E5DE 00 00 00 00 00 00 00 00 00 00 
       0000E5E8 00 00 00 00 00 00 00 00 00 00 
       0000E5F2 00 00 00 00 00 00 00 00 00 00 
       0000E5FC 00 00 00 00 00 00 00 00 00 00 
       0000E606 00 00 00 00 00 00 00 00 00 00 
       0000E610 00 00 00 00 00 00 00 00 00 00 
       0000E61A 00 00 00 00 00 00 00 00 00 00 
       0000E624 00 00 00 00 00 00 00 00 00 00 
       0000E62E 00 00 00 00 00 00 00 00 00 00 
       0000E638 00 00 00 00 00 00 00 00 00 00 
       0000E642 00 00 00 00 00 00 00 00 00 00 
       0000E64C 00 00 00 00 00 00 00 00 00 00 
       0000E656 00 00 00 00 00 00 00 00 00 00 
       0000E660 00 00 00 00 00 00 00 00 00 00 
       0000E66A 00 00 00 00 00 00 00 00 00 00 
       0000E674 00 00 00 00 00 00 00 00 00 00 
       0000E67E 00 00 00 00 00 00 00 00 00 00 
       0000E688 00 00 00 00 00 00 00 00 00 00 
       0000E692 00 00 00 00 00 00 00 00 00 00 
       0000E69C 00 00 00 00 00 00 00 00 00 00 
       0000E6A6 00 00 00 00 00 00 00 00 00 00 
       0000E6B0 00 00 00 00 00 00 00 00 00 00 
       0000E6BA 00 00 00 00 00 00 00 00 00 00 
       0000E6C4 00 00 00 00 00 00 00 00 00 00 
       0000E6CE 00 00 00 00 00 00 00 00 00 00 
       0000E6D8 00 00 00 00 00 00 00 00 00 00 
       0000E6E2 00 00 00 00 00 00 00 00 00 00 
       0000E6EC 00 00 00 00 00 00 00 00 00 00 
       0000E6F6 00 00 00 00 00 00 00 00 00 00 
       0000E700 00 00 00 00 00 00 00 00 00 00 
       0000E70A 00 00 00 00 00 00 00 00 00 00 
       0000E714 00 00 00 00 00 00 00 00 00 00 
       0000E71E 00 00 00 00 00 00 00 00 00 00 
       0000E728 00 00 00 00 00 00 00 00 00 00 
       0000E732 00 00 00 00 00 00 00 00 00 00 
       0000E73C 00 00 00 00 00 00 00 00 00 00 
       0000E746 00 00 00 00 00 00 00 00 00 00 
       0000E750 00 00 00 00 00 00 00 00 00 00 
       0000E75A 00 00 00 00 00 00 00 00 00 00 
       0000E764 00 00 00 00 00 00 00 00 00 00 
       0000E76E 00 00 00 00 00 00 00 00 00 00 
       0000E778 00 00 00 00 00 00 00 00 00 00 
       0000E782 00 00 00 00 00 00 00 00 00 00 
       0000E78C 00 00 00 00 00 00 00 00 00 00 
       0000E796 00 00 00 00 00 00 00 00 00 00 
       0000E7A0 00 00 00 00 00 00 00 00 00 00 
       0000E7AA 00 00 00 00 00 00 00 00 00 00 
       0000E7B4 00 00 00 00 00 00 00 00 00 00 
       0000E7BE 00 00 00 00 00 00 00 00 00 00 
       0000E7C8 00 00 00 00 00 00 00 00 00 00 
       0000E7D2 00 00 00 00 00 00 00 00 00 00 
       0000E7DC 00 00 00 00 00 00 00 00 00 00 
       0000E7E6 00 00 00 00 00 00 00 00 00 00 
       0000E7F0 00 00 00 00 00 00 00 00 00 00 
       0000E7FA 00 00 00 00 00 00 00 00 00 00 
       0000E804 00 00 00 00 00 00 00 00 00 00 
       0000E80E 00 00 00 00 00 00 00 00 00 00 
       0000E818 00 00 00 00 00 00 00 00 00 00 
       0000E822 00 00 00 00 00 00 00 00 00 00 
       0000E82C 00 00 00 00 00 00 00 00 00 00 
       0000E836 00 00 00 00 00 00 00 00 00 00 
       0000E840 00 00 00 00 00 00 00 00 00 00 
       0000E84A 00 00 00 00 00 00 00 00 00 00 
       0000E854 00 00 00 00 00 00 00 00 00 00 
       0000E85E 00 00 00 00 00 00 00 00 00 00 
       0000E868 00 00 00 00 00 00 00 00 00 00 
       0000E872 00 00 00 00 00 00 00 00 00 00 
       0000E87C 00 00 00 00 00 00 00 00 00 00 
       0000E886 00 00 00 00 00 00 00 00 00 00 
       0000E890 00 00 00 00 00 00 00 00 00 00 
       0000E89A 00 00 00 00 00 00 00 00 00 00 
       0000E8A4 00 00 00 00 00 00 00 00 00 00 
       0000E8AE 00 00 00 00 00 00 00 00 00 00 
       0000E8B8 00 00 00 00 00 00 00 00 00 00 
       0000E8C2 00 00 00 00 00 00 00 00 00 00 
       0000E8CC 00 00 00 00 00 00 00 00 00 00 
       0000E8D6 00 00 00 00 00 00 00 00 00 00 
       0000E8E0 00 00 00 00 00 00 00 00 00 00 
       0000E8EA 00 00 00 00 00 00 00 00 00 00 
       0000E8F4 00 00 00 00 00 00 00 00 00 00 
       0000E8FE 00 00 00 00 00 00 00 00 00 00 
       0000E908 00 00 00 00 00 00 00 00 00 00 
       0000E912 00 00 00 00 00 00 00 00 00 00 
       0000E91C 00 00 00 00 00 00 00 00 00 00 
       0000E926 00 00 00 00 00 00 00 00 00 00 
       0000E930 00 00 00 00 00 00 00 00 00 00 
       0000E93A 00 00 00 00 00 00 00 00 00 00 
       0000E944 00 00 00 00 00 00 00 00 00 00 
       0000E94E 00 00 00 00 00 00 00 00 00 00 
       0000E958 00 00 00 00 00 00 00 00 00 00 
       0000E962 00 00 00 00 00 00 00 00 00 00 
       0000E96C 00 00 00 00 00 00 00 00 00 00 
       0000E976 00 00 00 00 00 00 00 00 00 00 
       0000E980 00 00 00 00 00 00 00 00 00 00 
       0000E98A 00 00 00 00 00 00 00 00 00 00 
       0000E994 00 00 00 00 00 00 00 00 00 00 
       0000E99E 00 00 00 00 00 00 00 00 00 00 
       0000E9A8 00 00 00 00 00 00 00 00 00 00 
       0000E9B2 00 00 00 00 00 00 00 00 00 00 
       0000E9BC 00 00 00 00 00 00 00 00 00 00 
       0000E9C6 00 00 00 00 00 00 00 00 00 00 
       0000E9D0 00 00 00 00 00 00 00 00 00 00 
       0000E9DA 00 00 00 00 00 00 00 00 00 00 
       0000E9E4 00 00 00 00 00 00 00 00 00 00 
       0000E9EE 00 00 00 00 00 00 00 00 00 00 
       0000E9F8 00 00 00 00 00 00 00 00 00 00 
       0000EA02 00 00 00 00 00 00 00 00 00 00 
       0000EA0C 00 00 00 00 00 00 00 00 00 00 
       0000EA16 00 00 00 00 00 00 00 00 00 00 
       0000EA20 00 00 00 00 00 00 00 00 00 00 
       0000EA2A 00 00 00 00 00 00 00 00 00 00 
       0000EA34 00 00 00 00 00 00 00 00 00 00 
       0000EA3E 00 00 00 00 00 00 00 00 00 00 
       0000EA48 00 00 00 00 00 00 00 00 00 00 
       0000EA52 00 00 00 00 00 00 00 00 00 00 
       0000EA5C 00 00 00 00 00 00 00 00 00 00 
       0000EA66 00 00 00 00 00 00 00 00 00 00 
       0000EA70 00 00 00 00 00 00 00 00 00 00 
       0000EA7A 00 00 00 00 00 00 00 00 00 00 
       0000EA84 00 00 00 00 00 00 00 00 00 00 
       0000EA8E 00 00 00 00 00 00 00 00 00 00 
       0000EA98 00 00 00 00 00 00 00 00 00 00 
       0000EAA2 00 00 00 00 00 00 00 00 00 00 
       0000EAAC 00 00 00 00 00 00 00 00 00 00 
       0000EAB6 00 00 00 00 00 00 00 00 00 00 
       0000EAC0 00 00 00 00 00 00 00 00 00 00 
       0000EACA 00 00 00 00 00 00 00 00 00 00 
       0000EAD4 00 00 00 00 00 00 00 00 00 00 
       0000EADE 00 00 00 00 00 00 00 00 00 00 
       0000EAE8 00 00 00 00 00 00 00 00 00 00 
       0000EAF2 00 00 00 00 00 00 00 00 00 00 
       0000EAFC 00 00 00 00 00 00 00 00 00 00 
       0000EB06 00 00 00 00 00 00 00 00 00 00 
       0000EB10 00 00 00 00 00 00 00 00 00 00 
       0000EB1A 00 00 00 00 00 00 00 00 00 00 
       0000EB24 00 00 00 00 00 00 00 00 00 00 
       0000EB2E 00 00 00 00 00 00 00 00 00 00 
       0000EB38 00 00 00 00 00 00 00 00 00 00 
       0000EB42 00 00 00 00 00 00 00 00 00 00 
       0000EB4C 00 00 00 00 00 00 00 00 00 00 
       0000EB56 00 00 00 00 00 00 00 00 00 00 
       0000EB60 00 00 00 00 00 00 00 00 00 00 
       0000EB6A 00 00 00 00 00 00 00 00 00 00 
       0000EB74 00 00 00 00 00 00 00 00 00 00 
       0000EB7E 00 00 00 00 00 00 00 00 00 00 
       0000EB88 00 00 00 00 00 00 00 00 00 00 
       0000EB92 00 00 00 00 00 00 00 00 00 00 
       0000EB9C 00 00 00 00 00 00 00 00 00 00 
       0000EBA6 00 00 00 00 00 00 00 00 00 00 
       0000EBB0 00 00 00 00 00 00 00 00 00 00 
       0000EBBA 00 00 00 00 00 00 00 00 00 00 
       0000EBC4 00 00 00 00 00 00 00 00 00 00 
       0000EBCE 00 00 00 00 00 00 00 00 00 00 
       0000EBD8 00 00 00 00 00 00 00 00 00 00 
       0000EBE2 00 00 00 00 00 00 00 00 00 00 
       0000EBEC 00 00 00 00 00 00 00 00 00 00 
       0000EBF6 00 00 00 00 00 00 00 00 00 00 
       0000EC00 00 00 00 00 00 00 00 00 00 00 
       0000EC0A 00 00 00 00 00 00 00 00 00 00 
       0000EC14 00 00 00 00 00 00 00 00 00 00 
       0000EC1E 00 00 00 00 00 00 00 00 00 00 
       0000EC28 00 00 00 00 00 00 00 00 00 00 
       0000EC32 00 00 00 00 00 00 00 00 00 00 
       0000EC3C 00 00 00 00 00 00 00 00 00 00 
       0000EC46 00 00 00 00 00 00 00 00 00 00 
       0000EC50 00 00 00 00 00 00 00 00 00 00 
       0000EC5A 00 00 00 00 00 00 00 00 00 00 
       0000EC64 00 00 00 00 00 00 00 00 00 00 
       0000EC6E 00 00 00 00 00 00 00 00 00 00 
       0000EC78 00 00 00 00 00 00 00 00 00 00 
       0000EC82 00 00 00 00 00 00 00 00 00 00 
       0000EC8C 00 00 00 00 00 00 00 00 00 00 
       0000EC96 00 00 00 00 00 00 00 00 00 00 
       0000ECA0 00 00 00 00 00 00 00 00 00 00 
       0000ECAA 00 00 00 00 00 00 00 00 00 00 
       0000ECB4 00 00 00 00 00 00 00 00 00 00 
       0000ECBE 00 00 00 00 00 00 00 00 00 00 
       0000ECC8 00 00 00 00 00 00 00 00 00 00 
       0000ECD2 00 00 00 00 00 00 00 00 00 00 
       0000ECDC 00 00 00 00 00 00 00 00 00 00 
       0000ECE6 00 00 00 00 00 00 00 00 00 00 
       0000ECF0 00 00 00 00 00 00 00 00 00 00 
       0000ECFA 00 00 00 00 00 00 00 00 00 00 
       0000ED04 00 00 00 00 00 00 00 00 00 00 
       0000ED0E 00 00 00 00 00 00 00 00 00 00 
       0000ED18 00 00 00 00 00 00 00 00 00 00 
       0000ED22 00 00 00 00 00 00 00 00 00 00 
       0000ED2C 00 00 00 00 00 00 00 00 00 00 
       0000ED36 00 00 00 00 00 00 00 00 00 00 
       0000ED40 00 00 00 00 00 00 00 00 00 00 
       0000ED4A 00 00 00 00 00 00 00 00 00 00 
       0000ED54 00 00 00 00 00 00 00 00 00 00 
       0000ED5E 00 00 00 00 00 00 00 00 00 00 
       0000ED68 00 00 00 00 00 00 00 00 00 00 
       0000ED72 00 00 00 00 00 00 00 00 00 00 
       0000ED7C 00 00 00 00 00 00 00 00 00 00 
       0000ED86 00 00 00 00 00 00 00 00 00 00 
       0000ED90 00 00 00 00 00 00 00 00 00 00 
       0000ED9A 00 00 00 00 00 00 00 00 00 00 
       0000EDA4 00 00 00 00 00 00 00 00 00 00 
       0000EDAE 00 00 00 00 00 00 00 00 00 00 
       0000EDB8 00 00 00 00 00 00 00 00 00 00 
       0000EDC2 00 00 00 00 00 00 00 00 00 00 
       0000EDCC 00 00 00 00 00 00 00 00 00 00 
       0000EDD6 00 00 00 00 00 00 00 00 00 00 
       0000EDE0 00 00 00 00 00 00 00 00 00 00 
       0000EDEA 00 00 00 00 00 00 00 00 00 00 
       0000EDF4 00 00 00 00 00 00 00 00 00 00 
       0000EDFE 00 00 00 00 00 00 00 00 00 00 
       0000EE08 00 00 00 00 00 00 00 00 00 00 
       0000EE12 00 00 00 00 00 00 00 00 00 00 
       0000EE1C 00 00 00 00 00 00 00 00 00 00 
       0000EE26 00 00 00 00 00 00 00 00 00 00 
       0000EE30 00 00 00 00 00 00 00 00 00 00 
       0000EE3A 00 00 00 00 00 00 00 00 00 00 
       0000EE44 00 00 00 00 00 00 00 00 00 00 
       0000EE4E 00 00 00 00 00 00 00 00 00 00 
       0000EE58 00 00 00 00 00 00 00 00 00 00 
       0000EE62 00 00 00 00 00 00 00 00 00 00 
       0000EE6C 00 00 00 00 00 00 00 00 00 00 
       0000EE76 00 00 00 00 00 00 00 00 00 00 
       0000EE80 00 00 00 00 00 00 00 00 00 00 
       0000EE8A 00 00 00 00 00 00 00 00 00 00 
       0000EE94 00 00 00 00 00 00 00 00 00 00 
       0000EE9E 00 00 00 00 00 00 00 00 00 00 
       0000EEA8 00 00 00 00 00 00 00 00 00 00 
       0000EEB2 00 00 00 00 00 00 00 00 00 00 
       0000EEBC 00 00 00 00 00 00 00 00 00 00 
       0000EEC6 00 00 00 00 00 00 00 00 00 00 
       0000EED0 00 00 00 00 00 00 00 00 00 00 
       0000EEDA 00 00 00 00 00 00 00 00 00 00 
       0000EEE4 00 00 00 00 00 00 00 00 00 00 
       0000EEEE 00 00 00 00 00 00 00 00 00 00 
       0000EEF8 00 00 00 00 00 00 00 00 00 00 
       0000EF02 00 00 00 00 00 00 00 00 00 00 
       0000EF0C 00 00 00 00 00 00 00 00 00 00 
       0000EF16 00 00 00 00 00 00 00 00 00 00 
       0000EF20 00 00 00 00 00 00 00 00 00 00 
       0000EF2A 00 00 00 00 00 00 00 00 00 00 
       0000EF34 00 00 00 00 00 00 00 00 00 00 
       0000EF3E 00 00 00 00 00 00 00 00 00 00 
       0000EF48 00 00 00 00 00 00 00 00 00 00 
       0000EF52 00 00 00 00 00 00 00 00 00 00 
       0000EF5C 00 00 00 00 00 00 00 00 00 00 
       0000EF66 00 00 00 00 00 00 00 00 00 00 
       0000EF70 00 00 00 00 00 00 00 00 00 00 
       0000EF7A 00 00 00 00 00 00 00 00 00 00 
       0000EF84 00 00 00 00 00 00 00 00 00 00 
       0000EF8E 00 00 00 00 00 00 00 00 00 00 
       0000EF98 00 00 00 00 00 00 00 00 00 00 
       0000EFA2 00 00 00 00 00 00 00 00 00 00 
       0000EFAC 00 00 00 00 00 00 00 00 00 00 
       0000EFB6 00 00 00 00 00 00 00 00 00 00 
       0000EFC0 00 00 00 00 00 00 00 00 00 00 
       0000EFCA 00 00 00 00 00 00 00 00 00 00 
       0000EFD4 00 00 00 00 00 00 00 00 00 00 
       0000EFDE 00 00 00 00 00 00 00 00 00 00 
       0000EFE8 00 00 00 00 00 00 00 00 00 00 
       0000EFF2 00 00 00 00 00 00 00 00 00 00 
       0000EFFC 00 00 00 00 00 00 00 00 00 00 
       0000F006 00 00 00 00 00 00 00 00 00 00 
       0000F010 00 00 00 00 00 00 00 00 00 00 
       0000F01A 00 00 00 00 00 00 00 00 00 00 
       0000F024 00 00 00 00 00 00 00 00 00 00 
       0000F02E 00 00 00 00 00 00 00 00 00 00 
       0000F038 00 00 00 00 00 00 00 00 00 00 
       0000F042 00 00 00 00 00 00 00 00 00 00 
       0000F04C 00 00 00 00 00 00 00 00 00 00 
       0000F056 00 00 00 00 00 00 00 00 00 00 
       0000F060 00 00 00 00 00 00 00 00 00 00 
       0000F06A 00 00 00 00 00 00 00 00 00 00 
       0000F074 00 00 00 00 00 00 00 00 00 00 
       0000F07E 00 00 00 00 00 00 00 00 00 00 
       0000F088 00 00 00 00 00 00 00 00 00 00 
       0000F092 00 00 00 00 00 00 00 00 00 00 
       0000F09C 00 00 00 00 00 00 00 00 00 00 
       0000F0A6 00 00 00 00 00 00 00 00 00 00 
       0000F0B0 00 00 00 00 00 00 00 00 00 00 
       0000F0BA 00 00 00 00 00 00 00 00 00 00 
       0000F0C4 00 00 00 00 00 00 00 00 00 00 
       0000F0CE 00 00 00 00 00 00 00 00 00 00 
       0000F0D8 00 00 00 00 00 00 00 00 00 00 
       0000F0E2 00 00 00 00 00 00 00 00 00 00 
       0000F0EC 00 00 00 00 00 00 00 00 00 00 
       0000F0F6 00 00 00 00 00 00 00 00 00 00 
       0000F100 00 00 00 00 00 00 00 00 00 00 
       0000F10A 00 00 00 00 00 00 00 00 00 00 
       0000F114 00 00 00 00 00 00 00 00 00 00 
       0000F11E 00 00 00 00 00 00 00 00 00 00 
       0000F128 00 00 00 00 00 00 00 00 00 00 
       0000F132 00 00 00 00 00 00 00 00 00 00 
       0000F13C 00 00 00 00 00 00 00 00 00 00 
       0000F146 00 00 00 00 00 00 00 00 00 00 
       0000F150 00 00 00 00 00 00 00 00 00 00 
       0000F15A 00 00 00 00 00 00 00 00 00 00 
       0000F164 00 00 00 00 00 00 00 00 00 00 
       0000F16E 00 00 00 00 00 00 00 00 00 00 
       0000F178 00 00 00 00 00 00 00 00 00 00 
       0000F182 00 00 00 00 00 00 00 00 00 00 
       0000F18C 00 00 00 00 00 00 00 00 00 00 
       0000F196 00 00 00 00 00 00 00 00 00 00 
       0000F1A0 00 00 00 00 00 00 00 00 00 00 
       0000F1AA 00 00 00 00 00 00 00 00 00 00 
       0000F1B4 00 00 00 00 00 00 00 00 00 00 
       0000F1BE 00 00 00 00 00 00 00 00 00 00 
       0000F1C8 00 00 00 00 00 00 00 00 00 00 
       0000F1D2 00 00 00 00 00 00 00 00 00 00 
       0000F1DC 00 00 00 00 00 00 00 00 00 00 
       0000F1E6 00 00 00 00 00 00 00 00 00 00 
       0000F1F0 00 00 00 00 00 00 00 00 00 00 
       0000F1FA 00 00 00 00 00 00 00 00 00 00 
       0000F204 00 00 00 00 00 00 00 00 00 00 
       0000F20E 00 00 00 00 00 00 00 00 00 00 
       0000F218 00 00 00 00 00 00 00 00 00 00 
       0000F222 00 00 00 00 00 00 00 00 00 00 
       0000F22C 00 00 00 00 00 00 00 00 00 00 
       0000F236 00 00 00 00 00 00 00 00 00 00 
       0000F240 00 00 00 00 00 00 00 00 00 00 
       0000F24A 00 00 00 00 00 00 00 00 00 00 
       0000F254 00 00 00 00 00 00 00 00 00 00 
       0000F25E 00 00 00 00 00 00 00 00 00 00 
       0000F268 00 00 00 00 00 00 00 00 00 00 
       0000F272 00 00 00 00 00 00 00 00 00 00 
       0000F27C 00 00 00 00 00 00 00 00 00 00 
       0000F286 00 00 00 00 00 00 00 00 00 00 
       0000F290 00 00 00 00 00 00 00 00 00 00 
       0000F29A 00 00 00 00 00 00 00 00 00 00 
       0000F2A4 00 00 00 00 00 00 00 00 00 00 
       0000F2AE 00 00 00 00 00 00 00 00 00 00 
       0000F2B8 00 00 00 00 00 00 00 00 00 00 
       0000F2C2 00 00 00 00 00 00 00 00 00 00 
       0000F2CC 00 00 00 00 00 00 00 00 00 00 
       0000F2D6 00 00 00 00 00 00 00 00 00 00 
       0000F2E0 00 00 00 00 00 00 00 00 00 00 
       0000F2EA 00 00 00 00 00 00 00 00 00 00 
       0000F2F4 00 00 00 00 00 00 00 00 00 00 
       0000F2FE 00 00 00 00 00 00 00 00 00 00 
       0000F308 00 00 00 00 00 00 00 00 00 00 
       0000F312 00 00 00 00 00 00 00 00 00 00 
       0000F31C 00 00 00 00 00 00 00 00 00 00 
       0000F326 00 00 00 00 00 00 00 00 00 00 
       0000F330 00 00 00 00 00 00 00 00 00 00 
       0000F33A 00 00 00 00 00 00 00 00 00 00 
       0000F344 00 00 00 00 00 00 00 00 00 00 
       0000F34E 00 00 00 00 00 00 00 00 00 00 
       0000F358 00 00 00 00 00 00 00 00 00 00 
       0000F362 00 00 00 00 00 00 00 00 00 00 
       0000F36C 00 00 00 00 00 00 00 00 00 00 
       0000F376 00 00 00 00 00 00 00 00 00 00 
       0000F380 00 00 00 00 00 00 00 00 00 00 
       0000F38A 00 00 00 00 00 00 00 00 00 00 
       0000F394 00 00 00 00 00 00 00 00 00 00 
       0000F39E 00 00 00 00 00 00 00 00 00 00 
       0000F3A8 00 00 00 00 00 00 00 00 00 00 
       0000F3B2 00 00 00 00 00 00 00 00 00 00 
       0000F3BC 00 00 00 00 00 00 00 00 00 00 
       0000F3C6 00 00 00 00 00 00 00 00 00 00 
       0000F3D0 00 00 00 00 00 00 00 00 00 00 
       0000F3DA 00 00 00 00 00 00 00 00 00 00 
       0000F3E4 00 00 00 00 00 00 00 00 00 00 
       0000F3EE 00 00 00 00 00 00 00 00 00 00 
       0000F3F8 00 00 00 00 00 00 00 00 00 00 
       0000F402 00 00 00 00 00 00 00 00 00 00 
       0000F40C 00 00 00 00 00 00 00 00 00 00 
       0000F416 00 00 00 00 00 00 00 00 00 00 
       0000F420 00 00 00 00 00 00 00 00 00 00 
       0000F42A 00 00 00 00 00 00 00 00 00 00 
       0000F434 00 00 00 00 00 00 00 00 00 00 
       0000F43E 00 00 00 00 00 00 00 00 00 00 
       0000F448 00 00 00 00 00 00 00 00 00 00 
       0000F452 00 00 00 00 00 00 00 00 00 00 
       0000F45C 00 00 00 00 00 00 00 00 00 00 
       0000F466 00 00 00 00 00 00 00 00 00 00 
       0000F470 00 00 00 00 00 00 00 00 00 00 
       0000F47A 00 00 00 00 00 00 00 00 00 00 
       0000F484 00 00 00 00 00 00 00 00 00 00 
       0000F48E 00 00 00 00 00 00 00 00 00 00 
       0000F498 00 00 00 00 00 00 00 00 00 00 
       0000F4A2 00 00 00 00 00 00 00 00 00 00 
       0000F4AC 00 00 00 00 00 00 00 00 00 00 
       0000F4B6 00 00 00 00 00 00 00 00 00 00 
       0000F4C0 00 00 00 00 00 00 00 00 00 00 
       0000F4CA 00 00 00 00 00 00 00 00 00 00 
       0000F4D4 00 00 00 00 00 00 00 00 00 00 
       0000F4DE 00 00 00 00 00 00 00 00 00 00 
       0000F4E8 00 00 00 00 00 00 00 00 00 00 
       0000F4F2 00 00 00 00 00 00 00 00 00 00 
       0000F4FC 00 00 00 00 00 00 00 00 00 00 
       0000F506 00 00 00 00 00 00 00 00 00 00 
       0000F510 00 00 00 00 00 00 00 00 00 00 
       0000F51A 00 00 00 00 00 00 00 00 00 00 
       0000F524 00 00 00 00 00 00 00 00 00 00 
       0000F52E 00 00 00 00 00 00 00 00 00 00 
       0000F538 00 00 00 00 00 00 00 00 00 00 
       0000F542 00 00 00 00 00 00 00 00 00 00 
       0000F54C 00 00 00 00 00 00 00 00 00 00 
       0000F556 00 00 00 00 00 00 00 00 00 00 
       0000F560 00 00 00 00 00 00 00 00 00 00 
       0000F56A 00 00 00 00 00 00 00 00 00 00 
       0000F574 00 00 00 00 00 00 00 00 00 00 
       0000F57E 00 00 00 00 00 00 00 00 00 00 
       0000F588 00 00 00 00 00 00 00 00 00 00 
       0000F592 00 00 00 00 00 00 00 00 00 00 
       0000F59C 00 00 00 00 00 00 00 00 00 00 
       0000F5A6 00 00 00 00 00 00 00 00 00 00 
       0000F5B0 00 00 00 00 00 00 00 00 00 00 
       0000F5BA 00 00 00 00 00 00 00 00 00 00 
       0000F5C4 00 00 00 00 00 00 00 00 00 00 
       0000F5CE 00 00 00 00 00 00 00 00 00 00 
       0000F5D8 00 00 00 00 00 00 00 00 00 00 
       0000F5E2 00 00 00 00 00 00 00 00 00 00 
       0000F5EC 00 00 00 00 00 00 00 00 00 00 
       0000F5F6 00 00 00 00 00 00 00 00 00 00 
       0000F600 00 00 00 00 00 00 00 00 00 00 
       0000F60A 00 00 00 00 00 00 00 00 00 00 
       0000F614 00 00 00 00 00 00 00 00 00 00 
       0000F61E 00 00 00 00 00 00 00 00 00 00 
       0000F628 00 00 00 00 00 00 00 00 00 00 
       0000F632 00 00 00 00 00 00 00 00 00 00 
       0000F63C 00 00 00 00 00 00 00 00 00 00 
       0000F646 00 00 00 00 00 00 00 00 00 00 
       0000F650 00 00 00 00 00 00 00 00 00 00 
       0000F65A 00 00 00 00 00 00 00 00 00 00 
       0000F664 00 00 00 00 00 00 00 00 00 00 
       0000F66E 00 00 00 00 00 00 00 00 00 00 
       0000F678 00 00 00 00 00 00 00 00 00 00 
       0000F682 00 00 00 00 00 00 00 00 00 00 
       0000F68C 00 00 00 00 00 00 00 00 00 00 
       0000F696 00 00 00 00 00 00 00 00 00 00 
       0000F6A0 00 00 00 00 00 00 00 00 00 00 
       0000F6AA 00 00 00 00 00 00 00 00 00 00 
       0000F6B4 00 00 00 00 00 00 00 00 00 00 
       0000F6BE 00 00 00 00 00 00 00 00 00 00 
       0000F6C8 00 00 00 00 00 00 00 00 00 00 
       0000F6D2 00 00 00 00 00 00 00 00 00 00 
       0000F6DC 00 00 00 00 00 00 00 00 00 00 
       0000F6E6 00 00 00 00 00 00 00 00 00 00 
       0000F6F0 00 00 00 00 00 00 00 00 00 00 
       0000F6FA 00 00 00 00 00 00 00 00 00 00 
       0000F704 00 00 00 00 00 00 00 00 00 00 
       0000F70E 00 00 00 00 00 00 00 00 00 00 
       0000F718 00 00 00 00 00 00 00 00 00 00 
       0000F722 00 00 00 00 00 00 00 00 00 00 
       0000F72C 00 00 00 00 00 00 00 00 00 00 
       0000F736 00 00 00 00 00 00 00 00 00 00 
       0000F740 00 00 00 00 00 00 00 00 00 00 
       0000F74A 00 00 00 00 00 00 00 00 00 00 
       0000F754 00 00 00 00 00 00 00 00 00 00 
       0000F75E 00 00 00 00 00 00 00 00 00 00 
       0000F768 00 00 00 00 00 00 00 00 00 00 
       0000F772 00 00 00 00 00 00 00 00 00 00 
       0000F77C 00 00 00 00 00 00 00 00 00 00 
       0000F786 00 00 00 00 00 00 00 00 00 00 
       0000F790 00 00 00 00 00 00 00 00 00 00 
       0000F79A 00 00 00 00 00 00 00 00 00 00 
       0000F7A4 00 00 00 00 00 00 00 00 00 00 
       0000F7AE 00 00 00 00 00 00 00 00 00 00 
       0000F7B8 00 00 00 00 00 00 00 00 00 00 
       0000F7C2 00 00 00 00 00 00 00 00 00 00 
       0000F7CC 00 00 00 00 00 00 00 00 00 00 
       0000F7D6 00 00 00 00 00 00 00 00 00 00 
       0000F7E0 00 00 00 00 00 00 00 00 00 00 
       0000F7EA 00 00 00 00 00 00 00 00 00 00 
       0000F7F4 00 00 00 00 00 00 00 00 00 00 
       0000F7FE 00 00 00 00 00 00 00 00 00 00 
       0000F808 00 00 00 00 00 00 00 00 00 00 
       0000F812 00 00 00 00 00 00 00 00 00 00 
       0000F81C 00 00 00 00 00 00 00 00 00 00 
       0000F826 00 00 00 00 00 00 00 00 00 00 
       0000F830 00 00 00 00 00 00 00 00 00 00 
       0000F83A 00 00 00 00 00 00 00 00 00 00 
       0000F844 00 00 00 00 00 00 00 00 00 00 
       0000F84E 00 00 00 00 00 00 00 00 00 00 
       0000F858 00 00 00 00 00 00 00 00 00 00 
       0000F862 00 00 00 00 00 00 00 00 00 00 
       0000F86C 00 00 00 00 00 00 00 00 00 00 
       0000F876 00 00 00 00 00 00 00 00 00 00 
       0000F880 00 00 00 00 00 00 00 00 00 00 
       0000F88A 00 00 00 00 00 00 00 00 00 00 
       0000F894 00 00 00 00 00 00 00 00 00 00 
       0000F89E 00 00 00 00 00 00 00 00 00 00 
       0000F8A8 00 00 00 00 00 00 00 00 00 00 
       0000F8B2 00 00 00 00 00 00 00 00 00 00 
       0000F8BC 00 00 00 00 00 00 00 00 00 00 
       0000F8C6 00 00 00 00 00 00 00 00 00 00 
       0000F8D0 00 00 00 00 00 00 00 00 00 00 
       0000F8DA 00 00 00 00 00 00 00 00 00 00 
       0000F8E4 00 00 00 00 00 00 00 00 00 00 
       0000F8EE 00 00 00 00 00 00 00 00 00 00 
       0000F8F8 00 00 00 00 00 00 00 00 00 00 
       0000F902 00 00 00 00 00 00 00 00 00 00 
       0000F90C 00 00 00 00 00 00 00 00 00 00 
       0000F916 00 00 00 00 00 00 00 00 00 00 
       0000F920 00 00 00 00 00 00 00 00 00 00 
       0000F92A 00 00 00 00 00 00 00 00 00 00 
       0000F934 00 00 00 00 00 00 00 00 00 00 
       0000F93E 00 00 00 00 00 00 00 00 00 00 
       0000F948 00 00 00 00 00 00 00 00 00 00 
       0000F952 00 00 00 00 00 00 00 00 00 00 
       0000F95C 00 00 00 00 00 00 00 00 00 00 
       0000F966 00 00 00 00 00 00 00 00 00 00 
       0000F970 00 00 00 00 00 00 00 00 00 00 
       0000F97A 00 00 00 00 00 00 00 00 00 00 
       0000F984 00 00 00 00 00 00 00 00 00 00 
       0000F98E 00 00 00 00 00 00 00 00 00 00 
       0000F998 00 00 00 00 00 00 00 00 00 00 
       0000F9A2 00 00 00 00 00 00 00 00 00 00 
       0000F9AC 00 00 00 00 00 00 00 00 00 00 
       0000F9B6 00 00 00 00 00 00 00 00 00 00 
       0000F9C0 00 00 00 00 00 00 00 00 00 00 
       0000F9CA 00 00 00 00 00 00 00 00 00 00 
       0000F9D4 00 00 00 00 00 00 00 00 00 00 
       0000F9DE 00 00 00 00 00 00 00 00 00 00 
       0000F9E8 00 00 00 00 00 00 00 00 00 00 
       0000F9F2 00 00 00 00 00 00 00 00 00 00 
       0000F9FC 00 00 00 00 00 00 00 00 00 00 
       0000FA06 00 00 00 00 00 00 00 00 00 00 
       0000FA10 00 00 00 00 00 00 00 00 00 00 
       0000FA1A 00 00 00 00 00 00 00 00 00 00 
       0000FA24 00 00 00 00 00 00 00 00 00 00 
       0000FA2E 00 00 00 00 00 00 00 00 00 00 
       0000FA38 00 00 00 00 00 00 00 00 00 00 
       0000FA42 00 00 00 00 00 00 00 00 00 00 
       0000FA4C 00 00 00 00 00 00 00 00 00 00 
       0000FA56 00 00 00 00 00 00 00 00 00 00 
       0000FA60 00 00 00 00 00 00 00 00 00 00 
       0000FA6A 00 00 00 00 00 00 00 00 00 00 
       0000FA74 00 00 00 00 00 00 00 00 00 00 
       0000FA7E 00 00 00 00 00 00 00 00 00 00 
       0000FA88 00 00 00 00 00 00 00 00 00 00 
       0000FA92 00 00 00 00 00 00 00 00 00 00 
       0000FA9C 00 00 00 00 00 00 00 00 00 00 
       0000FAA6 00 00 00 00 00 00 00 00 00 00 
       0000FAB0 00 00 00 00 00 00 00 00 00 00 
       0000FABA 00 00 00 00 00 00 00 00 00 00 
       0000FAC4 00 00 00 00 00 00 00 00 00 00 
       0000FACE 00 00 00 00 00 00 00 00 00 00 
       0000FAD8 00 00 00 00 00 00 00 00 00 00 
       0000FAE2 00 00 00 00 00 00 00 00 00 00 
       0000FAEC 00 00 00 00 00 00 00 00 00 00 
       0000FAF6 00 00 00 00 00 00 00 00 00 00 
       0000FB00 00 00 00 00 00 00 00 00 00 00 
       0000FB0A 00 00 00 00 00 00 00 00 00 00 
       0000FB14 00 00 00 00 00 00 00 00 00 00 
       0000FB1E 00 00 00 00 00 00 00 00 00 00 
       0000FB28 00 00 00 00 00 00 00 00 00 00 
       0000FB32 00 00 00 00 00 00 00 00 00 00 
       0000FB3C 00 00 00 00 00 00 00 00 00 00 
       0000FB46 00 00 00 00 00 00 00 00 00 00 
       0000FB50 00 00 00 00 00 00 00 00 00 00 
       0000FB5A 00 00 00 00 00 00 00 00 00 00 
       0000FB64 00 00 00 00 00 00 00 00 00 00 
       0000FB6E 00 00 00 00 00 00 00 00 00 00 
       0000FB78 00 00 00 00 00 00 00 00 00 00 
       0000FB82 00 00 00 00 00 00 00 00 00 00 
       0000FB8C 00 00 00 00 00 00 00 00 00 00 
       0000FB96 00 00 00 00 00 00 00 00 00 00 
       0000FBA0 00 00 00 00 00 00 00 00 00 00 
       0000FBAA 00 00 00 00 00 00 00 00 00 00 
       0000FBB4 00 00 00 00 00 00 00 00 00 00 
       0000FBBE 00 00 00 00 00 00 00 00 00 00 
       0000FBC8 00 00 00 00 00 00 00 00 00 00 
       0000FBD2 00 00 00 00 00 00 00 00 00 00 
       0000FBDC 00 00 00 00 00 00 00 00 00 00 
       0000FBE6 00 00 00 00 00 00 00 00 00 00 
       0000FBF0 00 00 00 00 00 00 00 00 00 00 
       0000FBFA 00 00 00 00 00 00 00 00 00 00 
       0000FC04 00 00 00 00 00 00 00 00 00 00 
       0000FC0E 00 00 00 00 00 00 00 00 00 00 
       0000FC18 00 00 00 00 00 00 00 00 00 00 
       0000FC22 00 00 00 00 00 00 00 00 00 00 
       0000FC2C 00 00 00 00 00 00 00 00 00 00 
       0000FC36 00 00 00 00 00 00 00 00 00 00 
       0000FC40 00 00 00 00 00 00 00 00 00 00 
       0000FC4A 00 00 00 00 00 00 00 00 00 00 
       0000FC54 00 00 00 00 00 00 00 00 00 00 
       0000FC5E 00 00 00 00 00 00 00 00 00 00 
       0000FC68 00 00 00 00 00 00 00 00 00 00 
       0000FC72 00 00 00 00 00 00 00 00 00 00 
       0000FC7C 00 00 00 00 00 00 00 00 00 00 
       0000FC86 00 00 00 00 00 00 00 00 00 00 
       0000FC90 00 00 00 00 00 00 00 00 00 00 
       0000FC9A 00 00 00 00 00 00 00 00 00 00 
       0000FCA4 00 00 00 00 00 00 00 00 00 00 
       0000FCAE 00 00 00 00 00 00 00 00 00 00 
       0000FCB8 00 00 00 00 00 00 00 00 00 00 
       0000FCC2 00 00 00 00 00 00 00 00 00 00 
       0000FCCC 00 00 00 00 00 00 00 00 00 00 
       0000FCD6 00 00 00 00 00 00 00 00 00 00 
       0000FCE0 00 00 00 00 00 00 00 00 00 00 
       0000FCEA 00 00 00 00 00 00 00 00 00 00 
       0000FCF4 00 00 00 00 00 00 00 00 00 00 
       0000FCFE 00 00 00 00 00 00 00 00 00 00 
       0000FD08 00 00 00 00 00 00 00 00 00 00 
       0000FD12 00 00 00 00 00 00 00 00 00 00 
       0000FD1C 00 00 00 00 00 00 00 00 00 00 
       0000FD26 00 00 00 00 00 00 00 00 00 00 
       0000FD30 00 00 00 00 00 00 00 00 00 00 
       0000FD3A 00 00 00 00 00 00 00 00 00 00 
       0000FD44 00 00 00 00 00 00 00 00 00 00 
       0000FD4E 00 00 00 00 00 00 00 00 00 00 
       0000FD58 00 00 00 00 00 00 00 00 00 00 
       0000FD62 00 00 00 00 00 00 00 00 00 00 
       0000FD6C 00 00 00 00 00 00 00 00 00 00 
       0000FD76 00 00 00 00 00 00 00 00 00 00 
       0000FD80 00 00 00 00 00 00 00 00 00 00 
       0000FD8A 00 00 00 00 00 00 00 00 00 00 
       0000FD94 00 00 00 00 00 00 00 00 00 00 
       0000FD9E 00 00 00 00 00 00 00 00 00 00 
       0000FDA8 00 00 00 00 00 00 00 00 00 00 
       0000FDB2 00 00 00 00 00 00 00 00 00 00 
       0000FDBC 00 00 00 00 00 00 00 00 00 00 
       0000FDC6 00 00 00 00 00 00 00 00 00 00 
       0000FDD0 00 00 00 00 00 00 00 00 00 00 
       0000FDDA 00 00 00 00 00 00 00 00 00 00 
       0000FDE4 00 00 00 00 00 00 00 00 00 00 
       0000FDEE 00 00 00 00 00 00 00 00 00 00 
       0000FDF8 00 00 00 00 00 00 00 00 00 00 
       0000FE02 00 00 00 00 00 00 00 00 00 00 
       0000FE0C 00 00 00 00 00 00 00 00 00 00 
       0000FE16 00 00 00 00 00 00 00 00 00 00 
       0000FE20 00 00 00 00 00 00 00 00 00 00 
       0000FE2A 00 00 00 00 00 00 00 00 00 00 
       0000FE34 00 00 00 00 00 00 00 00 00 00 
       0000FE3E 00 00 00 00 00 00 00 00 00 00 
       0000FE48 00 00 00 00 00 00 00 00 00 00 
       0000FE52 00 00 00 00 00 00 00 00 00 00 
       0000FE5C 00 00 00 00 00 00 00 00 00 00 
       0000FE66 00 00 00 00 00 00 00 00 00 00 
       0000FE70 00 00 00 00 00 00 00 00 00 00 
       0000FE7A 00 00 00 00 00 00 00 00 00 00 
       0000FE84 00 00 00 00 00 00 00 00 00 00 
       0000FE8E 00 00 00 00 00 00 00 00 00 00 
       0000FE98 00 00 00 00 00 00 00 00 00 00 
       0000FEA2 00 00 00 00 00 00 00 00 00 00 
       0000FEAC 00 00 00 00 00 00 00 00 00 00 
       0000FEB6 00 00 00 00 00 00 00 00 00 00 
       0000FEC0 00 00 00 00 00 00 00 00 00 00 
       0000FECA 00 00 00 00 00 00 00 00 00 00 
       0000FED4 00 00 00 00 00 00 00 00 00 00 
       0000FEDE 00 00 00 00 00 00 00 00 00 00 
       0000FEE8 00 00 00 00 00 00 00 00 00 00 
       0000FEF2 00 00 00 00 00 00 00 00 00 00 
       0000FEFC 00 00 00 00 00 00 00 00 00 00 
       0000FF06 00 00 00 00 00 00 00 00 00 00 
       0000FF10 00 00 00 00 00 00 00 00 00 00 
       0000FF1A 00 00 00 00 00 00 00 00 00 00 
       0000FF24 00 00 00 00 00 00 00 00 00 00 
       0000FF2E 00 00 00 00 00 00 00 00 00 00 
       0000FF38 00 00 00 00 00 00 00 00 00 00 
       0000FF42 00 00 00 00 00 00 00 00 00 00 
       0000FF4C 00 00 00 00 00 00 00 00 00 00 
       0000FF56 00 00 00 00 00 00 00 00 00 00 
       0000FF60 00 00 00 00 00 00 00 00 00 00 
       0000FF6A 00 00 00 00 00 00 00 00 00 00 
       0000FF74 00 00 00 00 00 00 00 00 00 00 
       0000FF7E 00 00 00 00 00 00 00 00 00 00 
       0000FF88 00 00 00 00 00 00 00 00 00 00 
       0000FF92 00 00 00 00 00 00 00 00 00 00 
       0000FF9C 00 00 00 00 00 00 00 00 00 00 
       0000FFA6 00 00 00 00 00 00 00 00 00 00 
       0000FFB0 00 00 00 00 00 00 00 00 00 00 
       0000FFBA 00 00 00 00 00 00 00 00 00 00 
       0000FFC4 00 00 00 00 00 00 00 00 00 00 
       0000FFCE 00 00 00 00 00 00 00 00 00 00 
       0000FFD8 00 00 00 00 00 00 00 00 00 00 
       0000FFE2 00 00 00 00 00 00 00 00 00 00 
       0000FFEC 00 00 00 00 00 00 00 00 00 00 
       0000FFF6 00 00 00 00 00 00 00 00 00 00 
       00010000 00 00 00 00 00 00 00 00 00 00 
       0001000A 00 00 00 00 00 00 00 00 00 00 
       00010014 00 00 00 00 00 00 00 00 00 00 
       0001001E 00 00 00 00 00 00 00 00 00 00 
       00010028 00 00 00 00 00 00 00 00 00 00 
       00010032 00 00 00 00 00 00 00 00 00 00 
       0001003C 00 00 00 00 00 00 00 00 00 00 
       00010046 00 00 00 00 00 00 00 00 00 00 
       00010050 00 00 00 00 00 00 00 00 00 00 
       0001005A 00 00 00 00 00 00 00 00 00 00 
       00010064 00 00 00 00 00 00 00 00 00 00 
       0001006E 00 00 00 00 00 00 00 00 00 00 
       00010078 00 00 00 00 00 00 00 00 00 00 
       00010082 00 00 00 00 00 00 00 00 00 00 
       0001008C 00 00 00 00 00 00 00 00 00 00 
       00010096 00 00 00 00 00 00 00 00 00 00 
       000100A0 00 00 00 00 00 00 00 00 00 00 
       000100AA 00 00 00 00 00 00 00 00 00 00 
       000100B4 00 00 00 00 00 00 00 00 00 00 
       000100BE 00 00 00 00 00 00 00 00 00 00 
       000100C8 00 00 00 00 00 00 00 00 00 00 
       000100D2 00 00 00 00 00 00 00 00 00 00 
       000100DC 00 00 00 00 00 00 00 00 00 00 
       000100E6 00 00 00 00 00 00 00 00 00 00 
       000100F0 00 00 00 00 00 00 00 00 00 00 
       000100FA 00 00 00 00 00 00 00 00 00 00 
       00010104 00 00 00 00 00 00 00 00 00 00 
       0001010E 00 00 00 00 00 00 00 00 00 00 
       00010118 00 00 00 00 00 00 00 00 00 00 
       00010122 00 00 00 00 00 00 00 00 00 00 
       0001012C 00 00 00 00 00 00 00 00 00 00 
       00010136 00 00 00 00 00 00 00 00 00 00 
       00010140 00 00 00 00 00 00 00 00 00 00 
       0001014A 00 00 00 00 00 00 00 00 00 00 
       00010154 00 00 00 00 00 00 00 00 00 00 
       0001015E 00 00 00 00 00 00 00 00 00 00 
       00010168 00 00 00 00 00 00 00 00 00 00 
       00010172 00 00 00 00 00 00 00 00 00 00 
       0001017C 00 00 00 00 00 00 00 00 00 00 
       00010186 00 00 00 00 00 00 00 00 00 00 
       00010190 00 00 00 00 00 00 00 00 00 00 
       0001019A 00 00 00 00 00 00 00 00 00 00 
       000101A4 00 00 00 00 00 00 00 00 00 00 
       000101AE 00 00 00 00 00 00 00 00 00 00 
       000101B8 00 00 00 00 00 00 00 00 00 00 
       000101C2 00 00 00 00 00 00 00 00 00 00 
       000101CC 00 00 00 00 00 00 00 00 00 00 
       000101D6 00 00 00 00 00 00 00 00 00 00 
       000101E0 00 00 00 00 00 00 00 00 00 00 
       000101EA 00 00 00 00 00 00 00 00 00 00 
       000101F4 00 00 00 00 00 00 00 00 00 00 
       000101FE 00 00 00 00 00 00 00 00 00 00 
       00010208 00 00 00 00 00 00 00 00 00 00 
       00010212 00 00 00 00 00 00 00 00 00 00 
       0001021C 00 00 00 00 00 00 00 00 00 00 
       00010226 00 00 00 00 00 00 00 00 00 00 
       00010230 00 00 00 00 00 00 00 00 00 00 
       0001023A 00 00 00 00 00 00 00 00 00 00 
       00010244 00 00 00 00 00 00 00 00 00 00 
       0001024E 00 00 00 00 00 00 00 00 00 00 
       00010258 00 00 00 00 00 00 00 00 00 00 
       00010262 00 00 00 00 00 00 00 00 00 00 
       0001026C 00 00 00 00 00 00 00 00 00 00 
       00010276 00 00 00 00 00 00 00 00 00 00 
       00010280 00 00 00 00 00 00 00 00 00 00 
       0001028A 00 00 00 00 00 00 00 00 00 00 
       00010294 00 00 00 00 00 00 00 00 00 00 
       0001029E 00 00 00 00 00 00 00 00 00 00 
       000102A8 00 00 00 00 00 00 00 00 00 00 
       000102B2 00 00 00 00 00 00 00 00 00 00 
       000102BC 00 00 00 00 00 00 00 00 00 00 
       000102C6 00 00 00 00 00 00 00 00 00 00 
       000102D0 00 00 00 00 00 00 00 00 00 00 
       000102DA 00 00 00 00 00 00 00 00 00 00 
       000102E4 00 00 00 00 00 00 00 00 00 00 
       000102EE 00 00 00 00 00 00 00 00 00 00 
       000102F8 00 00 00 00 00 00 00 00 00 00 
       00010302 00 00 00 00 00 00 00 00 00 00 
       0001030C 00 00 00 00 00 00 00 00 00 00 
       00010316 00 00 00 00 00 00 00 00 00 00 
       00010320 00 00 00 00 00 00 00 00 00 00 
       0001032A 00 00 00 00 00 00 00 00 00 00 
       00010334 00 00 00 00 00 00 00 00 00 00 
       0001033E 00 00 00 00 00 00 00 00 00 00 
       00010348 00 00 00 00 00 00 00 00 00 00 
       00010352 00 00 00 00 00 00 00 00 00 00 
       0001035C 00 00 00 00 00 00 00 00 00 00 
       00010366 00 00 00 00 00 00 00 00 00 00 
       00010370 00 00 00 00 00 00 00 00 00 00 
       0001037A 00 00 00 00 00 00 00 00 00 00 
       00010384 00 00 00 00 00 00 00 00 00 00 
       0001038E 00 00 00 00 00 00 00 00 00 00 
       00010398 00 00 00 00 00 00 00 00 00 00 
       000103A2 00 00 00 00 00 00 00 00 00 00 
       000103AC 00 00 00 00 00 00 00 00 00 00 
       000103B6 00 00 00 00 00 00 00 00 00 00 
       000103C0 00 00 00 00 00 00 00 00 00 00 
       000103CA 00 00 00 00 00 00 00 00 00 00 
       000103D4 00 00 00 00 00 00 00 00 00 00 
       000103DE 00 00 00 00 00 00 00 00 00 00 
       000103E8 00 00 00 00 00 00 00 00 00 00 
       000103F2 00 00 00 00 00 00 00 00 00 00 
       000103FC 00 00 00 00 00 00 00 00 00 00 
       00010406 00 00 00 00 00 00 00 00 00 00 
       00010410 00 00 00 00 00 00 00 00 00 00 
       0001041A 00 00 00 00 00 00 00 00 00 00 
       00010424 00 00 00 00 00 00 00 00 00 00 
       0001042E 00 00 00 00 00 00 00 00 00 00 
       00010438 00 00 00 00 00 00 00 00 00 00 
       00010442 00 00 00 00 00 00 00 00 00 00 
       0001044C 00 00 00 00 00 00 00 00 00 00 
       00010456 00 00 00 00 00 00 00 00 00 00 
       00010460 00 00 00 00 00 00 00 00 00 00 
       0001046A 00 00 00 00 00 00 00 00 00 00 
       00010474 00 00 00 00 00 00 00 00 00 00 
       0001047E 00 00 00 00 00 00 00 00 00 00 
       00010488 00 00 00 00 00 00 00 00 00 00 
       00010492 00 00 00 00 00 00 00 00 00 00 
       0001049C 00 00 00 00 00 00 00 00 00 00 
       000104A6 00 00 00 00 00 00 00 00 00 00 
       000104B0 00 00 00 00 00 00 00 00 00 00 
       000104BA 00 00 00 00 00 00 00 00 00 00 
       000104C4 00 00 00 00 00 00 00 00 00 00 
       000104CE 00 00 00 00 00 00 00 00 00 00 
       000104D8 00 00 00 00 00 00 00 00 00 00 
       000104E2 00 00 00 00 00 00 00 00 00 00 
       000104EC 00 00 00 00 00 00 00 00 00 00 
       000104F6 00 00 00 00 00 00 00 00 00 00 
       00010500 00 00 00 00 00 00 00 00 00 00 
       0001050A 00 00 00 00 00 00 00 00 00 00 
       00010514 00 00 00 00 00 00 00 00 00 00 
       0001051E 00 00 00 00 00 00 00 00 00 00 
       00010528 00 00 00 00 00 00 00 00 00 00 
       00010532 00 00 00 00 00 00 00 00 00 00 
       0001053C 00 00 00 00 00 00 00 00 00 00 
       00010546 00 00 00 00 00 00 00 00 00 00 
       00010550 00 00 00 00 00 00 00 00 00 00 
       0001055A 00 00 00 00 00 00 00 00 00 00 
       00010564 00 00 00 00 00 00 00 00 00 00 
       0001056E 00 00 00 00 00 00 00 00 00 00 
       00010578 00 00 00 00 00 00 00 00 00 00 
       00010582 00 00 00 00 00 00 00 00 00 00 
       0001058C 00 00 00 00 00 00 00 00 00 00 
       00010596 00 00 00 00 00 00 00 00 00 00 
       000105A0 00 00 00 00 00 00 00 00 00 00 
       000105AA 00 00 00 00 00 00 00 00 00 00 
       000105B4 00 00 00 00 00 00 00 00 00 00 
       000105BE 00 00 00 00 00 00 00 00 00 00 
       000105C8 00 00 00 00 00 00 00 00 00 00 
       000105D2 00 00 00 00 00 00 00 00 00 00 
       000105DC 00 00 00 00 00 00 00 00 00 00 
       000105E6 00 00 00 00 00 00 00 00 00 00 
       000105F0 00 00 00 00 00 00 00 00 00 00 
       000105FA 00 00 00 00 00 00 00 00 00 00 
       00010604 00 00 00 00 00 00 00 00 00 00 
       0001060E 00 00 00 00 00 00 00 00 00 00 
       00010618 00 00 00 00 00 00 00 00 00 00 
       00010622 00 00 00 00 00 00 00 00 00 00 
       0001062C 00 00 00 00 00 00 00 00 00 00 
       00010636 00 00 00 00 00 00 00 00 00 00 
       00010640 00 00 00 00 00 00 00 00 00 00 
       0001064A 00 00 00 00 00 00 00 00 00 00 
       00010654 00 00 00 00 00 00 00 00 00 00 
       0001065E 00 00 00 00 00 00 00 00 00 00 
       00010668 00 00 00 00 00 00 00 00 00 00 
       00010672 00 00 00 00 00 00 00 00 00 00 
       0001067C 00 00 00 00 00 00 00 00 00 00 
       00010686 00 00 00 00 00 00 00 00 00 00 
       00010690 00 00 00 00 00 00 00 00 00 00 
       0001069A 00 00 00 00 00 00 00 00 00 00 
       000106A4 00 00 00 00 00 00 00 00 00 00 
       000106AE 00 00 00 00 00 00 00 00 00 00 
       000106B8 00 00 00 00 00 00 00 00 00 00 
       000106C2 00 00 00 00 00 00 00 00 00 00 
       000106CC 00 00 00 00 00 00 00 00 00 00 
       000106D6 00 00 00 00 00 00 00 00 00 00 
       000106E0 00 00 00 00 00 00 00 00 00 00 
       000106EA 00 00 00 00 00 00 00 00 00 00 
       000106F4 00 00 00 00 00 00 00 00 00 00 
       000106FE 00 00 00 00 00 00 00 00 00 00 
       00010708 00 00 00 00 00 00 00 00 00 00 
       00010712 00 00 00 00 00 00 00 00 00 00 
       0001071C 00 00 00 00 00 00 00 00 00 00 
       00010726 00 00 00 00 00 00 00 00 00 00 
       00010730 00 00 00 00 00 00 00 00 00 00 
       0001073A 00 00 00 00 00 00 00 00 00 00 
       00010744 00 00 00 00 00 00 00 00 00 00 
       0001074E 00 00 00 00 00 00 00 00 00 00 
       00010758 00 00 00 00 00 00 00 00 00 00 
       00010762 00 00 00 00 00 00 00 00 00 00 
       0001076C 00 00 00 00 00 00 00 00 00 00 
       00010776 00 00 00 00 00 00 00 00 00 00 
       00010780 00 00 00 00 00 00 00 00 00 00 
       0001078A 00 00 00 00 00 00 00 00 00 00 
       00010794 00 00 00 00 00 00 00 00 00 00 
       0001079E 00 00 00 00 00 00 00 00 00 00 
       000107A8 00 00 00 00 00 00 00 00 00 00 
       000107B2 00 00 00 00 00 00 00 00 00 00 
       000107BC 00 00 00 00 00 00 00 00 00 00 
       000107C6 00 00 00 00 00 00 00 00 00 00 
       000107D0 00 00 00 00 00 00 00 00 00 00 
       000107DA 00 00 00 00 00 00 00 00 00 00 
       000107E4 00 00 00 00 00 00 00 00 00 00 
       000107EE 00 00 00 00 00 00 00 00 00 00 
       000107F8 00 00 00 00 00 00 00 00 00 00 
       00010802 00 00 00 00 00 00 00 00 00 00 
       0001080C 00 00 00 00 00 00 00 00 00 00 
       00010816 00 00 00 00 00 00 00 00 00 00 
       00010820 00 00 00 00 00 00 00 00 00 00 
       0001082A 00 00 00 00 00 00 00 00 00 00 
       00010834 00 00 00 00 00 00 00 00 00 00 
       0001083E 00 00 00 00 00 00 00 00 00 00 
       00010848 00 00 00 00 00 00 00 00 00 00 
       00010852 00 00 00 00 00 00 00 00 00 00 
       0001085C 00 00 00 00 00 00 00 00 00 00 
       00010866 00 00 00 00 00 00 00 00 00 00 
       00010870 00 00 00 00 00 00 00 00 00 00 
       0001087A 00 00 00 00 00 00 00 00 00 00 
       00010884 00 00 00 00 00 00 00 00 00 00 
       0001088E 00 00 00 00 00 00 00 00 00 00 
       00010898 00 00 00 00 00 00 00 00 00 00 
       000108A2 00 00 00 00 00 00 00 00 00 00 
       000108AC 00 00 00 00 00 00 00 00 00 00 
       000108B6 00 00 00 00 00 00 00 00 00 00 
       000108C0 00 00 00 00 00 00 00 00 00 00 
       000108CA 00 00 00 00 00 00 00 00 00 00 
       000108D4 00 00 00 00 00 00 00 00 00 00 
       000108DE 00 00 00 00 00 00 00 00 00 00 
       000108E8 00 00 00 00 00 00 00 00 00 00 
       000108F2 00 00 00 00 00 00 00 00 00 00 
       000108FC 00 00 00 00 00 00 00 00 00 00 
       00010906 00 00 00 00 00 00 00 00 00 00 
       00010910 00 00 00 00 00 00 00 00 00 00 
       0001091A 00 00 00 00 00 00 00 00 00 00 
       00010924 00 00 00 00 00 00 00 00 00 00 
       0001092E 00 00 00 00 00 00 00 00 00 00 
       00010938 00 00 00 00 00 00 00 00 00 00 
       00010942 00 00 00 00 00 00 00 00 00 00 
       0001094C 00 00 00 00 00 00 00 00 00 00 
       00010956 00 00 00 00 00 00 00 00 00 00 
       00010960 00 00 00 00 00 00 00 00 00 00 
       0001096A 00 00 00 00 00 00 00 00 00 00 
       00010974 00 00 00 00 00 00 00 00 00 00 
       0001097E 00 00 00 00 00 00 00 00 00 00 
       00010988 00 00 00 00 00 00 00 00 00 00 
       00010992 00 00 00 00 00 00 00 00 00 00 
       0001099C 00 00 00 00 00 00 00 00 00 00 
       000109A6 00 00 00 00 00 00 00 00 00 00 
       000109B0 00 00 00 00 00 00 00 00 00 00 
       000109BA 00 00 00 00 00 00 00 00 00 00 
       000109C4 00 00 00 00 00 00 00 00 00 00 
       000109CE 00 00 00 00 00 00 00 00 00 00 
       000109D8 00 00 00 00 00 00 00 00 00 00 
       000109E2 00 00 00 00 00 00 00 00 00 00 
       000109EC 00 00 00 00 00 00 00 00 00 00 
       000109F6 00 00 00 00 00 00 00 00 00 00 
       00010A00 00 00 00 00 00 00 00 00 00 00 
       00010A0A 00 00 00 00 00 00 00 00 00 00 
       00010A14 00 00 00 00 00 00 00 00 00 00 
       00010A1E 00 00 00 00 00 00 00 00 00 00 
       00010A28 00 00 00 00 00 00 00 00 00 00 
       00010A32 00 00 00 00 00 00 00 00 00 00 
       00010A3C 00 00 00 00 00 00 00 00 00 00 
       00010A46 00 00 00 00 00 00 00 00 00 00 
       00010A50 00 00 00 00 00 00 00 00 00 00 
       00010A5A 00 00 00 00 00 00 00 00 00 00 
       00010A64 00 00 00 00 00 00 00 00 00 00 
       00010A6E 00 00 00 00 00 00 00 00 00 00 
       00010A78 00 00 00 00 00 00 00 00 00 00 
       00010A82 00 00 00 00 00 00 00 00 00 00 
       00010A8C 00 00 00 00 00 00 00 00 00 00 
       00010A96 00 00 00 00 00 00 00 00 00 00 
       00010AA0 00 00 00 00 00 00 00 00 00 00 
       00010AAA 00 00 00 00 00 00 00 00 00 00 
       00010AB4 00 00 00 00 00 00 00 00 00 00 
       00010ABE 00 00 00 00 00 00 00 00 00 00 
       00010AC8 00 00 00 00 00 00 00 00 00 00 
       00010AD2 00 00 00 00 00 00 00 00 00 00 
       00010ADC 00 00 00 00 00 00 00 00 00 00 
       00010AE6 00 00 00 00 00 00 00 00 00 00 
       00010AF0 00 00 00 00 00 00 00 00 00 00 
       00010AFA 00 00 00 00 00 00 00 00 00 00 
       00010B04 00 00 00 00 00 00 00 00 00 00 
       00010B0E 00 00 00 00 00 00 00 00 00 00 
       00010B18 00 00 00 00 00 00 00 00 00 00 
       00010B22 00 00 00 00 00 00 00 00 00 00 
       00010B2C 00 00 00 00 00 00 00 00 00 00 
       00010B36 00 00 00 00 00 00 00 00 00 00 
       00010B40 00 00 00 00 00 00 00 00 00 00 
       00010B4A 00 00 00 00 00 00 00 00 00 00 
       00010B54 00 00 00 00 00 00 00 00 00 00 
       00010B5E 00 00 00 00 00 00 00 00 00 00 
       00010B68 00 00 00 00 00 00 00 00 00 00 
       00010B72 00 00 00 00 00 00 00 00 00 00 
       00010B7C 00 00 00 00 00 00 00 00 00 00 
       00010B86 00 00 00 00 00 00 00 00 00 00 
       00010B90 00 00 00 00 00 00 00 00 00 00 
       00010B9A 00 00 00 00 00 00 00 00 00 00 
       00010BA4 00 00 00 00 00 00 00 00 00 00 
       00010BAE 00 00 00 00 00 00 00 00 00 00 
       00010BB8 00 00 00 00 00 00 00 00 00 00 
       00010BC2 00 00 00 00 00 00 00 00 00 00 
       00010BCC 00 00 00 00 00 00 00 00 00 00 
       00010BD6 00 00 00 00 00 00 00 00 00 00 
       00010BE0 00 00 00 00 00 00 00 00 00 00 
       00010BEA 00 00 00 00 00 00 00 00 00 00 
       00010BF4 00 00 00 00 00 00 00 00 00 00 
       00010BFE 00 00 00 00 00 00 00 00 00 00 
       00010C08 00 00 00 00 00 00 00 00 00 00 
       00010C12 00 00 00 00 00 00 00 00 00 00 
       00010C1C 00 00 00 00 00 00 00 00 00 00 
       00010C26 00 00 00 00 00 00 00 00 00 00 
       00010C30 00 00 00 00 00 00 00 00 00 00 
       00010C3A 00 00 00 00 00 00 00 00 00 00 
       00010C44 00 00 00 00 00 00 00 00 00 00 
       00010C4E 00 00 00 00 00 00 00 00 00 00 
       00010C58 00 00 00 00 00 00 00 00 00 00 
       00010C62 00 00 00 00 00 00 00 00 00 00 
       00010C6C 00 00 00 00 00 00 00 00 00 00 
       00010C76 00 00 00 00 00 00 00 00 00 00 
       00010C80 00 00 00 00 00 00 00 00 00 00 
       00010C8A 00 00 00 00 00 00 00 00 00 00 
       00010C94 00 00 00 00 00 00 00 00 00 00 
       00010C9E 00 00 00 00 00 00 00 00 00 00 
       00010CA8 00 00 00 00 00 00 00 00 00 00 
       00010CB2 00 00 00 00 00 00 00 00 00 00 
       00010CBC 00 00 00 00 00 00 00 00 00 00 
       00010CC6 00 00 00 00 00 00 00 00 00 00 
       00010CD0 00 00 00 00 00 00 00 00 00 00 
       00010CDA 00 00 00 00 00 00 00 00 00 00 
       00010CE4 00 00 00 00 00 00 00 00 00 00 
       00010CEE 00 00 00 00 00 00 00 00 00 00 
       00010CF8 00 00 00 00 00 00 00 00 00 00 
       00010D02 00 00 00 00 00 00 00 00 00 00 
       00010D0C 00 00 00 00 00 00 00 00 00 00 
       00010D16 00 00 00 00 00 00 00 00 00 00 
       00010D20 00 00 00 00 00 00 00 00 00 00 
       00010D2A 00 00 00 00 00 00 00 00 00 00 
       00010D34 00 00 00 00 00 00 00 00 00 00 
       00010D3E 00 00 00 00 00 00 00 00 00 00 
       00010D48 00 00 00 00 00 00 00 00 00 00 
       00010D52 00 00 00 00 00 00 00 00 00 00 
       00010D5C 00 00 00 00 00 00 00 00 00 00 
       00010D66 00 00 00 00 00 00 00 00 00 00 
       00010D70 00 00 00 00 00 00 00 00 00 00 
       00010D7A 00 00 00 00 00 00 00 00 00 00 
       00010D84 00 00 00 00 00 00 00 00 00 00 
       00010D8E 00 00 00 00 00 00 00 00 00 00 
       00010D98 00 00 00 00 00 00 00 00 00 00 
       00010DA2 00 00 00 00 00 00 00 00 00 00 
       00010DAC 00 00 00 00 00 00 00 00 00 00 
       00010DB6 00 00 00 00 00 00 00 00 00 00 
       00010DC0 00 00 00 00 00 00 00 00 00 00 
       00010DCA 00 00 00 00 00 00 00 00 00 00 
       00010DD4 00 00 00 00 00 00 00 00 00 00 
       00010DDE 00 00 00 00 00 00 00 00 00 00 
       00010DE8 00 00 00 00 00 00 00 00 00 00 
       00010DF2 00 00 00 00 00 00 00 00 00 00 
       00010DFC 00 00 00 00 00 00 00 00 00 00 
       00010E06 00 00 00 00 00 00 00 00 00 00 
       00010E10 00 00 00 00 00 00 00 00 00 00 
       00010E1A 00 00 00 00 00 00 00 00 00 00 
       00010E24 00 00 00 00 00 00 00 00 00 00 
       00010E2E 00 00 00 00 00 00 00 00 00 00 
       00010E38 00 00 00 00 00 00 00 00 00 00 
       00010E42 00 00 00 00 00 00 00 00 00 00 
       00010E4C 00 00 00 00 00 00 00 00 00 00 
       00010E56 00 00 00 00 00 00 00 00 00 00 
       00010E60 00 00 00 00 00 00 00 00 00 00 
       00010E6A 00 00 00 00 00 00 00 00 00 00 
       00010E74 00 00 00 00 00 00 00 00 00 00 
       00010E7E 00 00 00 00 00 00 00 00 00 00 
       00010E88 00 00 00 00 00 00 00 00 00 00 
       00010E92 00 00 00 00 00 00 00 00 00 00 
       00010E9C 00 00 00 00 00 00 00 00 00 00 
       00010EA6 00 00 00 00 00 00 00 00 00 00 
       00010EB0 00 00 00 00 00 00 00 00 00 00 
       00010EBA 00 00 00 00 00 00 00 00 00 00 
       00010EC4 00 00 00 00 00 00 00 00 00 00 
       00010ECE 00 00 00 00 00 00 00 00 00 00 
       00010ED8 00 00 00 00 00 00 00 00 00 00 
       00010EE2 00 00 00 00 00 00 00 00 00 00 
       00010EEC 00 00 00 00 00 00 00 00 00 00 
       00010EF6 00 00 00 00 00 00 00 00 00 00 
       00010F00 00 00 00 00 00 00 00 00 00 00 
       00010F0A 00 00 00 00 00 00 00 00 00 00 
       00010F14 00 00 00 00 00 00 00 00 00 00 
       00010F1E 00 00 00 00 00 00 00 00 00 00 
       00010F28 00 00 00 00 00 00 00 00 00 00 
       00010F32 00 00 00 00 00 00 00 00 00 00 
       00010F3C 00 00 00 00 00 00 00 00 00 00 
       00010F46 00 00 00 00 00 00 00 00 00 00 
       00010F50 00 00 00 00 00 00 00 00 00 00 
       00010F5A 00 00 00 00 00 00 00 00 00 00 
       00010F64 00 00 00 00 00 00 00 00 00 00 
       00010F6E 00 00 00 00 00 00 00 00 00 00 
       00010F78 00 00 00 00 00 00 00 00 00 00 
       00010F82 00 00 00 00 00 00 00 00 00 00 
       00010F8C 00 00 00 00 00 00 00 00 00 00 
       00010F96 00 00 00 00 00 00 00 00 00 00 
       00010FA0 00 00 00 00 00 00 00 00 00 00 
       00010FAA 00 00 00 00 00 00 00 00 00 00 
       00010FB4 00 00 00 00 00 00 00 00 00 00 
       00010FBE 00 00 00 00 00 00 00 00 00 00 
       00010FC8 00 00 00 00 00 00 00 00 00 00 
       00010FD2 00 00 00 00 00 00 00 00 00 00 
       00010FDC 00 00 00 00 00 00 00 00 00 00 
       00010FE6 00 00 00 00 00 00 00 00 00 00 
       00010FF0 00 00 00 00 00 00 00 00 00 00 
       00010FFA 00 00 00 00 00 00 00 00 00 00 
       00011004 00 00 00 00 00 00 00 00 00 00 
       0001100E 00 00 00 00 00 00 00 00 00 00 
       00011018 00 00 00 00 00 00 00 00 00 00 
       00011022 00 00 00 00 00 00 00 00 00 00 
       0001102C 00 00 00 00 00 00 00 00 00 00 
       00011036 00 00 00 00 00 00 00 00 00 00 
       00011040 00 00 00 00 00 00 00 00 00 00 
       0001104A 00 00 00 00 00 00 00 00 00 00 
       00011054 00 00 00 00 00 00 00 00 00 00 
       0001105E 00 00 00 00 00 00 00 00 00 00 
       00011068 00 00 00 00 00 00 00 00 00 00 
       00011072 00 00 00 00 00 00 00 00 00 00 
       0001107C 00 00 00 00 00 00 00 00 00 00 
       00011086 00 00 00 00 00 00 00 00 00 00 
       00011090 00 00 00 00 00 00 00 00 00 00 
       0001109A 00 00 00 00 00 00 00 00 00 00 
       000110A4 00 00 00 00 00 00 00 00 00 00 
       000110AE 00 00 00 00 00 00 00 00 00 00 
       000110B8 00 00 00 00 00 00 00 00 00 00 
       000110C2 00 00 00 00 00 00 00 00 00 00 
       000110CC 00 00 00 00 00 00 00 00 00 00 
       000110D6 00 00 00 00 00 00 00 00 00 00 
       000110E0 00 00 00 00 00 00 00 00 00 00 
       000110EA 00 00 00 00 00 00 00 00 00 00 
       000110F4 00 00 00 00 00 00 00 00 00 00 
       000110FE 00 00 00 00 00 00 00 00 00 00 
       00011108 00 00 00 00 00 00 00 00 00 00 
       00011112 00 00 00 00 00 00 00 00 00 00 
       0001111C 00 00 00 00 00 00 00 00 00 00 
       00011126 00 00 00 00 00 00 00 00 00 00 
       00011130 00 00 00 00 00 00 00 00 00 00 
       0001113A 00 00 00 00 00 00 00 00 00 00 
       00011144 00 00 00 00 00 00 00 00 00 00 
       0001114E 00 00 00 00 00 00 00 00 00 00 
       00011158 00 00 00 00 00 00 00 00 00 00 
       00011162 00 00 00 00 00 00 00 00 00 00 
       0001116C 00 00 00 00 00 00 00 00 00 00 
       00011176 00 00 00 00 00 00 00 00 00 00 
       00011180 00 00 00 00 00 00 00 00 00 00 
       0001118A 00 00 00 00 00 00 00 00 00 00 
       00011194 00 00 00 00 00 00 00 00 00 00 
       0001119E 00 00 00 00 00 00 00 00 00 00 
       000111A8 00 00 00 00 00 00 00 00 00 00 
       000111B2 00 00 00 00 00 00 00 00 00 00 
       000111BC 00 00 00 00 00 00 00 00 00 00 
       000111C6 00 00 00 00 00 00 00 00 00 00 
       000111D0 00 00 00 00 00 00 00 00 00 00 
       000111DA 00 00 00 00 00 00 00 00 00 00 
       000111E4 00 00 00 00 00 00 00 00 00 00 
       000111EE 00 00 00 00 00 00 00 00 00 00 
       000111F8 00 00 00 00 00 00 00 00 00 00 
       00011202 00 00 00 00 00 00 00 00 00 00 
       0001120C 00 00 00 00 00 00 00 00 00 00 
       00011216 00 00 00 00 00 00 00 00 00 00 
       00011220 00 00 00 00 00 00 00 00 00 00 
       0001122A 00 00 00 00 00 00 00 00 00 00 
       00011234 00 00 00 00 00 00 00 00 00 00 
       0001123E 00 00 00 00 00 00 00 00 00 00 
       00011248 00 00 00 00 00 00 00 00 00 00 
       00011252 00 00 00 00 00 00 00 00 00 00 
       0001125C 00 00 00 00 00 00 00 00 00 00 
       00011266 00 00 00 00 00 00 00 00 00 00 
       00011270 00 00 00 00 00 00 00 00 00 00 
       0001127A 00 00 00 00 00 00 00 00 00 00 
       00011284 00 00 00 00 00 00 00 00 00 00 
       0001128E 00 00 00 00 00 00 00 00 00 00 
       00011298 00 00 00 00 00 00 00 00 00 00 
       000112A2 00 00 00 00 00 00 00 00 00 00 
       000112AC 00 00 00 00 00 00 00 00 00 00 
       000112B6 00 00 00 00 00 00 00 00 00 00 
       000112C0 00 00 00 00 00 00 00 00 00 00 
       000112CA 00 00 00 00 00 00 00 00 00 00 
       000112D4 00 00 00 00 00 00 00 00 00 00 
       000112DE 00 00 00 00 00 00 00 00 00 00 
       000112E8 00 00 00 00 00 00 00 00 00 00 
       000112F2 00 00 00 00 00 00 00 00 00 00 
       000112FC 00 00 00 00 00 00 00 00 00 00 
       00011306 00 00 00 00 00 00 00 00 00 00 
       00011310 00 00 00 00 00 00 00 00 00 00 
       0001131A 00 00 00 00 00 00 00 00 00 00 
       00011324 00 00 00 00 00 00 00 00 00 00 
       0001132E 00 00 00 00 00 00 00 00 00 00 
       00011338 00 00 00 00 00 00 00 00 00 00 
       00011342 00 00 00 00 00 00 00 00 00 00 
       0001134C 00 00 00 00 00 00 00 00 00 00 
       00011356 00 00 00 00 00 00 00 00 00 00 
       00011360 00 00 00 00 00 00 00 00 00 00 
       0001136A 00 00 00 00 00 00 00 00 00 00 
       00011374 00 00 00 00 00 00 00 00 00 00 
       0001137E 00 00 00 00 00 00 00 00 00 00 
       00011388 00 00 00 00 00 00 00 00 00 00 
       00011392 00 00 00 00 00 00 00 00 00 00 
       0001139C 00 00 00 00 00 00 00 00 00 00 
       000113A6 00 00 00 00 00 00 00 00 00 00 
       000113B0 00 00 00 00 00 00 00 00 00 00 
       000113BA 00 00 00 00 00 00 00 00 00 00 
       000113C4 00 00 00 00 00 00 00 00 00 00 
       000113CE 00 00 00 00 00 00 00 00 00 00 
       000113D8 00 00 00 00 00 00 00 00 00 00 
       000113E2 00 00 00 00 00 00 00 00 00 00 
       000113EC 00 00 00 00 00 00 00 00 00 00 
       000113F6 00 00 00 00 00 00 00 00 00 00 
       00011400 00 00 00 00 00 00 00 00 00 00 
       0001140A 00 00 00 00 00 00 00 00 00 00 
       00011414 00 00 00 00 00 00 00 00 00 00 
       0001141E 00 00 00 00 00 00 00 00 00 00 
       00011428 00 00 00 00 00 00 00 00 00 00 
       00011432 00 00 00 00 00 00 00 00 00 00 
       0001143C 00 00 00 00 00 00 00 00 00 00 
       00011446 00 00 00 00 00 00 00 00 00 00 
       00011450 00 00 00 00 00 00 00 00 00 00 
       0001145A 00 00 00 00 00 00 00 00 00 00 
       00011464 00 00 00 00 00 00 00 00 00 00 
       0001146E 00 00 00 00 00 00 00 00 00 00 
       00011478 00 00 00 00 00 00 00 00 00 00 
       00011482 00 00 00 00 00 00 00 00 00 00 
       0001148C 00 00 00 00 00 00 00 00 00 00 
       00011496 00 00 00 00 00 00 00 00 00 00 
       000114A0 00 00 00 00 00 00 00 00 00 00 
       000114AA 00 00 00 00 00 00 00 00 00 00 
       000114B4 00 00 00 00 00 00 00 00 00 00 
       000114BE 00 00 00 00 00 00 00 00 00 00 
       000114C8 00 00 00 00 00 00 00 00 00 00 
       000114D2 00 00 00 00 00 00 00 00 00 00 
       000114DC 00 00 00 00 00 00 00 00 00 00 
       000114E6 00 00 00 00 00 00 00 00 00 00 
       000114F0 00 00 00 00 00 00 00 00 00 00 
       000114FA 00 00 00 00 00 00 00 00 00 00 
       00011504 00 00 00 00 00 00 00 00 00 00 
       0001150E 00 00 00 00 00 00 00 00 00 00 
       00011518 00 00 00 00 00 00 00 00 00 00 
       00011522 00 00 00 00 00 00 00 00 00 00 
       0001152C 00 00 00 00 00 00 00 00 00 00 
       00011536 00 00 00 00 00 00 00 00 00 00 
       00011540 00 00 00 00 00 00 00 00 00 00 
       0001154A 00 00 00 00 00 00 00 00 00 00 
       00011554 00 00 00 00 00 00 00 00 00 00 
       0001155E 00 00 00 00 00 00 00 00 00 00 
       00011568 00 00 00 00 00 00 00 00 00 00 
       00011572 00 00 00 00 00 00 00 00 00 00 
       0001157C 00 00 00 00 00 00 00 00 00 00 
       00011586 00 00 00 00 00 00 00 00 00 00 
       00011590 00 00 00 00 00 00 00 00 00 00 
       0001159A 00 00 00 00 00 00 00 00 00 00 
       000115A4 00 00 00 00 00 00 00 00 00 00 
       000115AE 00 00 00 00 00 00 00 00 00 00 
       000115B8 00 00 00 00 00 00 00 00 00 00 
       000115C2 00 00 00 00 00 00 00 00 00 00 
       000115CC 00 00 00 00 00 00 00 00 00 00 
       000115D6 00 00 00 00 00 00 00 00 00 00 
       000115E0 00 00 00 00 00 00 00 00 00 00 
       000115EA 00 00 00 00 00 00 00 00 00 00 
       000115F4 00 00 00 00 00 00 00 00 00 00 
       000115FE 00 00 00 00 00 00 00 00 00 00 
       00011608 00 00 00 00 00 00 00 00 00 00 
       00011612 00 00 00 00 00 00 00 00 00 00 
       0001161C 00 00 00 00 00 00 00 00 00 00 
       00011626 00 00 00 00 00 00 00 00 00 00 
       00011630 00 00 00 00 00 00 00 00 00 00 
       0001163A 00 00 00 00 00 00 00 00 00 00 
       00011644 00 00 00 00 00 00 00 00 00 00 
       0001164E 00 00 00 00 00 00 00 00 00 00 
       00011658 00 00 00 00 00 00 00 00 00 00 
       00011662 00 00 00 00 00 00 00 00 00 00 
       0001166C 00 00 00 00 00 00 00 00 00 00 
       00011676 00 00 00 00 00 00 00 00 00 00 
       00011680 00 00 00 00 00 00 00 00 00 00 
       0001168A 00 00 00 00 00 00 00 00 00 00 
       00011694 00 00 00 00 00 00 00 00 00 00 
       0001169E 00 00 00 00 00 00 00 00 00 00 
       000116A8 00 00 00 00 00 00 00 00 00 00 
       000116B2 00 00 00 00 00 00 00 00 00 00 
       000116BC 00 00 00 00 00 00 00 00 00 00 
       000116C6 00 00 00 00 00 00 00 00 00 00 
       000116D0 00 00 00 00 00 00 00 00 00 00 
       000116DA 00 00 00 00 00 00 00 00 00 00 
       000116E4 00 00 00 00 00 00 00 00 00 00 
       000116EE 00 00 00 00 00 00 00 00 00 00 
       000116F8 00 00 00 00 00 00 00 00 00 00 
       00011702 00 00 00 00 00 00 00 00 00 00 
       0001170C 00 00 00 00 00 00 00 00 00 00 
       00011716 00 00 00 00 00 00 00 00 00 00 
       00011720 00 00 00 00 00 00 00 00 00 00 
       0001172A 00 00 00 00 00 00 00 00 00 00 
       00011734 00 00 00 00 00 00 00 00 00 00 
       0001173E 00 00 00 00 00 00 00 00 00 00 
       00011748 00 00 00 00 00 00 00 00 00 00 
       00011752 00 00 00 00 00 00 00 00 00 00 
       0001175C 00 00 00 00 00 00 00 00 00 00 
       00011766 00 00 00 00 00 00 00 00 00 00 
       00011770 00 00 00 00 00 00 00 00 00 00 
       0001177A 00 00 00 00 00 00 00 00 00 00 
       00011784 00 00 00 00 00 00 00 00 00 00 
       0001178E 00 00 00 00 00 00 00 00 00 00 
       00011798 00 00 00 00 00 00 00 00 00 00 
       000117A2 00 00 00 00 00 00 00 00 00 00 
       000117AC 00 00 00 00 00 00 00 00 00 00 
       000117B6 00 00 00 00 00 00 00 00 00 00 
       000117C0 00 00 00 00 00 00 00 00 00 00 
       000117CA 00 00 00 00 00 00 00 00 00 00 
       000117D4 00 00 00 00 00 00 00 00 00 00 
       000117DE 00 00 00 00 00 00 00 00 00 00 
       000117E8 00 00 00 00 00 00 00 00 00 00 
       000117F2 00 00 00 00 00 00 00 00 00 00 
       000117FC 00 00 00 00 00 00 00 00 00 00 
       00011806 00 00 00 00 00 00 00 00 00 00 
       00011810 00 00 00 00 00 00 00 00 00 00 
       0001181A 00 00 00 00 00 00 00 00 00 00 
       00011824 00 00 00 00 00 00 00 00 00 00 
       0001182E 00 00 00 00 00 00 00 00 00 00 
       00011838 00 00 00 00 00 00 00 00 00 00 
       00011842 00 00 00 00 00 00 00 00 00 00 
       0001184C 00 00 00 00 00 00 00 00 00 00 
       00011856 00 00 00 00 00 00 00 00 00 00 
       00011860 00 00 00 00 00 00 00 00 00 00 
       0001186A 00 00 00 00 00 00 00 00 00 00 
       00011874 00 00 00 00 00 00 00 00 00 00 
       0001187E 00 00 00 00 00 00 00 00 00 00 
       00011888 00 00 00 00 00 00 00 00 00 00 
       00011892 00 00 00 00 00 00 00 00 00 00 
       0001189C 00 00 00 00 00 00 00 00 00 00 
       000118A6 00 00 00 00 00 00 00 00 00 00 
       000118B0 00 00 00 00 00 00 00 00 00 00 
       000118BA 00 00 00 00 00 00 00 00 00 00 
       000118C4 00 00 00 00 00 00 00 00 00 00 
       000118CE 00 00 00 00 00 00 00 00 00 00 
       000118D8 00 00 00 00 00 00 00 00 00 00 
       000118E2 00 00 00 00 00 00 00 00 00 00 
       000118EC 00 00 00 00 00 00 00 00 00 00 
       000118F6 00 00 00 00 00 00 00 00 00 00 
       00011900 00 00 00 00 00 00 00 00 00 00 
       0001190A 00 00 00 00 00 00 00 00 00 00 
       00011914 00 00 00 00 00 00 00 00 00 00 
       0001191E 00 00 00 00 00 00 00 00 00 00 
       00011928 00 00 00 00 00 00 00 00 00 00 
       00011932 00 00 00 00 00 00 00 00 00 00 
       0001193C 00 00 00 00 00 00 00 00 00 00 
       00011946 00 00 00 00 00 00 00 00 00 00 
       00011950 00 00 00 00 00 00 00 00 00 00 
       0001195A 00 00 00 00 00 00 00 00 00 00 
       00011964 00 00 00 00 00 00 00 00 00 00 
       0001196E 00 00 00 00 00 00 00 00 00 00 
       00011978 00 00 00 00 00 00 00 00 00 00 
       00011982 00 00 00 00 00 00 00 00 00 00 
       0001198C 00 00 00 00 00 00 00 00 00 00 
       00011996 00 00 00 00 00 00 00 00 00 00 
       000119A0 00 00 00 00 00 00 00 00 00 00 
       000119AA 00 00 00 00 00 00 00 00 00 00 
       000119B4 00 00 00 00 00 00 00 00 00 00 
       000119BE 00 00 00 00 00 00 00 00 00 00 
       000119C8 00 00 00 00 00 00 00 00 00 00 
       000119D2 00 00 00 00 00 00 00 00 00 00 
       000119DC 00 00 00 00 00 00 00 00 00 00 
       000119E6 00 00 00 00 00 00 00 00 00 00 
       000119F0 00 00 00 00 00 00 00 00 00 00 
       000119FA 00 00 00 00 00 00 00 00 00 00 
       00011A04 00 00 00 00 00 00 00 00 00 00 
       00011A0E 00 00 00 00 00 00 00 00 00 00 
       00011A18 00 00 00 00 00 00 00 00 00 00 
       00011A22 00 00 00 00 00 00 00 00 00 00 
       00011A2C 00 00 00 00 00 00 00 00 00 00 
       00011A36 00 00 00 00 00 00 00 00 00 00 
       00011A40 00 00 00 00 00 00 00 00 00 00 
       00011A4A 00 00 00 00 00 00 00 00 00 00 
       00011A54 00 00 00 00 00 00 00 00 00 00 
       00011A5E 00 00 00 00 00 00 00 00 00 00 
       00011A68 00 00 00 00 00 00 00 00 00 00 
       00011A72 00 00 00 00 00 00 00 00 00 00 
       00011A7C 00 00 00 00 00 00 00 00 00 00 
       00011A86 00 00 00 00 00 00 00 00 00 00 
       00011A90 00 00 00 00 00 00 00 00 00 00 
       00011A9A 00 00 00 00 00 00 00 00 00 00 
       00011AA4 00 00 00 00 00 00 00 00 00 00 
       00011AAE 00 00 00 00 00 00 00 00 00 00 
       00011AB8 00 00 00 00 00 00 00 00 00 00 
       00011AC2 00 00 00 00 00 00 00 00 00 00 
       00011ACC 00 00 00 00 00 00 00 00 00 00 
       00011AD6 00 00 00 00 00 00 00 00 00 00 
       00011AE0 00 00 00 00 00 00 00 00 00 00 
       00011AEA 00 00 00 00 00 00 00 00 00 00 
       00011AF4 00 00 00 00 00 00 00 00 00 00 
       00011AFE 00 00 00 00 00 00 00 00 00 00 
       00011B08 00 00 00 00 00 00 00 00 00 00 
       00011B12 00 00 00 00 00 00 00 00 00 00 
       00011B1C 00 00 00 00 00 00 00 00 00 00 
       00011B26 00 00 00 00 00 00 00 00 00 00 
       00011B30 00 00 00 00 00 00 00 00 00 00 
       00011B3A 00 00 00 00 00 00 00 00 00 00 
       00011B44 00 00 00 00 00 00 00 00 00 00 
       00011B4E 00 00 00 00 00 00 00 00 00 00 
       00011B58 00 00 00 00 00 00 00 00 00 00 
       00011B62 00 00 00 00 00 00 00 00 00 00 
       00011B6C 00 00 00 00 00 00 00 00 00 00 
       00011B76 00 00 00 00 00 00 00 00 00 00 
       00011B80 00 00 00 00 00 00 00 00 00 00 
       00011B8A 00 00 00 00 00 00 00 00 00 00 
       00011B94 00 00 00 00 00 00 00 00 00 00 
       00011B9E 00 00 00 00 00 00 00 00 00 00 
       00011BA8 00 00 00 00 00 00 00 00 00 00 
       00011BB2 00 00 00 00 00 00 00 00 00 00 
       00011BBC 00 00 00 00 00 00 00 00 00 00 
       00011BC6 00 00 00 00 00 00 00 00 00 00 
       00011BD0 00 00 00 00 00 00 00 00 00 00 
       00011BDA 00 00 00 00 00 00 00 00 00 00 
       00011BE4 00 00 00 00 00 00 00 00 00 00 
       00011BEE 00 00 00 00 00 00 00 00 00 00 
       00011BF8 00 00 00 00 00 00 00 00 00 00 
       00011C02 00 00 00 00 00 00 00 00 00 00 
       00011C0C 00 00 00 00 00 00 00 00 00 00 
       00011C16 00 00 00 00 00 00 00 00 00 00 
       00011C20 00 00 00 00 00 00 00 00 00 00 
       00011C2A 00 00 00 00 00 00 00 00 00 00 
       00011C34 00 00 00 00 00 00 00 00 00 00 
       00011C3E 00 00 00 00 00 00 00 00 00 00 
       00011C48 00 00 00 00 00 00 00 00 00 00 
       00011C52 00 00 00 00 00 00 00 00 00 00 
       00011C5C 00 00 00 00 00 00 00 00 00 00 
       00011C66 00 00 00 00 00 00 00 00 00 00 
       00011C70 00 00 00 00 00 00 00 00 00 00 
       00011C7A 00 00 00 00 00 00 00 00 00 00 
       00011C84 00 00 00 00 00 00 00 00 00 00 
       00011C8E 00 00 00 00 00 00 00 00 00 00 
       00011C98 00 00 00 00 00 00 00 00 00 00 
       00011CA2 00 00 00 00 00 00 00 00 00 00 
       00011CAC 00 00 00 00 00 00 00 00 00 00 
       00011CB6 00 00 00 00 00 00 00 00 00 00 
       00011CC0 00 00 00 00 00 00 00 00 00 00 
       00011CCA 00 00 00 00 00 00 00 00 00 00 
       00011CD4 00 00 00 00 00 00 00 00 00 00 
       00011CDE 00 00 00 00 00 00 00 00 00 00 
       00011CE8 00 00 00 00 00 00 00 00 00 00 
       00011CF2 00 00 00 00 00 00 00 00 00 00 
       00011CFC 00 00 00 00 00 00 00 00 00 00 
       00011D06 00 00 00 00 00 00 00 00 00 00 
       00011D10 00 00 00 00 00 00 00 00 00 00 
       00011D1A 00 00 00 00 00 00 00 00 00 00 
       00011D24 00 00 00 00 00 00 00 00 00 00 
       00011D2E 00 00 00 00 00 00 00 00 00 00 
       00011D38 00 00 00 00 00 00 00 00 00 00 
       00011D42 00 00 00 00 00 00 00 00 00 00 
       00011D4C 00 00 00 00 00 00 00 00 00 00 
       00011D56 00 00 00 00 00 00 00 00 00 00 
       00011D60 00 00 00 00 00 00 00 00 00 00 
       00011D6A 00 00 00 00 00 00 00 00 00 00 
       00011D74 00 00 00 00 00 00 00 00 00 00 
       00011D7E 00 00 00 00 00 00 00 00 00 00 
       00011D88 00 00 00 00 00 00 00 00 00 00 
       00011D92 00 00 00 00 00 00 00 00 00 00 
       00011D9C 00 00 00 00 00 00 00 00 00 00 
       00011DA6 00 00 00 00 00 00 00 00 00 00 
       00011DB0 00 00 00 00 00 00 00 00 00 00 
       00011DBA 00 00 00 00 00 00 00 00 00 00 
       00011DC4 00 00 00 00 00 00 00 00 00 00 
       00011DCE 00 00 00 00 00 00 00 00 00 00 
       00011DD8 00 00 00 00 00 00 00 00 00 00 
       00011DE2 00 00 00 00 00 00 00 00 00 00 
       00011DEC 00 00 00 00 00 00 00 00 00 00 
       00011DF6 00 00 00 00 00 00 00 00 00 00 
       00011E00 00 00 00 00 00 00 00 00 00 00 
       00011E0A 00 00 00 00 00 00 00 00 00 00 
       00011E14 00 00 00 00 00 00 00 00 00 00 
       00011E1E 00 00 00 00 00 00 00 00 00 00 
       00011E28 00 00 00 00 00 00 00 00 00 00 
       00011E32 00 00 00 00 00 00 00 00 00 00 
       00011E3C 00 00 00 00 00 00 00 00 00 00 
       00011E46 00 00 00 00 00 00 00 00 00 00 
       00011E50 00 00 00 00 00 00 00 00 00 00 
       00011E5A 00 00 00 00 00 00 00 00 00 00 
       00011E64 00 00 00 00 00 00 00 00 00 00 
       00011E6E 00 00 00 00 00 00 00 00 00 00 
       00011E78 00 00 00 00 00 00 00 00 00 00 
       00011E82 00 00 00 00 00 00 00 00 00 00 
       00011E8C 00 00 00 00 00 00 00 00 00 00 
       00011E96 00 00 00 00 00 00 00 00 00 00 
       00011EA0 00 00 00 00 00 00 00 00 00 00 
       00011EAA 00 00 00 00 00 00 00 00 00 00 
       00011EB4 00 00 00 00 00 00 00 00 00 00 
       00011EBE 00 00 00 00 00 00 00 00 00 00 
       00011EC8 00 00 00 00 00 00 00 00 00 00 
       00011ED2 00 00 00 00 00 00 00 00 00 00 
       00011EDC 00 00 00 00 00 00 00 00 00 00 
       00011EE6 00 00 00 00 00 00 00 00 00 00 
       00011EF0 00 00 00 00 00 00 00 00 00 00 
       00011EFA 00 00 00 00 00 00 00 00 00 00 
       00011F04 00 00 00 00 00 00 00 00 00 00 
       00011F0E 00 00 00 00 00 00 00 00 00 00 
       00011F18 00 00 00 00 00 00 00 00 00 00 
       00011F22 00 00 00 00 00 00 00 00 00 00 
       00011F2C 00 00 00 00 00 00 00 00 00 00 
       00011F36 00 00 00 00 00 00 00 00 00 00 
       00011F40 00 00 00 00 00 00 00 00 00 00 
       00011F4A 00 00 00 00 00 00 00 00 00 00 
       00011F54 00 00 00 00 00 00 00 00 00 00 
       00011F5E 00 00 00 00 00 00 00 00 00 00 
       00011F68 00 00 00 00 00 00 00 00 00 00 
       00011F72 00 00 00 00 00 00 00 00 00 00 
       00011F7C 00 00 00 00 00 00 00 00 00 00 
       00011F86 00 00 00 00 00 00 00 00 00 00 
       00011F90 00 00 00 00 00 00 00 00 00 00 
       00011F9A 00 00 00 00 00 00 00 00 00 00 
       00011FA4 00 00 00 00 00 00 00 00 00 00 
       00011FAE 00 00 00 00 00 00 00 00 00 00 
       00011FB8 00 00 00 00 00 00 00 00 00 00 
       00011FC2 00 00 00 00 00 00 00 00 00 00 
       00011FCC 00 00 00 00 00 00 00 00 00 00 
       00011FD6 00 00 00 00 00 00 00 00 00 00 
       00011FE0 00 00 00 00 00 00 00 00 00 00 
       00011FEA 00 00 00 00 00 00 00 00 00 00 
       00011FF4 00 00 00 00 00 00 00 00 00 00 
       00011FFE 00 00 00 00 00 00 00 00 00 00 
       00012008 00 00 00 00 00 00 00 00 00 00 
       00012012 00 00 00 00 00 00 00 00 00 00 
       0001201C 00 00 00 00 00 00 00 00 00 00 
       00012026 00 00 00 00 00 00 00 00 00 00 
       00012030 00 00 00 00 00 00 00 00 00 00 
       0001203A 00 00 00 00 00 00 00 00 00 00 
       00012044 00 00 00 00 00 00 00 00 00 00 
       0001204E 00 00 00 00 00 00 00 00 00 00 
       00012058 00 00 00 00 00 00 00 00 00 00 
       00012062 00 00 00 00 00 00 00 00 00 00 
       0001206C 00 00 00 00 00 00 00 00 00 00 
       00012076 00 00 00 00 00 00 00 00 00 00 
       00012080 00 00 00 00 00 00 00 00 00 00 
       0001208A 00 00 00 00 00 00 00 00 00 00 
       00012094 00 00 00 00 00 00 00 00 00 00 
       0001209E 00 00 00 00 00 00 00 00 00 00 
       000120A8 00 00 00 00 00 00 00 00 00 00 
       000120B2 00 00 00 00 00 00 00 00 00 00 
       000120BC 00 00 00 00 00 00 00 00 00 00 
       000120C6 00 00 00 00 00 00 00 00 00 00 
       000120D0 00 00 00 00 00 00 00 00 00 00 
       000120DA 00 00 00 00 00 00 00 00 00 00 
       000120E4 00 00 00 00 00 00 00 00 00 00 
       000120EE 00 00 00 00 00 00 00 00 00 00 
       000120F8 00 00 00 00 00 00 00 00 00 00 
       00012102 00 00 00 00 00 00 00 00 00 00 
       0001210C 00 00 00 00 00 00 00 00 00 00 
       00012116 00 00 00 00 00 00 00 00 00 00 
       00012120 00 00 00 00 00 00 00 00 00 00 
       0001212A 00 00 00 00 00 00 00 00 00 00 
       00012134 00 00 00 00 00 00 00 00 00 00 
       0001213E 00 00 00 00 00 00 00 00 00 00 
       00012148 00 00 00 00 00 00 00 00 00 00 
       00012152 00 00 00 00 00 00 00 00 00 00 
       0001215C 00 00 00 00 00 00 00 00 00 00 
       00012166 00 00 00 00 00 00 00 00 00 00 
       00012170 00 00 00 00 00 00 00 00 00 00 
       0001217A 00 00 00 00 00 00 00 00 00 00 
       00012184 00 00 00 00 00 00 00 00 00 00 
       0001218E 00 00 00 00 00 00 00 00 00 00 
       00012198 00 00 00 00 00 00 00 00 00 00 
       000121A2 00 00 00 00 00 00 00 00 00 00 
       000121AC 00 00 00 00 00 00 00 00 00 00 
       000121B6 00 00 00 00 00 00 00 00 00 00 
       000121C0 00 00 00 00 00 00 00 00 00 00 
       000121CA 00 00 00 00 00 00 00 00 00 00 
       000121D4 00 00 00 00 00 00 00 00 00 00 
       000121DE 00 00 00 00 00 00 00 00 00 00 
       000121E8 00 00 00 00 00 00 00 00 00 00 
       000121F2 00 00 00 00 00 00 00 00 00 00 
       000121FC 00 00 00 00 00 00 00 00 00 00 
       00012206 00 00 00 00 00 00 00 00 00 00 
       00012210 00 00 00 00 00 00 00 00 00 00 
       0001221A 00 00 00 00 00 00 00 00 00 00 
       00012224 00 00 00 00 00 00 00 00 00 00 
       0001222E 00 00 00 00 00 00 00 00 00 00 
       00012238 00 00 00 00 00 00 00 00 00 00 
       00012242 00 00 00 00 00 00 00 00 00 00 
       0001224C 00 00 00 00 00 00 00 00 00 00 
       00012256 00 00 00 00 00 00 00 00 00 00 
       00012260 00 00 00 00 00 00 00 00 00 00 
       0001226A 00 00 00 00 00 00 00 00 00 00 
       00012274 00 00 00 00 00 00 00 00 00 00 
       0001227E 00 00 00 00 00 00 00 00 00 00 
       00012288 00 00 00 00 00 00 00 00 00 00 
       00012292 00 00 00 00 00 00 00 00 00 00 
       0001229C 00 00 00 00 00 00 00 00 00 00 
       000122A6 00 00 00 00 00 00 00 00 00 00 
       000122B0 00 00 00 00 00 00 00 00 00 00 
       000122BA 00 00 00 00 00 00 00 00 00 00 
       000122C4 00 00 00 00 00 00 00 00 00 00 
       000122CE 00 00 00 00 00 00 00 00 00 00 
       000122D8 00 00 00 00 00 00 00 00 00 00 
       000122E2 00 00 00 00 00 00 00 00 00 00 
       000122EC 00 00 00 00 00 00 00 00 00 00 
       000122F6 00 00 00 00 00 00 00 00 00 00 
       00012300 00 00 00 00 00 00 00 00 00 00 
       0001230A 00 00 00 00 00 00 00 00 00 00 
       00012314 00 00 00 00 00 00 00 00 00 00 
       0001231E 00 00 00 00 00 00 00 00 00 00 
       00012328 00 00 00 00 00 00 00 00 00 00 
       00012332 00 00 00 00 00 00 00 00 00 00 
       0001233C 00 00 00 00 00 00 00 00 00 00 
       00012346 00 00 00 00 00 00 00 00 00 00 
       00012350 00 00 00 00 00 00 00 00 00 00 
       0001235A 00 00 00 00 00 00 00 00 00 00 
       00012364 00 00 00 00 00 00 00 00 00 00 
       0001236E 00 00 00 00 00 00 00 00 00 00 
       00012378 00 00 00 00 00 00 00 00 00 00 
       00012382 00 00 00 00 00 00 00 00 00 00 
       0001238C 00 00 00 00 00 00 00 00 00 00 
       00012396 00 00 00 00 00 00 00 00 00 00 
       000123A0 00 00 00 00 00 00 00 00 00 00 
       000123AA 00 00 00 00 00 00 00 00 00 00 
       000123B4 00 00 00 00 00 00 00 00 00 00 
       000123BE 00 00 00 00 00 00 00 00 00 00 
       000123C8 00 00 00 00 00 00 00 00 00 00 
       000123D2 00 00 00 00 00 00 00 00 00 00 
       000123DC 00 00 00 00 00 00 00 00 00 00 
       000123E6 00 00 00 00 00 00 00 00 00 00 
       000123F0 00 00 00 00 00 00 00 00 00 00 
       000123FA 00 00 00 00 00 00 00 00 00 00 
       00012404 00 00 00 00 00 00 00 00 00 00 
       0001240E 00 00 00 00 00 00 00 00 00 00 
       00012418 00 00 00 00 00 00 00 00 00 00 
       00012422 00 00 00 00 00 00 00 00 00 00 
       0001242C 00 00 00 00 00 00 00 00 00 00 
       00012436 00 00 00 00 00 00 00 00 00 00 
       00012440 00 00 00 00 00 00 00 00 00 00 
       0001244A 00 00 00 00 00 00 00 00 00 00 
       00012454 00 00 00 00 00 00 00 00 00 00 
       0001245E 00 00 00 00 00 00 00 00 00 00 
       00012468 00 00 00 00 00 00 00 00 00 00 
       00012472 00 00 00 00 00 00 00 00 00 00 
       0001247C 00 00 00 00 00 00 00 00 00 00 
       00012486 00 00 00 00 00 00 00 00 00 00 
       00012490 00 00 00 00 00 00 00 00 00 00 
       0001249A 00 00 00 00 00 00 00 00 00 00 
       000124A4 00 00 00 00 00 00 00 00 00 00 
       000124AE 00 00 00 00 00 00 00 00 00 00 
       000124B8 00 00 00 00 00 00 00 00 00 00 
       000124C2 00 00 00 00 00 00 00 00 00 00 
       000124CC 00 00 00 00 00 00 00 00 00 00 
       000124D6 00 00 00 00 00 00 00 00 00 00 
       000124E0 00 00 00 00 00 00 00 00 00 00 
       000124EA 00 00 00 00 00 00 00 00 00 00 
       000124F4 00 00 00 00 00 00 00 00 00 00 
       000124FE 00 00 00 00 00 00 00 00 00 00 
       00012508 00 00 00 00 00 00 00 00 00 00 
       00012512 00 00 00 00 00 00 00 00 00 00 
       0001251C 00 00 00 00 00 00 00 00 00 00 
       00012526 00 00 00 00 00 00 00 00 00 00 
       00012530 00 00 00 00 00 00 00 00 00 00 
       0001253A 00 00 00 00 00 00 00 00 00 00 
       00012544 00 00 00 00 00 00 00 00 00 00 
       0001254E 00 00 00 00 00 00 00 00 00 00 
       00012558 00 00 00 00 00 00 00 00 00 00 
       00012562 00 00 00 00 00 00 00 00 00 00 
       0001256C 00 00 00 00 00 00 00 00 00 00 
       00012576 00 00 00 00 00 00 00 00 00 00 
       00012580 00 00 00 00 00 00 00 00 00 00 
       0001258A 00 00 00 00 00 00 00 00 00 00 
       00012594 00 00 00 00 00 00 00 00 00 00 
       0001259E 00 00 00 00 00 00 00 00 00 00 
       000125A8 00 00 00 00 00 00 00 00 00 00 
       000125B2 00 00 00 00 00 00 00 00 00 00 
       000125BC 00 00 00 00 00 00 00 00 00 00 
       000125C6 00 00 00 00 00 00 00 00 00 00 
       000125D0 00 00 00 00 00 00 00 00 00 00 
       000125DA 00 00 00 00 00 00 00 00 00 00 
       000125E4 00 00 00 00 00 00 00 00 00 00 
       000125EE 00 00 00 00 00 00 00 00 00 00 
       000125F8 00 00 00 00 00 00 00 00 00 00 
       00012602 00 00 00 00 00 00 00 00 00 00 
       0001260C 00 00 00 00 00 00 00 00 00 00 
       00012616 00 00 00 00 00 00 00 00 00 00 
       00012620 00 00 00 00 00 00 00 00 00 00 
       0001262A 00 00 00 00 00 00 00 00 00 00 
       00012634 00 00 00 00 00 00 00 00 00 00 
       0001263E 00 00 00 00 00 00 00 00 00 00 
       00012648 00 00 00 00 00 00 00 00 00 00 
       00012652 00 00 00 00 00 00 00 00 00 00 
       0001265C 00 00 00 00 00 00 00 00 00 00 
       00012666 00 00 00 00 00 00 00 00 00 00 
       00012670 00 00 00 00 00 00 00 00 00 00 
       0001267A 00 00 00 00 00 00 00 00 00 00 
       00012684 00 00 00 00 00 00 00 00 00 00 
       0001268E 00 00 00 00 00 00 00 00 00 00 
       00012698 00 00 00 00 00 00 00 00 00 00 
       000126A2 00 00 00 00 00 00 00 00 00 00 
       000126AC 00 00 00 00 00 00 00 00 00 00 
       000126B6 00 00 00 00 00 00 00 00 00 00 
       000126C0 00 00 00 00 00 00 00 00 00 00 
       000126CA 00 00 00 00 00 00 00 00 00 00 
       000126D4 00 00 00 00 00 00 00 00 00 00 
       000126DE 00 00 00 00 00 00 00 00 00 00 
       000126E8 00 00 00 00 00 00 00 00 00 00 
       000126F2 00 00 00 00 00 00 00 00 00 00 
       000126FC 00 00 00 00 00 00 00 00 00 00 
       00012706 00 00 00 00 00 00 00 00 00 00 
       00012710 00 00 00 00 00 00 00 00 00 00 
       0001271A 00 00 00 00 00 00 00 00 00 00 
       00012724 00 00 00 00 00 00 00 00 00 00 
       0001272E 00 00 00 00 00 00 00 00 00 00 
       00012738 00 00 00 00 00 00 00 00 00 00 
       00012742 00 00 00 00 00 00 00 00 00 00 
       0001274C 00 00 00 00 00 00 00 00 00 00 
       00012756 00 00 00 00 00 00 00 00 00 00 
       00012760 00 00 00 00 00 00 00 00 00 00 
       0001276A 00 00 00 00 00 00 00 00 00 00 
       00012774 00 00 00 00 00 00 00 00 00 00 
       0001277E 00 00 00 00 00 00 00 00 00 00 
       00012788 00 00 00 00 00 00 00 00 00 00 
       00012792 00 00 00 00 00 00 00 00 00 00 
       0001279C 00 00 00 00 00 00 00 00 00 00 
       000127A6 00 00 00 00 00 00 00 00 00 00 
       000127B0 00 00 00 00 00 00 00 00 00 00 
       000127BA 00 00 00 00 00 00 00 00 00 00 
       000127C4 00 00 00 00 00 00 00 00 00 00 
       000127CE 00 00 00 00 00 00 00 00 00 00 
       000127D8 00 00 00 00 00 00 00 00 00 00 
       000127E2 00 00 00 00 00 00 00 00 00 00 
       000127EC 00 00 00 00 00 00 00 00 00 00 
       000127F6 00 00 00 00 00 00 00 00 00 00 
       00012800 00 00 00 00 00 00 00 00 00 00 
       0001280A 00 00 00 00 00 00 00 00 00 00 
       00012814 00 00 00 00 00 00 00 00 00 00 
       0001281E 00 00 00 00 00 00 00 00 00 00 
       00012828 00 00 00 00 00 00 00 00 00 00 
       00012832 00 00 00 00 00 00 00 00 00 00 
       0001283C 00 00 00 00 00 00 00 00 00 00 
       00012846 00 00 00 00 00 00 00 00 00 00 
       00012850 00 00 00 00 00 00 00 00 00 00 
       0001285A 00 00 00 00 00 00 00 00 00 00 
       00012864 00 00 00 00 00 00 00 00 00 00 
       0001286E 00 00 00 00 00 00 00 00 00 00 
       00012878 00 00 00 00 00 00 00 00 00 00 
       00012882 00 00 00 00 00 00 00 00 00 00 
       0001288C 00 00 00 00 00 00 00 00 00 00 
       00012896 00 00 00 00 00 00 00 00 00 00 
       000128A0 00 00 00 00 00 00 00 00 00 00 
       000128AA 00 00 00 00 00 00 00 00 00 00 
       000128B4 00 00 00 00 00 00 00 00 00 00 
       000128BE 00 00 00 00 00 00 00 00 00 00 
       000128C8 00 00 00 00 00 00 00 00 00 00 
       000128D2 00 00 00 00 00 00 00 00 00 00 
       000128DC 00 00 00 00 00 00 00 00 00 00 
       000128E6 00 00 00 00 00 00 00 00 00 00 
       000128F0 00 00 00 00 00 00 00 00 00 00 
       000128FA 00 00 00 00 00 00 00 00 00 00 
       00012904 00 00 00 00 00 00 00 00 00 00 
       0001290E 00 00 00 00 00 00 00 00 00 00 
       00012918 00 00 00 00 00 00 00 00 00 00 
       00012922 00 00 00 00 00 00 00 00 00 00 
       0001292C 00 00 00 00 00 00 00 00 00 00 
       00012936 00 00 00 00 00 00 00 00 00 00 
       00012940 00 00 00 00 00 00 00 00 00 00 
       0001294A 00 00 00 00 00 00 00 00 00 00 
       00012954 00 00 00 00 00 00 00 00 00 00 
       0001295E 00 00 00 00 00 00 00 00 00 00 
       00012968 00 00 00 00 00 00 00 00 00 00 
       00012972 00 00 00 00 00 00 00 00 00 00 
       0001297C 00 00 00 00 00 00 00 00 00 00 
       00012986 00 00 00 00 00 00 00 00 00 00 
       00012990 00 00 00 00 00 00 00 00 00 00 
       0001299A 00 00 00 00 00 00 00 00 00 00 
       000129A4 00 00 00 00 00 00 00 00 00 00 
       000129AE 00 00 00 00 00 00 00 00 00 00 
       000129B8 00 00 00 00 00 00 00 00 00 00 
       000129C2 00 00 00 00 00 00 00 00 00 00 
       000129CC 00 00 00 00 00 00 00 00 00 00 
       000129D6 00 00 00 00 00 00 00 00 00 00 
       000129E0 00 00 00 00 00 00 00 00 00 00 
       000129EA 00 00 00 00 00 00 00 00 00 00 
       000129F4 00 00 00 00 00 00 00 00 00 00 
       000129FE 00 00 00 00 00 00 00 00 00 00 
       00012A08 00 00 00 00 00 00 00 00 00 00 
       00012A12 00 00 00 00 00 00 00 00 00 00 
       00012A1C 00 00 00 00 00 00 00 00 00 00 
       00012A26 00 00 00 00 00 00 00 00 00 00 
       00012A30 00 00 00 00 00 00 00 00 00 00 
       00012A3A 00 00 00 00 00 00 00 00 00 00 
       00012A44 00 00 00 00 00 00 00 00 00 00 
       00012A4E 00 00 00 00 00 00 00 00 00 00 
       00012A58 00 00 00 00 00 00 00 00 00 00 
       00012A62 00 00 00 00 00 00 00 00 00 00 
       00012A6C 00 00 00 00 00 00 00 00 00 00 
       00012A76 00 00 00 00 00 00 00 00 00 00 
       00012A80 00 00 00 00 00 00 00 00 00 00 
       00012A8A 00 00 00 00 00 00 00 00 00 00 
       00012A94 00 00 00 00 00 00 00 00 00 00 
       00012A9E 00 00 00 00 00 00 00 00 00 00 
       00012AA8 00 00 00 00 00 00 00 00 00 00 
       00012AB2 00 00 00 00 00 00 00 00 00 00 
       00012ABC 00 00 00 00 00 00 00 00 00 00 
       00012AC6 00 00 00 00 00 00 00 00 00 00 
       00012AD0 00 00 00 00 00 00 00 00 00 00 
       00012ADA 00 00 00 00 00 00 00 00 00 00 
       00012AE4 00 00 00 00 00 00 00 00 00 00 
       00012AEE 00 00 00 00 00 00 00 00 00 00 
       00012AF8 00 00 00 00 00 00 00 00 00 00 
       00012B02 00 00 00 00 00 00 00 00 00 00 
       00012B0C 00 00 00 00 00 00 00 00 00 00 
       00012B16 00 00 00 00 00 00 00 00 00 00 
       00012B20 00 00 00 00 00 00 00 00 00 00 
       00012B2A 00 00 00 00 00 00 00 00 00 00 
       00012B34 00 00 00 00 00 00 00 00 00 00 
       00012B3E 00 00 00 00 00 00 00 00 00 00 
       00012B48 00 00 00 00 00 00 00 00 00 00 
       00012B52 00 00 00 00 00 00 00 00 00 00 
       00012B5C 00 00 00 00 00 00 00 00 00 00 
       00012B66 00 00 00 00 00 00 00 00 00 00 
       00012B70 00 00 00 00 00 00 00 00 00 00 
       00012B7A 00 00 00 00 00 00 00 00 00 00 
       00012B84 00 00 00 00 00 00 00 00 00 00 
       00012B8E 00 00 00 00 00 00 00 00 00 00 
       00012B98 00 00 00 00 00 00 00 00 00 00 
       00012BA2 00 00 00 00 00 00 00 00 00 00 
       00012BAC 00 00 00 00 00 00 00 00 00 00 
       00012BB6 00 00 00 00 00 00 00 00 00 00 
       00012BC0 00 00 00 00 00 00 00 00 00 00 
       00012BCA 00 00 00 00 00 00 00 00 00 00 
       00012BD4 00 00 00 00 00 00 00 00 00 00 
       00012BDE 00 00 00 00 00 00 00 00 00 00 
       00012BE8 00 00 00 00 00 00 00 00 00 00 
       00012BF2 00 00 00 00 00 00 00 00 00 00 
       00012BFC 00 00 00 00 00 00 00 00 00 00 
       00012C06 00 00 00 00 00 00 00 00 00 00 
       00012C10 00 00 00 00 00 00 00 00 00 00 
       00012C1A 00 00 00 00 00 00 00 00 00 00 
       00012C24 00 00 00 00 00 00 00 00 00 00 
       00012C2E 00 00 00 00 00 00 00 00 00 00 
       00012C38 00 00 00 00 00 00 00 00 00 00 
       00012C42 00 00 00 00 00 00 00 00 00 00 
       00012C4C 00 00 00 00 00 00 00 00 00 00 
       00012C56 00 00 00 00 00 00 00 00 00 00 
       00012C60 00 00 00 00 00 00 00 00 00 00 
       00012C6A 00 00 00 00 00 00 00 00 00 00 
       00012C74 00 00 00 00 00 00 00 00 00 00 
       00012C7E 00 00 00 00 00 00 00 00 00 00 
       00012C88 00 00 00 00 00 00 00 00 00 00 
       00012C92 00 00 00 00 00 00 00 00 00 00 
       00012C9C 00 00 00 00 00 00 00 00 00 00 
       00012CA6 00 00 00 00 00 00 00 00 00 00 
       00012CB0 00 00 00 00 00 00 00 00 00 00 
       00012CBA 00 00 00 00 00 00 00 00 00 00 
       00012CC4 00 00 00 00 00 00 00 00 00 00 
       00012CCE 00 00 00 00 00 00 00 00 00 00 
       00012CD8 00 00 00 00 00 00 00 00 00 00 
       00012CE2 00 00 00 00 00 00 00 00 00 00 
       00012CEC 00 00 00 00 00 00 00 00 00 00 
       00012CF6 00 00 00 00 00 00 00 00 00 00 
       00012D00 00 00 00 00 00 00 00 00 00 00 
       00012D0A 00 00 00 00 00 00 00 00 00 00 
       00012D14 00 00 00 00 00 00 00 00 00 00 
       00012D1E 00 00 00 00 00 00 00 00 00 00 
       00012D28 00 00 00 00 00 00 00 00 00 00 
       00012D32 00 00 00 00 00 00 00 00 00 00 
       00012D3C 00 00 00 00 00 00 00 00 00 00 
       00012D46 00 00 00 00 00 00 00 00 00 00 
       00012D50 00 00 00 00 00 00 00 00 00 00 
       00012D5A 00 00 00 00 00 00 00 00 00 00 
       00012D64 00 00 00 00 00 00 00 00 00 00 
       00012D6E 00 00 00 00 00 00 00 00 00 00 
       00012D78 00 00 00 00 00 00 00 00 00 00 
       00012D82 00 00 00 00 00 00 00 00 00 00 
       00012D8C 00 00 00 00 00 00 00 00 00 00 
       00012D96 00 00 00 00 00 00 00 00 00 00 
       00012DA0 00 00 00 00 00 00 00 00 00 00 
       00012DAA 00 00 00 00 00 00 00 00 00 00 
       00012DB4 00 00 00 00 00 00 00 00 00 00 
       00012DBE 00 00 00 00 00 00 00 00 00 00 
       00012DC8 00 00 00 00 00 00 00 00 00 00 
       00012DD2 00 00 00 00 00 00 00 00 00 00 
       00012DDC 00 00 00 00 00 00 00 00 00 00 
       00012DE6 00 00 00 00 00 00 00 00 00 00 
       00012DF0 00 00 00 00 00 00 00 00 00 00 
       00012DFA 00 00 00 00 00 00 00 00 00 00 
       00012E04 00 00 00 00 00 00 00 00 00 00 
       00012E0E 00 00 00 00 00 00 00 00 00 00 
       00012E18 00 00 00 00 00 00 00 00 00 00 
       00012E22 00 00 00 00 00 00 00 00 00 00 
       00012E2C 00 00 00 00 00 00 00 00 00 00 
       00012E36 00 00 00 00 00 00 00 00 00 00 
       00012E40 00 00 00 00 00 00 00 00 00 00 
       00012E4A 00 00 00 00 00 00 00 00 00 00 
       00012E54 00 00 00 00 00 00 00 00 00 00 
       00012E5E 00 00 00 00 00 00 00 00 00 00 
       00012E68 00 00 00 00 00 00 00 00 00 00 
       00012E72 00 00 00 00 00 00 00 00 00 00 
       00012E7C 00 00 00 00 00 00 00 00 00 00 
       00012E86 00 00 00 00 00 00 00 00 00 00 
       00012E90 00 00 00 00 00 00 00 00 00 00 
       00012E9A 00 00 00 00 00 00 00 00 00 00 
       00012EA4 00 00 00 00 00 00 00 00 00 00 
       00012EAE 00 00 00 00 00 00 00 00 00 00 
       00012EB8 00 00 00 00 00 00 00 00 00 00 
       00012EC2 00 00 00 00 00 00 00 00 00 00 
       00012ECC 00 00 00 00 00 00 00 00 00 00 
       00012ED6 00 00 00 00 00 00 00 00 00 00 
       00012EE0 00 00 00 00 00 00 00 00 00 00 
       00012EEA 00 00 00 00 00 00 00 00 00 00 
       00012EF4 00 00 00 00 00 00 00 00 00 00 
       00012EFE 00 00 00 00 00 00 00 00 00 00 
       00012F08 00 00 00 00 00 00 00 00 00 00 
       00012F12 00 00 00 00 00 00 00 00 00 00 
       00012F1C 00 00 00 00 00 00 00 00 00 00 
       00012F26 00 00 00 00 00 00 00 00 00 00 
       00012F30 00 00 00 00 00 00 00 00 00 00 
       00012F3A 00 00 00 00 00 00 00 00 00 00 
       00012F44 00 00 00 00 00 00 00 00 00 00 
       00012F4E 00 00 00 00 00 00 00 00 00 00 
       00012F58 00 00 00 00 00 00 00 00 00 00 
       00012F62 00 00 00 00 00 00 00 00 00 00 
       00012F6C 00 00 00 00 00 00 00 00 00 00 
       00012F76 00 00 00 00 00 00 00 00 00 00 
       00012F80 00 00 00 00 00 00 00 00 00 00 
       00012F8A 00 00 00 00 00 00 00 00 00 00 
       00012F94 00 00 00 00 00 00 00 00 00 00 
       00012F9E 00 00 00 00 00 00 00 00 00 00 
       00012FA8 00 00 00 00 00 00 00 00 00 00 
       00012FB2 00 00 00 00 00 00 00 00 00 00 
       00012FBC 00 00 00 00 00 00 00 00 00 00 
       00012FC6 00 00 00 00 00 00 00 00 00 00 
       00012FD0 00 00 00 00 00 00 00 00 00 00 
       00012FDA 00 00 00 00 00 00 00 00 00 00 
       00012FE4 00 00 00 00 00 00 00 00 00 00 
       00012FEE 00 00 00 00 00 00 00 00 00 00 
       00012FF8 00 00 00 00 00 00 00 00 00 00 
       00013002 00 00 00 00 00 00 00 00 00 00 
       0001300C 00 00 00 00 00 00 00 00 00 00 
       00013016 00 00 00 00 00 00 00 00 00 00 
       00013020 00 00 00 00 00 00 00 00 00 00 
       0001302A 00 00 00 00 00 00 00 00 00 00 
       00013034 00 00 00 00 00 00 00 00 00 00 
       0001303E 00 00 00 00 00 00 00 00 00 00 
       00013048 00 00 00 00 00 00 00 00 00 00 
       00013052 00 00 00 00 00 00 00 00 00 00 
       0001305C 00 00 00 00 00 00 00 00 00 00 
       00013066 00 00 00 00 00 00 00 00 00 00 
       00013070 00 00 00 00 00 00 00 00 00 00 
       0001307A 00 00 00 00 00 00 00 00 00 00 
       00013084 00 00 00 00 00 00 00 00 00 00 
       0001308E 00 00 00 00 00 00 00 00 00 00 
       00013098 00 00 00 00 00 00 00 00 00 00 
       000130A2 00 00 00 00 00 00 00 00 00 00 
       000130AC 00 00 00 00 00 00 00 00 00 00 
       000130B6 00 00 00 00 00 00 00 00 00 00 
       000130C0 00 00 00 00 00 00 00 00 00 00 
       000130CA 00 00 00 00 00 00 00 00 00 00 
       000130D4 00 00 00 00 00 00 00 00 00 00 
       000130DE 00 00 00 00 00 00 00 00 00 00 
       000130E8 00 00 00 00 00 00 00 00 00 00 
       000130F2 00 00 00 00 00 00 00 00 00 00 
       000130FC 00 00 00 00 00 00 00 00 00 00 
       00013106 00 00 00 00 00 00 00 00 00 00 
       00013110 00 00 00 00 00 00 00 00 00 00 
       0001311A 00 00 00 00 00 00 00 00 00 00 
       00013124 00 00 00 00 00 00 00 00 00 00 
       0001312E 00 00 00 00 00 00 00 00 00 00 
       00013138 00 00 00 00 00 00 00 00 00 00 
       00013142 00 00 00 00 00 00 00 00 00 00 
       0001314C 00 00 00 00 00 00 00 00 00 00 
       00013156 00 00 00 00 00 00 00 00 00 00 
       00013160 00 00 00 00 00 00 00 00 00 00 
       0001316A 00 00 00 00 00 00 00 00 00 00 
       00013174 00 00 00 00 00 00 00 00 00 00 
       0001317E 00 00 00 00 00 00 00 00 00 00 
       00013188 00 00 00 00 00 00 00 00 00 00 
       00013192 00 00 00 00 00 00 00 00 00 00 
       0001319C 00 00 00 00 00 00 00 00 00 00 
       000131A6 00 00 00 00 00 00 00 00 00 00 
       000131B0 00 00 00 00 00 00 00 00 00 00 
       000131BA 00 00 00 00 00 00 00 00 00 00 
       000131C4 00 00 00 00 00 00 00 00 00 00 
       000131CE 00 00 00 00 00 00 00 00 00 00 
       000131D8 00 00 00 00 00 00 00 00 00 00 
       000131E2 00 00 00 00 00 00 00 00 00 00 
       000131EC 00 00 00 00 00 00 00 00 00 00 
       000131F6 00 00 00 00 00 00 00 00 00 00 
       00013200 00 00 00 00 00 00 00 00 00 00 
       0001320A 00 00 00 00 00 00 00 00 00 00 
       00013214 00 00 00 00 00 00 00 00 00 00 
       0001321E 00 00 00 00 00 00 00 00 00 00 
       00013228 00 00 00 00 00 00 00 00 00 00 
       00013232 00 00 00 00 00 00 00 00 00 00 
       0001323C 00 00 00 00 00 00 00 00 00 00 
       00013246 00 00 00 00 00 00 00 00 00 00 
       00013250 00 00 00 00 00 00 00 00 00 00 
       0001325A 00 00 00 00 00 00 00 00 00 00 
       00013264 00 00 00 00 00 00 00 00 00 00 
       0001326E 00 00 00 00 00 00 00 00 00 00 
       00013278 00 00 00 00 00 00 00 00 00 00 
       00013282 00 00 00 00 00 00 00 00 00 00 
       0001328C 00 00 00 00 00 00 00 00 00 00 
       00013296 00 00 00 00 00 00 00 00 00 00 
       000132A0 00 00 00 00 00 00 00 00 00 00 
       000132AA 00 00 00 00 00 00 00 00 00 00 
       000132B4 00 00 00 00 00 00 00 00 00 00 
       000132BE 00 00 00 00 00 00 00 00 00 00 
       000132C8 00 00 00 00 00 00 00 00 00 00 
       000132D2 00 00 00 00 00 00 00 00 00 00 
       000132DC 00 00 00 00 00 00 00 00 00 00 
       000132E6 00 00 00 00 00 00 00 00 00 00 
       000132F0 00 00 00 00 00 00 00 00 00 00 
       000132FA 00 00 00 00 00 00 00 00 00 00 
       00013304 00 00 00 00 00 00 00 00 00 00 
       0001330E 00 00 00 00 00 00 00 00 00 00 
       00013318 00 00 00 00 00 00 00 00 00 00 
       00013322 00 00 00 00 00 00 00 00 00 00 
       0001332C 00 00 00 00 00 00 00 00 00 00 
       00013336 00 00 00 00 00 00 00 00 00 00 
       00013340 00 00 00 00 00 00 00 00 00 00 
       0001334A 00 00 00 00 00 00 00 00 00 00 
       00013354 00 00 00 00 00 00 00 00 00 00 
       0001335E 00 00 00 00 00 00 00 00 00 00 
       00013368 00 00 00 00 00 00 00 00 00 00 
       00013372 00 00 00 00 00 00 00 00 00 00 
       0001337C 00 00 00 00 00 00 00 00 00 00 
       00013386 00 00 00 00 00 00 00 00 00 00 
       00013390 00 00 00 00 00 00 00 00 00 00 
       0001339A 00 00 00 00 00 00 00 00 00 00 
       000133A4 00 00 00 00 00 00 00 00 00 00 
       000133AE 00 00 00 00 00 00 00 00 00 00 
       000133B8 00 00 00 00 00 00 00 00 00 00 
       000133C2 00 00 00 00 00 00 00 00 00 00 
       000133CC 00 00 00 00 00 00 00 00 00 00 
       000133D6 00 00 00 00 00 00 00 00 00 00 
       000133E0 00 00 00 00 00 00 00 00 00 00 
       000133EA 00 00 00 00 00 00 00 00 00 00 
       000133F4 00 00 00 00 00 00 00 00 00 00 
       000133FE 00 00 00 00 00 00 00 00 00 00 
       00013408 00 00 00 00 00 00 00 00 00 00 
       00013412 00 00 00 00 00 00 00 00 00 00 
       0001341C 00 00 00 00 00 00 00 00 00 00 
       00013426 00 00 00 00 00 00 00 00 00 00 
       00013430 00 00 00 00 00 00 00 00 00 00 
       0001343A 00 00 00 00 00 00 00 00 00 00 
       00013444 00 00 00 00 00 00 00 00 00 00 
       0001344E 00 00 00 00 00 00 00 00 00 00 
       00013458 00 00 00 00 00 00 00 00 00 00 
       00013462 00 00 00 00 00 00 00 00 00 00 
       0001346C 00 00 00 00 00 00 00 00 00 00 
       00013476 00 00 00 00 00 00 00 00 00 00 
       00013480 00 00 00 00 00 00 00 00 00 00 
       0001348A 00 00 00 00 00 00 00 00 00 00 
       00013494 00 00 00 00 00 00 00 00 00 00 
       0001349E 00 00 00 00 00 00 00 00 00 00 
       000134A8 00 00 00 00 00 00 00 00 00 00 
       000134B2 00 00 00 00 00 00 00 00 00 00 
       000134BC 00 00 00 00 00 00 00 00 00 00 
       000134C6 00 00 00 00 00 00 00 00 00 00 
       000134D0 00 00 00 00 00 00 00 00 00 00 
       000134DA 00 00 00 00 00 00 00 00 00 00 
       000134E4 00 00 00 00 00 00 00 00 00 00 
       000134EE 00 00 00 00 00 00 00 00 00 00 
       000134F8 00 00 00 00 00 00 00 00 00 00 
       00013502 00 00 00 00 00 00 00 00 00 00 
       0001350C 00 00 00 00 00 00 00 00 00 00 
       00013516 00 00 00 00 00 00 00 00 00 00 
       00013520 00 00 00 00 00 00 00 00 00 00 
       0001352A 00 00 00 00 00 00 00 00 00 00 
       00013534 00 00 00 00 00 00 00 00 00 00 
       0001353E 00 00 00 00 00 00 00 00 00 00 
       00013548 00 00 00 00 00 00 00 00 00 00 
       00013552 00 00 00 00 00 00 00 00 00 00 
       0001355C 00 00 00 00 00 00 00 00 00 00 
       00013566 00 00 00 00 00 00 00 00 00 00 
       00013570 00 00 00 00 00 00 00 00 00 00 
       0001357A 00 00 00 00 00 00 00 00 00 00 
       00013584 00 00 00 00 00 00 00 00 00 00 
       0001358E 00 00 00 00 00 00 00 00 00 00 
       00013598 00 00 00 00 00 00 00 00 00 00 
       000135A2 00 00 00 00 00 00 00 00 00 00 
       000135AC 00 00 00 00 00 00 00 00 00 00 
       000135B6 00 00 00 00 00 00 00 00 00 00 
       000135C0 00 00 00 00 00 00 00 00 00 00 
       000135CA 00 00 00 00 00 00 00 00 00 00 
       000135D4 00 00 00 00 00 00 00 00 00 00 
       000135DE 00 00 00 00 00 00 00 00 00 00 
       000135E8 00 00 00 00 00 00 00 00 00 00 
       000135F2 00 00 00 00 00 00 00 00 00 00 
       000135FC 00 00 00 00 00 00 00 00 00 00 
       00013606 00 00 00 00 00 00 00 00 00 00 
       00013610 00 00 00 00 00 00 00 00 00 00 
       0001361A 00 00 00 00 00 00 00 00 00 00 
       00013624 00 00 00 00 00 00 00 00 00 00 
       0001362E 00 00 00 00 00 00 00 00 00 00 
       00013638 00 00 00 00 00 00 00 00 00 00 
       00013642 00 00 00 00 00 00 00 00 00 00 
       0001364C 00 00 00 00 00 00 00 00 00 00 
       00013656 00 00 00 00 00 00 00 00 00 00 
       00013660 00 00 00 00 00 00 00 00 00 00 
       0001366A 00 00 00 00 00 00 00 00 00 00 
       00013674 00 00 00 00 00 00 00 00 00 00 
       0001367E 00 00 00 00 00 00 00 00 00 00 
       00013688 00 00 00 00 00 00 00 00 00 00 
       00013692 00 00 00 00 00 00 00 00 00 00 
       0001369C 00 00 00 00 00 00 00 00 00 00 
       000136A6 00 00 00 00 00 00 00 00 00 00 
       000136B0 00 00 00 00 00 00 00 00 00 00 
       000136BA 00 00 00 00 00 00 00 00 00 00 
       000136C4 00 00 00 00 00 00 00 00 00 00 
       000136CE 00 00 00 00 00 00 00 00 00 00 
       000136D8 00 00 00 00 00 00 00 00 00 00 
       000136E2 00 00 00 00 00 00 00 00 00 00 
       000136EC 00 00 00 00 00 00 00 00 00 00 
       000136F6 00 00 00 00 00 00 00 00 00 00 
       00013700 00 00 00 00 00 00 00 00 00 00 
       0001370A 00 00 00 00 00 00 00 00 00 00 
       00013714 00 00 00 00 00 00 00 00 00 00 
       0001371E 00 00 00 00 00 00 00 00 00 00 
       00013728 00 00 00 00 00 00 00 00 00 00 
       00013732 00 00 00 00 00 00 00 00 00 00 
       0001373C 00 00 00 00 00 00 00 00 00 00 
       00013746 00 00 00 00 00 00 00 00 00 00 
       00013750 00 00 00 00 00 00 00 00 00 00 
       0001375A 00 00 00 00 00 00 00 00 00 00 
       00013764 00 00 00 00 00 00 00 00 00 00 
       0001376E 00 00 00 00 00 00 00 00 00 00 
       00013778 00 00 00 00 00 00 00 00 00 00 
       00013782 00 00 00 00 00 00 00 00 00 00 
       0001378C 00 00 00 00 00 00 00 00 00 00 
       00013796 00 00 00 00 00 00 00 00 00 00 
       000137A0 00 00 00 00 00 00 00 00 00 00 
       000137AA 00 00 00 00 00 00 00 00 00 00 
       000137B4 00 00 00 00 00 00 00 00 00 00 
       000137BE 00 00 00 00 00 00 00 00 00 00 
       000137C8 00 00 00 00 00 00 00 00 00 00 
       000137D2 00 00 00 00 00 00 00 00 00 00 
       000137DC 00 00 00 00 00 00 00 00 00 00 
       000137E6 00 00 00 00 00 00 00 00 00 00 
       000137F0 00 00 00 00 00 00 00 00 00 00 
       000137FA 00 00 00 00 00 00 00 00 00 00 
       00013804 00 00 00 00 00 00 00 00 00 00 
       0001380E 00 00 00 00 00 00 00 00 00 00 
       00013818 00 00 00 00 00 00 00 00 00 00 
       00013822 00 00 00 00 00 00 00 00 00 00 
       0001382C 00 00 00 00 00 00 00 00 00 00 
       00013836 00 00 00 00 00 00 00 00 00 00 
       00013840 00 00 00 00 00 00 00 00 00 00 
       0001384A 00 00 00 00 00 00 00 00 00 00 
       00013854 00 00 00 00 00 00 00 00 00 00 
       0001385E 00 00 00 00 00 00 00 00 00 00 
       00013868 00 00 00 00 00 00 00 00 00 00 
       00013872 00 00 00 00 00 00 00 00 00 00 
       0001387C 00 00 00 00 00 00 00 00 00 00 
       00013886 00 00 00 00 00 00 00 00 00 00 
       00013890 00 00 00 00 00 00 00 00 00 00 
       0001389A 00 00 00 00 00 00 00 00 00 00 
       000138A4 00 00 00 00 00 00 00 00 00 00 
       000138AE 00 00 00 00 00 00 00 00 00 00 
       000138B8 00 00 00 00 00 00 00 00 00 00 
       000138C2 00 00 00 00 00 00 00 00 00 00 
       000138CC 00 00 00 00 00 00 00 00 00 00 
       000138D6 00 00 00 00 00 00 00 00 00 00 
       000138E0 00 00 00 00 00 00 00 00 00 00 
       000138EA 00 00 00 00 00 00 00 00 00 00 
       000138F4 00 00 00 00 00 00 00 00 00 00 
       000138FE 00 00 00 00 00 00 00 00 00 00 
       00013908 00 00 00 00 00 00 00 00 00 00 
       00013912 00 00 00 00 00 00 00 00 00 00 
       0001391C 00 00 00 00 00 00 00 00 00 00 
       00013926 00 00 00 00 00 00 00 00 00 00 
       00013930 00 00 00 00 00 00 00 00 00 00 
       0001393A 00 00 00 00 00 00 00 00 00 00 
       00013944 00 00 00 00 00 00 00 00 00 00 
       0001394E 00 00 00 00 00 00 00 00 00 00 
       00013958 00 00 00 00 00 00 00 00 00 00 
       00013962 00 00 00 00 00 00 00 00 00 00 
       0001396C 00 00 00 00 00 00 00 00 00 00 
       00013976 00 00 00 00 00 00 00 00 00 00 
       00013980 00 00 00 00 00 00 00 00 00 00 
       0001398A 00 00 00 00 00 00 00 00 00 00 
       00013994 00 00 00 00 00 00 00 00 00 00 
       0001399E 00 00 00 00 00 00 00 00 00 00 
       000139A8 00 00 00 00 00 00 00 00 00 00 
       000139B2 00 00 00 00 00 00 00 00 00 00 
       000139BC 00 00 00 00 00 00 00 00 00 00 
       000139C6 00 00 00 00 00 00 00 00 00 00 
       000139D0 00 00 00 00 00 00 00 00 00 00 
       000139DA 00 00 00 00 00 00 00 00 00 00 
       000139E4 00 00 00 00 00 00 00 00 00 00 
       000139EE 00 00 00 00 00 00 00 00 00 00 
       000139F8 00 00 00 00 00 00 00 00 00 00 
       00013A02 00 00 00 00 00 00 00 00 00 00 
       00013A0C 00 00 00 00 00 00 00 00 00 00 
       00013A16 00 00 00 00 00 00 00 00 00 00 
       00013A20 00 00 00 00 00 00 00 00 00 00 
       00013A2A 00 00 00 00 00 00 00 00 00 00 
       00013A34 00 00 00 00 00 00 00 00 00 00 
       00013A3E 00 00 00 00 00 00 00 00 00 00 
       00013A48 00 00 00 00 00 00 00 00 00 00 
       00013A52 00 00 00 00 00 00 00 00 00 00 
       00013A5C 00 00 00 00 00 00 00 00 00 00 
       00013A66 00 00 00 00 00 00 00 00 00 00 
       00013A70 00 00 00 00 00 00 00 00 00 00 
       00013A7A 00 00 00 00 00 00 00 00 00 00 
       00013A84 00 00 00 00 00 00 00 00 00 00 
       00013A8E 00 00 00 00 00 00 00 00 00 00 
       00013A98 00 00 00 00 00 00 00 00 00 00 
       00013AA2 00 00 00 00 00 00 00 00 00 00 
       00013AAC 00 00 00 00 00 00 00 00 00 00 
       00013AB6 00 00 00 00 00 00 00 00 00 00 
       00013AC0 00 00 00 00 00 00 00 00 00 00 
       00013ACA 00 00 00 00 00 00 00 00 00 00 
       00013AD4 00 00 00 00 00 00 00 00 00 00 
       00013ADE 00 00 00 00 00 00 00 00 00 00 
       00013AE8 00 00 00 00 00 00 00 00 00 00 
       00013AF2 00 00 00 00 00 00 00 00 00 00 
       00013AFC 00 00 00 00 00 00 00 00 00 00 
       00013B06 00 00 00 00 00 00 00 00 00 00 
       00013B10 00 00 00 00 00 00 00 00 00 00 
       00013B1A 00 00 00 00 00 00 00 00 00 00 
       00013B24 00 00 00 00 00 00 00 00 00 00 
       00013B2E 00 00 00 00 00 00 00 00 00 00 
       00013B38 00 00 00 00 00 00 00 00 00 00 
       00013B42 00 00 00 00 00 00 00 00 00 00 
       00013B4C 00 00 00 00 00 00 00 00 00 00 
       00013B56 00 00 00 00 00 00 00 00 00 00 
       00013B60 00 00 00 00 00 00 00 00 00 00 
       00013B6A 00 00 00 00 00 00 00 00 00 00 
       00013B74 00 00 00 00 00 00 00 00 00 00 
       00013B7E 00 00 00 00 00 00 00 00 00 00 
       00013B88 00 00 00 00 00 00 00 00 00 00 
       00013B92 00 00 00 00 00 00 00 00 00 00 
       00013B9C 00 00 00 00 00 00 00 00 00 00 
       00013BA6 00 00 00 00 00 00 00 00 00 00 
       00013BB0 00 00 00 00 00 00 00 00 00 00 
       00013BBA 00 00 00 00 00 00 00 00 00 00 
       00013BC4 00 00 00 00 00 00 00 00 00 00 
       00013BCE 00 00 00 00 00 00 00 00 00 00 
       00013BD8 00 00 00 00 00 00 00 00 00 00 
       00013BE2 00 00 00 00 00 00 00 00 00 00 
       00013BEC 00 00 00 00 00 00 00 00 00 00 
       00013BF6 00 00 00 00 00 00 00 00 00 00 
       00013C00 00 00 00 00 00 00 00 00 00 00 
       00013C0A 00 00 00 00 00 00 00 00 00 00 
       00013C14 00 00 00 00 00 00 00 00 00 00 
       00013C1E 00 00 00 00 00 00 00 00 00 00 
       00013C28 00 00 00 00 00 00 00 00 00 00 
       00013C32 00 00 00 00 00 00 00 00 00 00 
       00013C3C 00 00 00 00 00 00 00 00 00 00 
       00013C46 00 00 00 00 00 00 00 00 00 00 
       00013C50 00 00 00 00 00 00 00 00 00 00 
       00013C5A 00 00 00 00 00 00 00 00 00 00 
       00013C64 00 00 00 00 00 00 00 00 00 00 
       00013C6E 00 00 00 00 00 00 00 00 00 00 
       00013C78 00 00 00 00 00 00 00 00 00 00 
       00013C82 00 00 00 00 00 00 00 00 00 00 
       00013C8C 00 00 00 00 00 00 00 00 00 00 
       00013C96 00 00 00 00 00 00 00 00 00 00 
       00013CA0 00 00 00 00 00 00 00 00 00 00 
       00013CAA 00 00 00 00 00 00 00 00 00 00 
       00013CB4 00 00 00 00 00 00 00 00 00 00 
       00013CBE 00 00 00 00 00 00 00 00 00 00 
       00013CC8 00 00 00 00 00 00 00 00 00 00 
       00013CD2 00 00 00 00 00 00 00 00 00 00 
       00013CDC 00 00 00 00 00 00 00 00 00 00 
       00013CE6 00 00 00 00 00 00 00 00 00 00 
       00013CF0 00 00 00 00 00 00 00 00 00 00 
       00013CFA 00 00 00 00 00 00 00 00 00 00 
       00013D04 00 00 00 00 00 00 00 00 00 00 
       00013D0E 00 00 00 00 00 00 00 00 00 00 
       00013D18 00 00 00 00 00 00 00 00 00 00 
       00013D22 00 00 00 00 00 00 00 00 00 00 
       00013D2C 00 00 00 00 00 00 00 00 00 00 
       00013D36 00 00 00 00 00 00 00 00 00 00 
       00013D40 00 00 00 00 00 00 00 00 00 00 
       00013D4A 00 00 00 00 00 00 00 00 00 00 
       00013D54 00 00 00 00 00 00 00 00 00 00 
       00013D5E 00 00 00 00 00 00 00 00 00 00 
       00013D68 00 00 00 00 00 00 00 00 00 00 
       00013D72 00 00 00 00 00 00 00 00 00 00 
       00013D7C 00 00 00 00 00 00 00 00 00 00 
       00013D86 00 00 00 00 00 00 00 00 00 00 
       00013D90 00 00 00 00 00 00 00 00 00 00 
       00013D9A 00 00 00 00 00 00 00 00 00 00 
       00013DA4 00 00 00 00 00 00 00 00 00 00 
       00013DAE 00 00 00 00 00 00 00 00 00 00 
       00013DB8 00 00 00 00 00 00 00 00 00 00 
       00013DC2 00 00 00 00 00 00 00 00 00 00 
       00013DCC 00 00 00 00 00 00 00 00 00 00 
       00013DD6 00 00 00 00 00 00 00 00 00 00 
       00013DE0 00 00 00 00 00 00 00 00 00 00 
       00013DEA 00 00 00 00 00 00 00 00 00 00 
       00013DF4 00 00 00 00 00 00 00 00 00 00 
       00013DFE 00 00 00 00 00 00 00 00 00 00 
       00013E08 00 00 00 00 00 00 00 00 00 00 
       00013E12 00 00 00 00 00 00 00 00 00 00 
       00013E1C 00 00 00 00 00 00 00 00 00 00 
       00013E26 00 00 00 00 00 00 00 00 00 00 
       00013E30 00 00 00 00 00 00 00 00 00 00 
       00013E3A 00 00 00 00 00 00 00 00 00 00 
       00013E44 00 00 00 00 00 00 00 00 00 00 
       00013E4E 00 00 00 00 00 00 00 00 00 00 
       00013E58 00 00 00 00 00 00 00 00 00 00 
       00013E62 00 00 00 00 00 00 00 00 00 00 
       00013E6C 00 00 00 00 00 00 00 00 00 00 
       00013E76 00 00 00 00 00 00 00 00 00 00 
       00013E80 00 00 00 00 00 00 00 00 00 00 
       00013E8A 00 00 00 00 00 00 00 00 00 00 
       00013E94 00 00 00 00 00 00 00 00 00 00 
       00013E9E 00 00 00 00 00 00 00 00 00 00 
       00013EA8 00 00 00 00 00 00 00 00 00 00 
       00013EB2 00 00 00 00 00 00 00 00 00 00 
       00013EBC 00 00 00 00 00 00 00 00 00 00 
       00013EC6 00 00 00 00 00 00 00 00 00 00 
       00013ED0 00 00 00 00 00 00 00 00 00 00 
       00013EDA 00 00 00 00 00 00 00 00 00 00 
       00013EE4 00 00 00 00 00 00 00 00 00 00 
       00013EEE 00 00 00 00 00 00 00 00 00 00 
       00013EF8 00 00 00 00 00 00 00 00 00 00 
       00013F02 00 00 00 00 00 00 00 00 00 00 
       00013F0C 00 00 00 00 00 00 00 00 00 00 
       00013F16 00 00 00 00 00 00 00 00 00 00 
       00013F20 00 00 00 00 00 00 00 00 00 00 
       00013F2A 00 00 00 00 00 00 00 00 00 00 
       00013F34 00 00 00 00 00 00 00 00 00 00 
       00013F3E 00 00 00 00 00 00 00 00 00 00 
       00013F48 00 00 00 00 00 00 00 00 00 00 
       00013F52 00 00 00 00 00 00 00 00 00 00 
       00013F5C 00 00 00 00 00 00 00 00 00 00 
       00013F66 00 00 00 00 00 00 00 00 00 00 
       00013F70 00 00 00 00 00 00 00 00 00 00 
       00013F7A 00 00 00 00 00 00 00 00 00 00 
       00013F84 00 00 00 00 00 00 00 00 00 00 
       00013F8E 00 00 00 00 00 00 00 00 00 00 
       00013F98 00 00 00 00 00 00 00 00 00 00 
       00013FA2 00 00 00 00 00 00 00 00 00 00 
       00013FAC 00 00 00 00 00 00 00 00 00 00 
       00013FB6 00 00 00 00 00 00 00 00 00 00 
       00013FC0 00 00 00 00 00 00 00 00 00 00 
       00013FCA 00 00 00 00 00 00 00 00 00 00 
       00013FD4 00 00 00 00 00 00 00 00 00 00 
       00013FDE 00 00 00 00 00 00 00 00 00 00 
       00013FE8 00 00 00 00 00 00 00 00 00 00 
       00013FF2 00 00 00 00 00 00 00 00 00 00 
       00013FFC 00 00 00 00 00 00 00 00 00 00 
       00014006 00 00 00 00 00 00 00 00 00 00 
       00014010 00 00 00 00 00 00 00 00 00 00 
       0001401A 00 00 00 00 00 00 00 00 00 00 
       00014024 00 00 00 00 00 00 00 00 00 00 
       0001402E 00 00 00 00 00 00 00 00 00 00 
       00014038 00 00 00 00 00 00 00 00 00 00 
       00014042 00 00 00 00 00 00 00 00 00 00 
       0001404C 00 00 00 00 00 00 00 00 00 00 
       00014056 00 00 00 00 00 00 00 00 00 00 
       00014060 00 00 00 00 00 00 00 00 00 00 
       0001406A 00 00 00 00 00 00 00 00 00 00 
       00014074 00 00 00 00 00 00 00 00 00 00 
       0001407E 00 00 00 00 00 00 00 00 00 00 
       00014088 00 00 00 00 00 00 00 00 00 00 
       00014092 00 00 00 00 00 00 00 00 00 00 
       0001409C 00 00 00 00 00 00 00 00 00 00 
       000140A6 00 00 00 00 00 00 00 00 00 00 
       000140B0 00 00 00 00 00 00 00 00 00 00 
       000140BA 00 00 00 00 00 00 00 00 00 00 
       000140C4 00 00 00 00 00 00 00 00 00 00 
       000140CE 00 00 00 00 00 00 00 00 00 00 
       000140D8 00 00 00 00 00 00 00 00 00 00 
       000140E2 00 00 00 00 00 00 00 00 00 00 
       000140EC 00 00 00 00 00 00 00 00 00 00 
       000140F6 00 00 00 00 00 00 00 00 00 00 
       00014100 00 00 00 00 00 00 00 00 00 00 
       0001410A 00 00 00 00 00 00 00 00 00 00 
       00014114 00 00 00 00 00 00 00 00 00 00 
       0001411E 00 00 00 00 00 00 00 00 00 00 
       00014128 00 00 00 00 00 00 00 00 00 00 
       00014132 00 00 00 00 00 00 00 00 00 00 
       0001413C 00 00 00 00 00 00 00 00 00 00 
       00014146 00 00 00 00 00 00 00 00 00 00 
       00014150 00 00 00 00 00 00 00 00 00 00 
       0001415A 00 00 00 00 00 00 00 00 00 00 
       00014164 00 00 00 00 00 00 00 00 00 00 
       0001416E 00 00 00 00 00 00 00 00 00 00 
       00014178 00 00 00 00 00 00 00 00 00 00 
       00014182 00 00 00 00 00 00 00 00 00 00 
       0001418C 00 00 00 00 00 00 00 00 00 00 
       00014196 00 00 00 00 00 00 00 00 00 00 
       000141A0 00 00 00 00 00 00 00 00 00 00 
       000141AA 00 00 00 00 00 00 00 00 00 00 
       000141B4 00 00 00 00 00 00 00 00 00 00 
       000141BE 00 00 00 00 00 00 00 00 00 00 
       000141C8 00 00 00 00 00 00 00 00 00 00 
       000141D2 00 00 00 00 00 00 00 00 00 00 
       000141DC 00 00 00 00 00 00 00 00 00 00 
       000141E6 00 00 00 00 00 00 00 00 00 00 
       000141F0 00 00 00 00 00 00 00 00 00 00 
       000141FA 00 00 00 00 00 00 00 00 00 00 
       00014204 00 00 00 00 00 00 00 00 00 00 
       0001420E 00 00 00 00 00 00 00 00 00 00 
       00014218 00 00 00 00 00 00 00 00 00 00 
       00014222 00 00 00 00 00 00 00 00 00 00 
       0001422C 00 00 00 00 00 00 00 00 00 00 
       00014236 00 00 00 00 00 00 00 00 00 00 
       00014240 00 00 00 00 00 00 00 00 00 00 
       0001424A 00 00 00 00 00 00 00 00 00 00 
       00014254 00 00 00 00 00 00 00 00 00 00 
       0001425E 00 00 00 00 00 00 00 00 00 00 
       00014268 00 00 00 00 00 00 00 00 00 00 
       00014272 00 00 00 00 00 00 00 00 00 00 
       0001427C 00 00 00 00 00 00 00 00 00 00 
       00014286 00 00 00 00 00 00 00 00 00 00 
       00014290 00 00 00 00 00 00 00 00 00 00 
       0001429A 00 00 00 00 00 00 00 00 00 00 
       000142A4 00 00 00 00 00 00 00 00 00 00 
       000142AE 00 00 00 00 00 00 00 00 00 00 
       000142B8 00 00 00 00 00 00 00 00 00 00 
       000142C2 00 00 00 00 00 00 00 00 00 00 
       000142CC 00 00 00 00 00 00 00 00 00 00 
       000142D6 00 00 00 00 00 00 00 00 00 00 
       000142E0 00 00 00 00 00 00 00 00 00 00 
       000142EA 00 00 00 00 00 00 00 00 00 00 
       000142F4 00 00 00 00 00 00 00 00 00 00 
       000142FE 00 00 00 00 00 00 00 00 00 00 
       00014308 00 00 00 00 00 00 00 00 00 00 
       00014312 00 00 00 00 00 00 00 00 00 00 
       0001431C 00 00 00 00 00 00 00 00 00 00 
       00014326 00 00 00 00 00 00 00 00 00 00 
       00014330 00 00 00 00 00 00 00 00 00 00 
       0001433A 00 00 00 00 00 00 00 00 00 00 
       00014344 00 00 00 00 00 00 00 00 00 00 
       0001434E 00 00 00 00 00 00 00 00 00 00 
       00014358 00 00 00 00 00 00 00 00 00 00 
       00014362 00 00 00 00 00 00 00 00 00 00 
       0001436C 00 00 00 00 00 00 00 00 00 00 
       00014376 00 00 00 00 00 00 00 00 00 00 
       00014380 00 00 00 00 00 00 00 00 00 00 
       0001438A 00 00 00 00 00 00 00 00 00 00 
       00014394 00 00 00 00 00 00 00 00 00 00 
       0001439E 00 00 00 00 00 00 00 00 00 00 
       000143A8 00 00 00 00 00 00 00 00 00 00 
       000143B2 00 00 00 00 00 00 00 00 00 00 
       000143BC 00 00 00 00 00 00 00 00 00 00 
       000143C6 00 00 00 00 00 00 00 00 00 00 
       000143D0 00 00 00 00 00 00 00 00 00 00 
       000143DA 00 00 00 00 00 00 00 00 00 00 
       000143E4 00 00 00 00 00 00 00 00 00 00 
       000143EE 00 00 00 00 00 00 00 00 00 00 
       000143F8 00 00 00 00 00 00 00 00 00 00 
       00014402 00 00 00 00 00 00 00 00 00 00 
       0001440C 00 00 00 00 00 00 00 00 00 00 
       00014416 00 00 00 00 00 00 00 00 00 00 
       00014420 00 00 00 00 00 00 00 00 00 00 
       0001442A 00 00 00 00 00 00 00 00 00 00 
       00014434 00 00 00 00 00 00 00 00 00 00 
       0001443E 00 00 00 00 00 00 00 00 00 00 
       00014448 00 00 00 00 00 00 00 00 00 00 
       00014452 00 00 00 00 00 00 00 00 00 00 
       0001445C 00 00 00 00 00 00 00 00 00 00 
       00014466 00 00 00 00 00 00 00 00 00 00 
       00014470 00 00 00 00 00 00 00 00 00 00 
       0001447A 00 00 00 00 00 00 00 00 00 00 
       00014484 00 00 00 00 00 00 00 00 00 00 
       0001448E 00 00 00 00 00 00 00 00 00 00 
       00014498 00 00 00 00 00 00 00 00 00 00 
       000144A2 00 00 00 00 00 00 00 00 00 00 
       000144AC 00 00 00 00 00 00 00 00 00 00 
       000144B6 00 00 00 00 00 00 00 00 00 00 
       000144C0 00 00 00 00 00 00 00 00 00 00 
       000144CA 00 00 00 00 00 00 00 00 00 00 
       000144D4 00 00 00 00 00 00 00 00 00 00 
       000144DE 00 00 00 00 00 00 00 00 00 00 
       000144E8 00 00 00 00 00 00 00 00 00 00 
       000144F2 00 00 00 00 00 00 00 00 00 00 
       000144FC 00 00 00 00 00 00 00 00 00 00 
       00014506 00 00 00 00 00 00 00 00 00 00 
       00014510 00 00 00 00 00 00 00 00 00 00 
       0001451A 00 00 00 00 00 00 00 00 00 00 
       00014524 00 00 00 00 00 00 00 00 00 00 
       0001452E 00 00 00 00 00 00 00 00 00 00 
       00014538 00 00 00 00 00 00 00 00 00 00 
       00014542 00 00 00 00 00 00 00 00 00 00 
       0001454C 00 00 00 00 00 00 00 00 00 00 
       00014556 00 00 00 00 00 00 00 00 00 00 
       00014560 00 00 00 00 00 00 00 00 00 00 
       0001456A 00 00 00 00 00 00 00 00 00 00 
       00014574 00 00 00 00 00 00 00 00 00 00 
       0001457E 00 00 00 00 00 00 00 00 00 00 
       00014588 00 00 00 00 00 00 00 00 00 00 
       00014592 00 00 00 00 00 00 00 00 00 00 
       0001459C 00 00 00 00 00 00 00 00 00 00 
       000145A6 00 00 00 00 00 00 00 00 00 00 
       000145B0 00 00 00 00 00 00 00 00 00 00 
       000145BA 00 00 00 00 00 00 00 00 00 00 
       000145C4 00 00 00 00 00 00 00 00 00 00 
       000145CE 00 00 00 00 00 00 00 00 00 00 
       000145D8 00 00 00 00 00 00 00 00 00 00 
       000145E2 00 00 00 00 00 00 00 00 00 00 
       000145EC 00 00 00 00 00 00 00 00 00 00 
       000145F6 00 00 00 00 00 00 00 00 00 00 
       00014600 00 00 00 00 00 00 00 00 00 00 
       0001460A 00 00 00 00 00 00 00 00 00 00 
       00014614 00 00 00 00 00 00 00 00 00 00 
       0001461E 00 00 00 00 00 00 00 00 00 00 
       00014628 00 00 00 00 00 00 00 00 00 00 
       00014632 00 00 00 00 00 00 00 00 00 00 
       0001463C 00 00 00 00 00 00 00 00 00 00 
       00014646 00 00 00 00 00 00 00 00 00 00 
       00014650 00 00 00 00 00 00 00 00 00 00 
       0001465A 00 00 00 00 00 00 00 00 00 00 
       00014664 00 00 00 00 00 00 00 00 00 00 
       0001466E 00 00 00 00 00 00 00 00 00 00 
       00014678 00 00 00 00 00 00 00 00 00 00 
       00014682 00 00 00 00 00 00 00 00 00 00 
       0001468C 00 00 00 00 00 00 00 00 00 00 
       00014696 00 00 00 00 00 00 00 00 00 00 
       000146A0 00 00 00 00 00 00 00 00 00 00 
       000146AA 00 00 00 00 00 00 00 00 00 00 
       000146B4 00 00 00 00 00 00 00 00 00 00 
       000146BE 00 00 00 00 00 00 00 00 00 00 
       000146C8 00 00 00 00 00 00 00 00 00 00 
       000146D2 00 00 00 00 00 00 00 00 00 00 
       000146DC 00 00 00 00 00 00 00 00 00 00 
       000146E6 00 00 00 00 00 00 00 00 00 00 
       000146F0 00 00 00 00 00 00 00 00 00 00 
       000146FA 00 00 00 00 00 00 00 00 00 00 
       00014704 00 00 00 00 00 00 00 00 00 00 
       0001470E 00 00 00 00 00 00 00 00 00 00 
       00014718 00 00 00 00 00 00 00 00 00 00 
       00014722 00 00 00 00 00 00 00 00 00 00 
       0001472C 00 00 00 00 00 00 00 00 00 00 
       00014736 00 00 00 00 00 00 00 00 00 00 
       00014740 00 00 00 00 00 00 00 00 00 00 
       0001474A 00 00 00 00 00 00 00 00 00 00 
       00014754 00 00 00 00 00 00 00 00 00 00 
       0001475E 00 00 00 00 00 00 00 00 00 00 
       00014768 00 00 00 00 00 00 00 00 00 00 
       00014772 00 00 00 00 00 00 00 00 00 00 
       0001477C 00 00 00 00 00 00 00 00 00 00 
       00014786 00 00 00 00 00 00 00 00 00 00 
       00014790 00 00 00 00 00 00 00 00 00 00 
       0001479A 00 00 00 00 00 00 00 00 00 00 
       000147A4 00 00 00 00 00 00 00 00 00 00 
       000147AE 00 00 00 00 00 00 00 00 00 00 
       000147B8 00 00 00 00 00 00 00 00 00 00 
       000147C2 00 00 00 00 00 00 00 00 00 00 
       000147CC 00 00 00 00 00 00 00 00 00 00 
       000147D6 00 00 00 00 00 00 00 00 00 00 
       000147E0 00 00 00 00 00 00 00 00 00 00 
       000147EA 00 00 00 00 00 00 00 00 00 00 
       000147F4 00 00 00 00 00 00 00 00 00 00 
       000147FE 00 00 00 00 00 00 00 00 00 00 
       00014808 00 00 00 00 00 00 00 00 00 00 
       00014812 00 00 00 00 00 00 00 00 00 00 
       0001481C 00 00 00 00 00 00 00 00 00 00 
       00014826 00 00 00 00 00 00 00 00 00 00 
       00014830 00 00 00 00 00 00 00 00 00 00 
       0001483A 00 00 00 00 00 00 00 00 00 00 
       00014844 00 00 00 00 00 00 00 00 00 00 
       0001484E 00 00 00 00 00 00 00 00 00 00 
       00014858 00 00 00 00 00 00 00 00 00 00 
       00014862 00 00 00 00 00 00 00 00 00 00 
       0001486C 00 00 00 00 00 00 00 00 00 00 
       00014876 00 00 00 00 00 00 00 00 00 00 
       00014880 00 00 00 00 00 00 00 00 00 00 
       0001488A 00 00 00 00 00 00 00 00 00 00 
       00014894 00 00 00 00 00 00 00 00 00 00 
       0001489E 00 00 00 00 00 00 00 00 00 00 
       000148A8 00 00 00 00 00 00 00 00 00 00 
       000148B2 00 00 00 00 00 00 00 00 00 00 
       000148BC 00 00 00 00 00 00 00 00 00 00 
       000148C6 00 00 00 00 00 00 00 00 00 00 
       000148D0 00 00 00 00 00 00 00 00 00 00 
       000148DA 00 00 00 00 00 00 00 00 00 00 
       000148E4 00 00 00 00 00 00 00 00 00 00 
       000148EE 00 00 00 00 00 00 00 00 00 00 
       000148F8 00 00 00 00 00 00 00 00 00 00 
       00014902 00 00 00 00 00 00 00 00 00 00 
       0001490C 00 00 00 00 00 00 00 00 00 00 
       00014916 00 00 00 00 00 00 00 00 00 00 
       00014920 00 00 00 00 00 00 00 00 00 00 
       0001492A 00 00 00 00 00 00 00 00 00 00 
       00014934 00 00 00 00 00 00 00 00 00 00 
       0001493E 00 00 00 00 00 00 00 00 00 00 
       00014948 00 00 00 00 00 00 00 00 00 00 
       00014952 00 00 00 00 00 00 00 00 00 00 
       0001495C 00 00 00 00 00 00 00 00 00 00 
       00014966 00 00 00 00 00 00 00 00 00 00 
       00014970 00 00 00 00 00 00 00 00 00 00 
       0001497A 00 00 00 00 00 00 00 00 00 00 
       00014984 00 00 00 00 00 00 00 00 00 00 
       0001498E 00 00 00 00 00 00 00 00 00 00 
       00014998 00 00 00 00 00 00 00 00 00 00 
       000149A2 00 00 00 00 00 00 00 00 00 00 
       000149AC 00 00 00 00 00 00 00 00 00 00 
       000149B6 00 00 00 00 00 00 00 00 00 00 
       000149C0 00 00 00 00 00 00 00 00 00 00 
       000149CA 00 00 00 00 00 00 00 00 00 00 
       000149D4 00 00 00 00 00 00 00 00 00 00 
       000149DE 00 00 00 00 00 00 00 00 00 00 
       000149E8 00 00 00 00 00 00 00 00 00 00 
       000149F2 00 00 00 00 00 00 00 00 00 00 
       000149FC 00 00 00 00 00 00 00 00 00 00 
       00014A06 00 00 00 00 00 00 00 00 00 00 
       00014A10 00 00 00 00 00 00 00 00 00 00 
       00014A1A 00 00 00 00 00 00 00 00 00 00 
       00014A24 00 00 00 00 00 00 00 00 00 00 
       00014A2E 00 00 00 00 00 00 00 00 00 00 
       00014A38 00 00 00 00 00 00 00 00 00 00 
       00014A42 00 00 00 00 00 00 00 00 00 00 
       00014A4C 00 00 00 00 00 00 00 00 00 00 
       00014A56 00 00 00 00 00 00 00 00 00 00 
       00014A60 00 00 00 00 00 00 00 00 00 00 
       00014A6A 00 00 00 00 00 00 00 00 00 00 
       00014A74 00 00 00 00 00 00 00 00 00 00 
       00014A7E 00 00 00 00 00 00 00 00 00 00 
       00014A88 00 00 00 00 00 00 00 00 00 00 
       00014A92 00 00 00 00 00 00 00 00 00 00 
       00014A9C 00 00 00 00 00 00 00 00 00 00 
       00014AA6 00 00 00 00 00 00 00 00 00 00 
       00014AB0 00 00 00 00 00 00 00 00 00 00 
       00014ABA 00 00 00 00 00 00 00 00 00 00 
       00014AC4 00 00 00 00 00 00 00 00 00 00 
       00014ACE 00 00 00 00 00 00 00 00 00 00 
       00014AD8 00 00 00 00 00 00 00 00 00 00 
       00014AE2 00 00 00 00 00 00 00 00 00 00 
       00014AEC 00 00 00 00 00 00 00 00 00 00 
       00014AF6 00 00 00 00 00 00 00 00 00 00 
       00014B00 00 00 00 00 00 00 00 00 00 00 
       00014B0A 00 00 00 00 00 00 00 00 00 00 
       00014B14 00 00 00 00 00 00 00 00 00 00 
       00014B1E 00 00 00 00 00 00 00 00 00 00 
       00014B28 00 00 00 00 00 00 00 00 00 00 
       00014B32 00 00 00 00 00 00 00 00 00 00 
       00014B3C 00 00 00 00 00 00 00 00 00 00 
       00014B46 00 00 00 00 00 00 00 00 00 00 
       00014B50 00 00 00 00 00 00 00 00 00 00 
       00014B5A 00 00 00 00 00 00 00 00 00 00 
       00014B64 00 00 00 00 00 00 00 00 00 00 
       00014B6E 00 00 00 00 00 00 00 00 00 00 
       00014B78 00 00 00 00 00 00 00 00 00 00 
       00014B82 00 00 00 00 00 00 00 00 00 00 
       00014B8C 00 00 00 00 00 00 00 00 00 00 
       00014B96 00 00 00 00 00 00 00 00 00 00 
       00014BA0 00 00 00 00 00 00 00 00 00 00 
       00014BAA 00 00 00 00 00 00 00 00 00 00 
       00014BB4 00 00 00 00 00 00 00 00 00 00 
       00014BBE 00 00 00 00 00 00 00 00 00 00 
       00014BC8 00 00 00 00 00 00 00 00 00 00 
       00014BD2 00 00 00 00 00 00 00 00 00 00 
       00014BDC 00 00 00 00 00 00 00 00 00 00 
       00014BE6 00 00 00 00 00 00 00 00 00 00 
       00014BF0 00 00 00 00 00 00 00 00 00 00 
       00014BFA 00 00 00 00 00 00 00 00 00 00 
       00014C04 00 00 00 00 00 00 00 00 00 00 
       00014C0E 00 00 00 00 00 00 00 00 00 00 
       00014C18 00 00 00 00 00 00 00 00 00 00 
       00014C22 00 00 00 00 00 00 00 00 00 00 
       00014C2C 00 00 00 00 00 00 00 00 00 00 
       00014C36 00 00 00 00 00 00 00 00 00 00 
       00014C40 00 00 00 00 00 00 00 00 00 00 
       00014C4A 00 00 00 00 00 00 00 00 00 00 
       00014C54 00 00 00 00 00 00 00 00 00 00 
       00014C5E 00 00 00 00 00 00 00 00 00 00 
       00014C68 00 00 00 00 00 00 00 00 00 00 
       00014C72 00 00 00 00 00 00 00 00 00 00 
       00014C7C 00 00 00 00 00 00 00 00 00 00 
       00014C86 00 00 00 00 00 00 00 00 00 00 
       00014C90 00 00 00 00 00 00 00 00 00 00 
       00014C9A 00 00 00 00 00 00 00 00 00 00 
       00014CA4 00 00 00 00 00 00 00 00 00 00 
       00014CAE 00 00 00 00 00 00 00 00 00 00 
       00014CB8 00 00 00 00 00 00 00 00 00 00 
       00014CC2 00 00 00 00 00 00 00 00 00 00 
       00014CCC 00 00 00 00 00 00 00 00 00 00 
       00014CD6 00 00 00 00 00 00 00 00 00 00 
       00014CE0 00 00 00 00 00 00 00 00 00 00 
       00014CEA 00 00 00 00 00 00 00 00 00 00 
       00014CF4 00 00 00 00 00 00 00 00 00 00 
       00014CFE 00 00 00 00 00 00 00 00 00 00 
       00014D08 00 00 00 00 00 00 00 00 00 00 
       00014D12 00 00 00 00 00 00 00 00 00 00 
       00014D1C 00 00 00 00 00 00 00 00 00 00 
       00014D26 00 00 00 00 00 00 00 00 00 00 
       00014D30 00 00 00 00 00 00 00 00 00 00 
       00014D3A 00 00 00 00 00 00 00 00 00 00 
       00014D44 00 00 00 00 00 00 00 00 00 00 
       00014D4E 00 00 00 00 00 00 00 00 00 00 
       00014D58 00 00 00 00 00 00 00 00 00 00 
       00014D62 00 00 00 00 00 00 00 00 00 00 
       00014D6C 00 00 00 00 00 00 00 00 00 00 
       00014D76 00 00 00 00 00 00 00 00 00 00 
       00014D80 00 00 00 00 00 00 00 00 00 00 
       00014D8A 00 00 00 00 00 00 00 00 00 00 
       00014D94 00 00 00 00 00 00 00 00 00 00 
       00014D9E 00 00 00 00 00 00 00 00 00 00 
       00014DA8 00 00 00 00 00 00 00 00 00 00 
       00014DB2 00 00 00 00 00 00 00 00 00 00 
       00014DBC 00 00 00 00 00 00 00 00 00 00 
       00014DC6 00 00 00 00 00 00 00 00 00 00 
       00014DD0 00 00 00 00 00 00 00 00 00 00 
       00014DDA 00 00 00 00 00 00 00 00 00 00 
       00014DE4 00 00 00 00 00 00 00 00 00 00 
       00014DEE 00 00 00 00 00 00 00 00 00 00 
       00014DF8 00 00 00 00 00 00 00 00 00 00 
       00014E02 00 00 00 00 00 00 00 00 00 00 
       00014E0C 00 00 00 00 00 00 00 00 00 00 
       00014E16 00 00 00 00 00 00 00 00 00 00 
       00014E20 00 00 00 00 00 00 00 00 00 00 
       00014E2A 00 00 00 00 00 00 00 00 00 00 
       00014E34 00 00 00 00 00 00 00 00 00 00 
       00014E3E 00 00 00 00 00 00 00 00 00 00 
       00014E48 00 00 00 00 00 00 00 00 00 00 
       00014E52 00 00 00 00 00 00 00 00 00 00 
       00014E5C 00 00 00 00 00 00 00 00 00 00 
       00014E66 00 00 00 00 00 00 00 00 00 00 
       00014E70 00 00 00 00 00 00 00 00 00 00 
       00014E7A 00 00 00 00 00 00 00 00 00 00 
       00014E84 00 00 00 00 00 00 00 00 00 00 
       00014E8E 00 00 00 00 00 00 00 00 00 00 
       00014E98 00 00 00 00 00 00 00 00 00 00 
       00014EA2 00 00 00 00 00 00 00 00 00 00 
       00014EAC 00 00 00 00 00 00 00 00 00 00 
       00014EB6 00 00 00 00 00 00 00 00 00 00 
       00014EC0 00 00 00 00 00 00 00 00 00 00 
       00014ECA 00 00 00 00 00 00 00 00 00 00 
       00014ED4 00 00 00 00 00 00 00 00 00 00 
       00014EDE 00 00 00 00 00 00 00 00 00 00 
       00014EE8 00 00 00 00 00 00 00 00 00 00 
       00014EF2 00 00 00 00 00 00 00 00 00 00 
       00014EFC 00 00 00 00 00 00 00 00 00 00 
       00014F06 00 00 00 00 00 00 00 00 00 00 
       00014F10 00 00 00 00 00 00 00 00 00 00 
       00014F1A 00 00 00 00 00 00 00 00 00 00 
       00014F24 00 00 00 00 00 00 00 00 00 00 
       00014F2E 00 00 00 00 00 00 00 00 00 00 
       00014F38 00 00 00 00 00 00 00 00 00 00 
       00014F42 00 00 00 00 00 00 00 00 00 00 
       00014F4C 00 00 00 00 00 00 00 00 00 00 
       00014F56 00 00 00 00 00 00 00 00 00 00 
       00014F60 00 00 00 00 00 00 00 00 00 00 
       00014F6A 00 00 00 00 00 00 00 00 00 00 
       00014F74 00 00 00 00 00 00 00 00 00 00 
       00014F7E 00 00 00 00 00 00 00 00 00 00 
       00014F88 00 00 00 00 00 00 00 00 00 00 
       00014F92 00 00 00 00 00 00 00 00 00 00 
       00014F9C 00 00 00 00 00 00 00 00 00 00 
       00014FA6 00 00 00 00 00 00 00 00 00 00 
       00014FB0 00 00 00 00 00 00 00 00 00 00 
       00014FBA 00 00 00 00 00 00 00 00 00 00 
       00014FC4 00 00 00 00 00 00 00 00 00 00 
       00014FCE 00 00 00 00 00 00 00 00 00 00 
       00014FD8 00 00 00 00 00 00 00 00 00 00 
       00014FE2 00 00 00 00 00 00 00 00 00 00 
       00014FEC 00 00 00 00 00 00 00 00 00 00 
       00014FF6 00 00 00 00 00 00 00 00 00 00 
       00015000 00 00 00 00 00 00 00 00 00 00 
       0001500A 00 00 00 00 00 00 00 00 00 00 
       00015014 00 00 00 00 00 00 00 00 00 00 
       0001501E 00 00 00 00 00 00 00 00 00 00 
       00015028 00 00 00 00 00 00 00 00 00 00 
       00015032 00 00 00 00 00 00 00 00 00 00 
       0001503C 00 00 00 00 00 00 00 00 00 00 
       00015046 00 00 00 00 00 00 00 00 00 00 
       00015050 00 00 00 00 00 00 00 00 00 00 
       0001505A 00 00 00 00 00 00 00 00 00 00 
       00015064 00 00 00 00 00 00 00 00 00 00 
       0001506E 00 00 00 00 00 00 00 00 00 00 
       00015078 00 00 00 00 00 00 00 00 00 00 
       00015082 00 00 00 00 00 00 00 00 00 00 
       0001508C 00 00 00 00 00 00 00 00 00 00 
       00015096 00 00 00 00 00 00 00 00 00 00 
       000150A0 00 00 00 00 00 00 00 00 00 00 
       000150AA 00 00 00 00 00 00 00 00 00 00 
       000150B4 00 00 00 00 00 00 00 00 00 00 
       000150BE 00 00 00 00 00 00 00 00 00 00 
       000150C8 00 00 00 00 00 00 00 00 00 00 
       000150D2 00 00 00 00 00 00 00 00 00 00 
       000150DC 00 00 00 00 00 00 00 00 00 00 
       000150E6 00 00 00 00 00 00 00 00 00 00 
       000150F0 00 00 00 00 00 00 00 00 00 00 
       000150FA 00 00 00 00 00 00 00 00 00 00 
       00015104 00 00 00 00 00 00 00 00 00 00 
       0001510E 00 00 00 00 00 00 00 00 00 00 
       00015118 00 00 00 00 00 00 00 00 00 00 
       00015122 00 00 00 00 00 00 00 00 00 00 
       0001512C 00 00 00 00 00 00 00 00 00 00 
       00015136 00 00 00 00 00 00 00 00 00 00 
       00015140 00 00 00 00 00 00 00 00 00 00 
       0001514A 00 00 00 00 00 00 00 00 00 00 
       00015154 00 00 00 00 00 00 00 00 00 00 
       0001515E 00 00 00 00 00 00 00 00 00 00 
       00015168 00 00 00 00 00 00 00 00 00 00 
       00015172 00 00 00 00 00 00 00 00 00 00 
       0001517C 00 00 00 00 00 00 00 00 00 00 
       00015186 00 00 00 00 00 00 00 00 00 00 
       00015190 00 00 00 00 00 00 00 00 00 00 
       0001519A 00 00 00 00 00 00 00 00 00 00 
       000151A4 00 00 00 00 00 00 00 00 00 00 
       000151AE 00 00 00 00 00 00 00 00 00 00 
       000151B8 00 00 00 00 00 00 00 00 00 00 
       000151C2 00 00 00 00 00 00 00 00 00 00 
       000151CC 00 00 00 00 00 00 00 00 00 00 
       000151D6 00 00 00 00 00 00 00 00 00 00 
       000151E0 00 00 00 00 00 00 00 00 00 00 
       000151EA 00 00 00 00 00 00 00 00 00 00 
       000151F4 00 00 00 00 00 00 00 00 00 00 
       000151FE 00 00 00 00 00 00 00 00 00 00 
       00015208 00 00 00 00 00 00 00 00 00 00 
       00015212 00 00 00 00 00 00 00 00 00 00 
       0001521C 00 00 00 00 00 00 00 00 00 00 
       00015226 00 00 00 00 00 00 00 00 00 00 
       00015230 00 00 00 00 00 00 00 00 00 00 
       0001523A 00 00 00 00 00 00 00 00 00 00 
       00015244 00 00 00 00 00 00 00 00 00 00 
       0001524E 00 00 00 00 00 00 00 00 00 00 
       00015258 00 00 00 00 00 00 00 00 00 00 
       00015262 00 00 00 00 00 00 00 00 00 00 
       0001526C 00 00 00 00 00 00 00 00 00 00 
       00015276 00 00 00 00 00 00 00 00 00 00 
       00015280 00 00 00 00 00 00 00 00 00 00 
       0001528A 00 00 00 00 00 00 00 00 00 00 
       00015294 00 00 00 00 00 00 00 00 00 00 
       0001529E 00 00 00 00 00 00 00 00 00 00 
       000152A8 00 00 00 00 00 00 00 00 00 00 
       000152B2 00 00 00 00 00 00 00 00 00 00 
       000152BC 00 00 00 00 00 00 00 00 00 00 
       000152C6 00 00 00 00 00 00 00 00 00 00 
       000152D0 00 00 00 00 00 00 00 00 00 00 
       000152DA 00 00 00 00 00 00 00 00 00 00 
       000152E4 00 00 00 00 00 00 00 00 00 00 
       000152EE 00 00 00 00 00 00 00 00 00 00 
       000152F8 00 00 00 00 00 00 00 00 00 00 
       00015302 00 00 00 00 00 00 00 00 00 00 
       0001530C 00 00 00 00 00 00 00 00 00 00 
       00015316 00 00 00 00 00 00 00 00 00 00 
       00015320 00 00 00 00 00 00 00 00 00 00 
       0001532A 00 00 00 00 00 00 00 00 00 00 
       00015334 00 00 00 00 00 00 00 00 00 00 
       0001533E 00 00 00 00 00 00 00 00 00 00 
       00015348 00 00 00 00 00 00 00 00 00 00 
       00015352 00 00 00 00 00 00 00 00 00 00 
       0001535C 00 00 00 00 00 00 00 00 00 00 
       00015366 00 00 00 00 00 00 00 00 00 00 
       00015370 00 00 00 00 00 00 00 00 00 00 
       0001537A 00 00 00 00 00 00 00 00 00 00 
       00015384 00 00 00 00 00 00 00 00 00 00 
       0001538E 00 00 00 00 00 00 00 00 00 00 
       00015398 00 00 00 00 00 00 00 00 00 00 
       000153A2 00 00 00 00 00 00 00 00 00 00 
       000153AC 00 00 00 00 00 00 00 00 00 00 
       000153B6 00 00 00 00 00 00 00 00 00 00 
       000153C0 00 00 00 00 00 00 00 00 00 00 
       000153CA 00 00 00 00 00 00 00 00 00 00 
       000153D4 00 00 00 00 00 00 00 00 00 00 
       000153DE 00 00 00 00 00 00 00 00 00 00 
       000153E8 00 00 00 00 00 00 00 00 00 00 
       000153F2 00 00 00 00 00 00 00 00 00 00 
       000153FC 00 00 00 00 00 00 00 00 00 00 
       00015406 00 00 00 00 00 00 00 00 00 00 
       00015410 00 00 00 00 00 00 00 00 00 00 
       0001541A 00 00 00 00 00 00 00 00 00 00 
       00015424 00 00 00 00 00 00 00 00 00 00 
       0001542E 00 00 00 00 00 00 00 00 00 00 
       00015438 00 00 00 00 00 00 00 00 00 00 
       00015442 00 00 00 00 00 00 00 00 00 00 
       0001544C 00 00 00 00 00 00 00 00 00 00 
       00015456 00 00 00 00 00 00 00 00 00 00 
       00015460 00 00 00 00 00 00 00 00 00 00 
       0001546A 00 00 00 00 00 00 00 00 00 00 
       00015474 00 00 00 00 00 00 00 00 00 00 
       0001547E 00 00 00 00 00 00 00 00 00 00 
       00015488 00 00 00 00 00 00 00 00 00 00 
       00015492 00 00 00 00 00 00 00 00 00 00 
       0001549C 00 00 00 00 00 00 00 00 00 00 
       000154A6 00 00 00 00 00 00 00 00 00 00 
       000154B0 00 00 00 00 00 00 00 00 00 00 
       000154BA 00 00 00 00 00 00 00 00 00 00 
       000154C4 00 00 00 00 00 00 00 00 00 00 
       000154CE 00 00 00 00 00 00 00 00 00 00 
       000154D8 00 00 00 00 00 00 00 00 00 00 
       000154E2 00 00 00 00 00 00 00 00 00 00 
       000154EC 00 00 00 00 00 00 00 00 00 00 
       000154F6 00 00 00 00 00 00 00 00 00 00 
       00015500 00 00 00 00 00 00 00 00 00 00 
       0001550A 00 00 00 00 00 00 00 00 00 00 
       00015514 00 00 00 00 00 00 00 00 00 00 
       0001551E 00 00 00 00 00 00 00 00 00 00 
       00015528 00 00 00 00 00 00 00 00 00 00 
       00015532 00 00 00 00 00 00 00 00 00 00 
       0001553C 00 00 00 00 00 00 00 00 00 00 
       00015546 00 00 00 00 00 00 00 00 00 00 
       00015550 00 00 00 00 00 00 00 00 00 00 
       0001555A 00 00 00 00 00 00 00 00 00 00 
       00015564 00 00 00 00 00 00 00 00 00 00 
       0001556E 00 00 00 00 00 00 00 00 00 00 
       00015578 00 00 00 00 00 00 00 00 00 00 
       00015582 00 00 00 00 00 00 00 00 00 00 
       0001558C 00 00 00 00 00 00 00 00 00 00 
       00015596 00 00 00 00 00 00 00 00 00 00 
       000155A0 00 00 00 00 00 00 00 00 00 00 
       000155AA 00 00 00 00 00 00 00 00 00 00 
       000155B4 00 00 00 00 00 00 00 00 00 00 
       000155BE 00 00 00 00 00 00 00 00 00 00 
       000155C8 00 00 00 00 00 00 00 00 00 00 
       000155D2 00 00 00 00 00 00 00 00 00 00 
       000155DC 00 00 00 00 00 00 00 00 00 00 
       000155E6 00 00 00 00 00 00 00 00 00 00 
       000155F0 00 00 00 00 00 00 00 00 00 00 
       000155FA 00 00 00 00 00 00 00 00 00 00 
       00015604 00 00 00 00 00 00 00 00 00 00 
       0001560E 00 00 00 00 00 00 00 00 00 00 
       00015618 00 00 00 00 00 00 00 00 00 00 
       00015622 00 00 00 00 00 00 00 00 00 00 
       0001562C 00 00 00 00 00 00 00 00 00 00 
       00015636 00 00 00 00 00 00 00 00 00 00 
       00015640 00 00 00 00 00 00 00 00 00 00 
       0001564A 00 00 00 00 00 00 00 00 00 00 
       00015654 00 00 00 00 00 00 00 00 00 00 
       0001565E 00 00 00 00 00 00 00 00 00 00 
       00015668 00 00 00 00 00 00 00 00 00 00 
       00015672 00 00 00 00 00 00 00 00 00 00 
       0001567C 00 00 00 00 00 00 00 00 00 00 
       00015686 00 00 00 00 00 00 00 00 00 00 
       00015690 00 00 00 00 00 00 00 00 00 00 
       0001569A 00 00 00 00 00 00 00 00 00 00 
       000156A4 00 00 00 00 00 00 00 00 00 00 
       000156AE 00 00 00 00 00 00 00 00 00 00 
       000156B8 00 00 00 00 00 00 00 00 00 00 
       000156C2 00 00 00 00 00 00 00 00 00 00 
       000156CC 00 00 00 00 00 00 00 00 00 00 
       000156D6 00 00 00 00 00 00 00 00 00 00 
       000156E0 00 00 00 00 00 00 00 00 00 00 
       000156EA 00 00 00 00 00 00 00 00 00 00 
       000156F4 00 00 00 00 00 00 00 00 00 00 
       000156FE 00 00 00 00 00 00 00 00 00 00 
       00015708 00 00 00 00 00 00 00 00 00 00 
       00015712 00 00 00 00 00 00 00 00 00 00 
       0001571C 00 00 00 00 00 00 00 00 00 00 
       00015726 00 00 00 00 00 00 00 00 00 00 
       00015730 00 00 00 00 00 00 00 00 00 00 
       0001573A 00 00 00 00 00 00 00 00 00 00 
       00015744 00 00 00 00 00 00 00 00 00 00 
       0001574E 00 00 00 00 00 00 00 00 00 00 
       00015758 00 00 00 00 00 00 00 00 00 00 
       00015762 00 00 00 00 00 00 00 00 00 00 
       0001576C 00 00 00 00 00 00 00 00 00 00 
       00015776 00 00 00 00 00 00 00 00 00 00 
       00015780 00 00 00 00 00 00 00 00 00 00 
       0001578A 00 00 00 00 00 00 00 00 00 00 
       00015794 00 00 00 00 00 00 00 00 00 00 
       0001579E 00 00 00 00 00 00 00 00 00 00 
       000157A8 00 00 00 00 00 00 00 00 00 00 
       000157B2 00 00 00 00 00 00 00 00 00 00 
       000157BC 00 00 00 00 00 00 00 00 00 00 
       000157C6 00 00 00 00 00 00 00 00 00 00 
       000157D0 00 00 00 00 00 00 00 00 00 00 
       000157DA 00 00 00 00 00 00 00 00 00 00 
       000157E4 00 00 00 00 00 00 00 00 00 00 
       000157EE 00 00 00 00 00 00 00 00 00 00 
       000157F8 00 00 00 00 00 00 00 00 00 00 
       00015802 00 00 00 00 00 00 00 00 00 00 
       0001580C 00 00 00 00 00 00 00 00 00 00 
       00015816 00 00 00 00 00 00 00 00 00 00 
       00015820 00 00 00 00 00 00 00 00 00 00 
       0001582A 00 00 00 00 00 00 00 00 00 00 
       00015834 00 00 00 00 00 00 00 00 00 00 
       0001583E 00 00 00 00 00 00 00 00 00 00 
       00015848 00 00 00 00 00 00 00 00 00 00 
       00015852 00 00 00 00 00 00 00 00 00 00 
       0001585C 00 00 00 00 00 00 00 00 00 00 
       00015866 00 00 00 00 00 00 00 00 00 00 
       00015870 00 00 00 00 00 00 00 00 00 00 
       0001587A 00 00 00 00 00 00 00 00 00 00 
       00015884 00 00 00 00 00 00 00 00 00 00 
       0001588E 00 00 00 00 00 00 00 00 00 00 
       00015898 00 00 00 00 00 00 00 00 00 00 
       000158A2 00 00 00 00 00 00 00 00 00 00 
       000158AC 00 00 00 00 00 00 00 00 00 00 
       000158B6 00 00 00 00 00 00 00 00 00 00 
       000158C0 00 00 00 00 00 00 00 00 00 00 
       000158CA 00 00 00 00 00 00 00 00 00 00 
       000158D4 00 00 00 00 00 00 00 00 00 00 
       000158DE 00 00 00 00 00 00 00 00 00 00 
       000158E8 00 00 00 00 00 00 00 00 00 00 
       000158F2 00 00 00 00 00 00 00 00 00 00 
       000158FC 00 00 00 00 00 00 00 00 00 00 
       00015906 00 00 00 00 00 00 00 00 00 00 
       00015910 00 00 00 00 00 00 00 00 00 00 
       0001591A 00 00 00 00 00 00 00 00 00 00 
       00015924 00 00 00 00 00 00 00 00 00 00 
       0001592E 00 00 00 00 00 00 00 00 00 00 
       00015938 00 00 00 00 00 00 00 00 00 00 
       00015942 00 00 00 00 00 00 00 00 00 00 
       0001594C 00 00 00 00 00 00 00 00 00 00 
       00015956 00 00 00 00 00 00 00 00 00 00 
       00015960 00 00 00 00 00 00 00 00 00 00 
       0001596A 00 00 00 00 00 00 00 00 00 00 
       00015974 00 00 00 00 00 00 00 00 00 00 
       0001597E 00 00 00 00 00 00 00 00 00 00 
       00015988 00 00 00 00 00 00 00 00 00 00 
       00015992 00 00 00 00 00 00 00 00 00 00 
       0001599C 00 00 00 00 00 00 00 00 00 00 
       000159A6 00 00 00 00 00 00 00 00 00 00 
       000159B0 00 00 00 00 00 00 00 00 00 00 
       000159BA 00 00 00 00 00 00 00 00 00 00 
       000159C4 00 00 00 00 00 00 00 00 00 00 
       000159CE 00 00 00 00 00 00 00 00 00 00 
       000159D8 00 00 00 00 00 00 00 00 00 00 
       000159E2 00 00 00 00 00 00 00 00 00 00 
       000159EC 00 00 00 00 00 00 00 00 00 00 
       000159F6 00 00 00 00 00 00 00 00 00 00 
       00015A00 00 00 00 00 00 00 00 00 00 00 
       00015A0A 00 00 00 00 00 00 00 00 00 00 
       00015A14 00 00 00 00 00 00 00 00 00 00 
       00015A1E 00 00 00 00 00 00 00 00 00 00 
       00015A28 00 00 00 00 00 00 00 00 00 00 
       00015A32 00 00 00 00 00 00 00 00 00 00 
       00015A3C 00 00 00 00 00 00 00 00 00 00 
       00015A46 00 00 00 00 00 00 00 00 00 00 
       00015A50 00 00 00 00 00 00 00 00 00 00 
       00015A5A 00 00 00 00 00 00 00 00 00 00 
       00015A64 00 00 00 00 00 00 00 00 00 00 
       00015A6E 00 00 00 00 00 00 00 00 00 00 
       00015A78 00 00 00 00 00 00 00 00 00 00 
       00015A82 00 00 00 00 00 00 00 00 00 00 
       00015A8C 00 00 00 00 00 00 00 00 00 00 
       00015A96 00 00 00 00 00 00 00 00 00 00 
       00015AA0 00 00 00 00 00 00 00 00 00 00 
       00015AAA 00 00 00 00 00 00 00 00 00 00 
       00015AB4 00 00 00 00 00 00 00 00 00 00 
       00015ABE 00 00 00 00 00 00 00 00 00 00 
       00015AC8 00 00 00 00 00 00 00 00 00 00 
       00015AD2 00 00 00 00 00 00 00 00 00 00 
       00015ADC 00 00 00 00 00 00 00 00 00 00 
       00015AE6 00 00 00 00 00 00 00 00 00 00 
       00015AF0 00 00 00 00 00 00 00 00 00 00 
       00015AFA 00 00 00 00 00 00 00 00 00 00 
       00015B04 00 00 00 00 00 00 00 00 00 00 
       00015B0E 00 00 00 00 00 00 00 00 00 00 
       00015B18 00 00 00 00 00 00 00 00 00 00 
       00015B22 00 00 00 00 00 00 00 00 00 00 
       00015B2C 00 00 00 00 00 00 00 00 00 00 
       00015B36 00 00 00 00 00 00 00 00 00 00 
       00015B40 00 00 00 00 00 00 00 00 00 00 
       00015B4A 00 00 00 00 00 00 00 00 00 00 
       00015B54 00 00 00 00 00 00 00 00 00 00 
       00015B5E 00 00 00 00 00 00 00 00 00 00 
       00015B68 00 00 00 00 00 00 00 00 00 00 
       00015B72 00 00 00 00 00 00 00 00 00 00 
       00015B7C 00 00 00 00 00 00 00 00 00 00 
       00015B86 00 00 00 00 00 00 00 00 00 00 
       00015B90 00 00 00 00 00 00 00 00 00 00 
       00015B9A 00 00 00 00 00 00 00 00 00 00 
       00015BA4 00 00 00 00 00 00 00 00 00 00 
       00015BAE 00 00 00 00 00 00 00 00 00 00 
       00015BB8 00 00 00 00 00 00 00 00 00 00 
       00015BC2 00 00 00 00 00 00 00 00 00 00 
       00015BCC 00 00 00 00 00 00 00 00 00 00 
       00015BD6 00 00 00 00 00 00 00 00 00 00 
       00015BE0 00 00 00 00 00 00 00 00 00 00 
       00015BEA 00 00 00 00 00 00 00 00 00 00 
       00015BF4 00 00 00 00 00 00 00 00 00 00 
       00015BFE 00 00 00 00 00 00 00 00 00 00 
       00015C08 00 00 00 00 00 00 00 00 00 00 
       00015C12 00 00 00 00 00 00 00 00 00 00 
       00015C1C 00 00 00 00 00 00 00 00 00 00 
       00015C26 00 00 00 00 00 00 00 00 00 00 
       00015C30 00 00 00 00 00 00 00 00 00 00 
       00015C3A 00 00 00 00 00 00 00 00 00 00 
       00015C44 00 00 00 00 00 00 00 00 00 00 
       00015C4E 00 00 00 00 00 00 00 00 00 00 
       00015C58 00 00 00 00 00 00 00 00 00 00 
       00015C62 00 00 00 00 00 00 00 00 00 00 
       00015C6C 00 00 00 00 00 00 00 00 00 00 
       00015C76 00 00 00 00 00 00 00 00 00 00 
       00015C80 00 00 00 00 00 00 00 00 00 00 
       00015C8A 00 00 00 00 00 00 00 00 00 00 
       00015C94 00 00 00 00 00 00 00 00 00 00 
       00015C9E 00 00 00 00 00 00 00 00 00 00 
       00015CA8 00 00 00 00 00 00 00 00 00 00 
       00015CB2 00 00 00 00 00 00 00 00 00 00 
       00015CBC 00 00 00 00 00 00 00 00 00 00 
       00015CC6 00 00 00 00 00 00 00 00 00 00 
       00015CD0 00 00 00 00 00 00 00 00 00 00 
       00015CDA 00 00 00 00 00 00 00 00 00 00 
       00015CE4 00 00 00 00 00 00 00 00 00 00 
       00015CEE 00 00 00 00 00 00 00 00 00 00 
       00015CF8 00 00 00 00 00 00 00 00 00 00 
       00015D02 00 00 00 00 00 00 00 00 00 00 
       00015D0C 00 00 00 00 00 00 00 00 00 00 
       00015D16 00 00 00 00 00 00 00 00 00 00 
       00015D20 00 00 00 00 00 00 00 00 00 00 
       00015D2A 00 00 00 00 00 00 00 00 00 00 
       00015D34 00 00 00 00 00 00 00 00 00 00 
       00015D3E 00 00 00 00 00 00 00 00 00 00 
       00015D48 00 00 00 00 00 00 00 00 00 00 
       00015D52 00 00 00 00 00 00 00 00 00 00 
       00015D5C 00 00 00 00 00 00 00 00 00 00 
       00015D66 00 00 00 00 00 00 00 00 00 00 
       00015D70 00 00 00 00 00 00 00 00 00 00 
       00015D7A 00 00 00 00 00 00 00 00 00 00 
       00015D84 00 00 00 00 00 00 00 00 00 00 
       00015D8E 00 00 00 00 00 00 00 00 00 00 
       00015D98 00 00 00 00 00 00 00 00 00 00 
       00015DA2 00 00 00 00 00 00 00 00 00 00 
       00015DAC 00 00 00 00 00 00 00 00 00 00 
       00015DB6 00 00 00 00 00 00 00 00 00 00 
       00015DC0 00 00 00 00 00 00 00 00 00 00 
       00015DCA 00 00 00 00 00 00 00 00 00 00 
       00015DD4 00 00 00 00 00 00 00 00 00 00 
       00015DDE 00 00 00 00 00 00 00 00 00 00 
       00015DE8 00 00 00 00 00 00 00 00 00 00 
       00015DF2 00 00 00 00 00 00 00 00 00 00 
       00015DFC 00 00 00 00 00 00 00 00 00 00 
       00015E06 00 00 00 00 00 00 00 00 00 00 
       00015E10 00 00 00 00 00 00 00 00 00 00 
       00015E1A 00 00 00 00 00 00 00 00 00 00 
       00015E24 00 00 00 00 00 00 00 00 00 00 
       00015E2E 00 00 00 00 00 00 00 00 00 00 
       00015E38 00 00 00 00 00 00 00 00 00 00 
       00015E42 00 00 00 00 00 00 00 00 00 00 
       00015E4C 00 00 00 00 00 00 00 00 00 00 
       00015E56 00 00 00 00 00 00 00 00 00 00 
       00015E60 00 00 00 00 00 00 00 00 00 00 
       00015E6A 00 00 00 00 00 00 00 00 00 00 
       00015E74 00 00 00 00 00 00 00 00 00 00 
       00015E7E 00 00 00 00 00 00 00 00 00 00 
       00015E88 00 00 00 00 00 00 00 00 00 00 
       00015E92 00 00 00 00 00 00 00 00 00 00 
       00015E9C 00 00 00 00 00 00 00 00 00 00 
       00015EA6 00 00 00 00 00 00 00 00 00 00 
       00015EB0 00 00 00 00 00 00 00 00 00 00 
       00015EBA 00 00 00 00 00 00 00 00 00 00 
       00015EC4 00 00 00 00 00 00 00 00 00 00 
       00015ECE 00 00 00 00 00 00 00 00 00 00 
       00015ED8 00 00 00 00 00 00 00 00 00 00 
       00015EE2 00 00 00 00 00 00 00 00 00 00 
       00015EEC 00 00 00 00 00 00 00 00 00 00 
       00015EF6 00 00 00 00 00 00 00 00 00 00 
       00015F00 00 00 00 00 00 00 00 00 00 00 
       00015F0A 00 00 00 00 00 00 00 00 00 00 
       00015F14 00 00 00 00 00 00 00 00 00 00 
       00015F1E 00 00 00 00 00 00 00 00 00 00 
       00015F28 00 00 00 00 00 00 00 00 00 00 
       00015F32 00 00 00 00 00 00 00 00 00 00 
       00015F3C 00 00 00 00 00 00 00 00 00 00 
       00015F46 00 00 00 00 00 00 00 00 00 00 
       00015F50 00 00 00 00 00 00 00 00 00 00 
       00015F5A 00 00 00 00 00 00 00 00 00 00 
       00015F64 00 00 00 00 00 00 00 00 00 00 
       00015F6E 00 00 00 00 00 00 00 00 00 00 
       00015F78 00 00 00 00 00 00 00 00 00 00 
       00015F82 00 00 00 00 00 00 00 00 00 00 
       00015F8C 00 00 00 00 00 00 00 00 00 00 
       00015F96 00 00 00 00 00 00 00 00 00 00 
       00015FA0 00 00 00 00 00 00 00 00 00 00 
       00015FAA 00 00 00 00 00 00 00 00 00 00 
       00015FB4 00 00 00 00 00 00 00 00 00 00 
       00015FBE 00 00 00 00 00 00 00 00 00 00 
       00015FC8 00 00 00 00 00 00 00 00 00 00 
       00015FD2 00 00 00 00 00 00 00 00 00 00 
       00015FDC 00 00 00 00 00 00 00 00 00 00 
       00015FE6 00 00 00 00 00 00 00 00 00 00 
       00015FF0 00 00 00 00 00 00 00 00 00 00 
       00015FFA 00 00 00 00 00 00 00 00 00 00 
       00016004 00 00 00 00 00 00 00 00 00 00 
       0001600E 00 00 00 00 00 00 00 00 00 00 
       00016018 00 00 00 00 00 00 00 00 00 00 
       00016022 00 00 00 00 00 00 00 00 00 00 
       0001602C 00 00 00 00 00 00 00 00 00 00 
       00016036 00 00 00 00 00 00 00 00 00 00 
       00016040 00 00 00 00 00 00 00 00 00 00 
       0001604A 00 00 00 00 00 00 00 00 00 00 
       00016054 00 00 00 00 00 00 00 00 00 00 
       0001605E 00 00 00 00 00 00 00 00 00 00 
       00016068 00 00 00 00 00 00 00 00 00 00 
       00016072 00 00 00 00 00 00 00 00 00 00 
       0001607C 00 00 00 00 00 00 00 00 00 00 
       00016086 00 00 00 00 00 00 00 00 00 00 
       00016090 00 00 00 00 00 00 00 00 00 00 
       0001609A 00 00 00 00 00 00 00 00 00 00 
       000160A4 00 00 00 00 00 00 00 00 00 00 
       000160AE 00 00 00 00 00 00 00 00 00 00 
       000160B8 00 00 00 00 00 00 00 00 00 00 
       000160C2 00 00 00 00 00 00 00 00 00 00 
       000160CC 00 00 00 00 00 00 00 00 00 00 
       000160D6 00 00 00 00 00 00 00 00 00 00 
       000160E0 00 00 00 00 00 00 00 00 00 00 
       000160EA 00 00 00 00 00 00 00 00 00 00 
       000160F4 00 00 00 00 00 00 00 00 00 00 
       000160FE 00 00 00 00 00 00 00 00 00 00 
       00016108 00 00 00 00 00 00 00 00 00 00 
       00016112 00 00 00 00 00 00 00 00 00 00 
       0001611C 00 00 00 00 00 00 00 00 00 00 
       00016126 00 00 00 00 00 00 00 00 00 00 
       00016130 00 00 00 00 00 00 00 00 00 00 
       0001613A 00 00 00 00 00 00 00 00 00 00 
       00016144 00 00 00 00 00 00 00 00 00 00 
       0001614E 00 00 00 00 00 00 00 00 00 00 
       00016158 00 00 00 00 00 00 00 00 00 00 
       00016162 00 00 00 00 00 00 00 00 00 00 
       0001616C 00 00 00 00 00 00 00 00 00 00 
       00016176 00 00 00 00 00 00 00 00 00 00 
       00016180 00 00 00 00 00 00 00 00 00 00 
       0001618A 00 00 00 00 00 00 00 00 00 00 
       00016194 00 00 00 00 00 00 00 00 00 00 
       0001619E 00 00 00 00 00 00 00 00 00 00 
       000161A8 00 00 00 00 00 00 00 00 00 00 
       000161B2 00 00 00 00 00 00 00 00 00 00 
       000161BC 00 00 00 00 00 00 00 00 00 00 
       000161C6 00 00 00 00 00 00 00 00 00 00 
       000161D0 00 00 00 00 00 00 00 00 00 00 
       000161DA 00 00 00 00 00 00 00 00 00 00 
       000161E4 00 00 00 00 00 00 00 00 00 00 
       000161EE 00 00 00 00 00 00 00 00 00 00 
       000161F8 00 00 00 00 00 00 00 00 00 00 
       00016202 00 00 00 00 00 00 00 00 00 00 
       0001620C 00 00 00 00 00 00 00 00 00 00 
       00016216 00 00 00 00 00 00 00 00 00 00 
       00016220 00 00 00 00 00 00 00 00 00 00 
       0001622A 00 00 00 00 00 00 00 00 00 00 
       00016234 00 00 00 00 00 00 00 00 00 00 
       0001623E 00 00 00 00 00 00 00 00 00 00 
       00016248 00 00 00 00 00 00 00 00 00 00 
       00016252 00 00 00 00 00 00 00 00 00 00 
       0001625C 00 00 00 00 00 00 00 00 00 00 
       00016266 00 00 00 00 00 00 00 00 00 00 
       00016270 00 00 00 00 00 00 00 00 00 00 
       0001627A 00 00 00 00 00 00 00 00 00 00 
       00016284 00 00 00 00 00 00 00 00 00 00 
       0001628E 00 00 00 00 00 00 00 00 00 00 
       00016298 00 00 00 00 00 00 00 00 00 00 
       000162A2 00 00 00 00 00 00 00 00 00 00 
       000162AC 00 00 00 00 00 00 00 00 00 00 
       000162B6 00 00 00 00 00 00 00 00 00 00 
       000162C0 00 00 00 00 00 00 00 00 00 00 
       000162CA 00 00 00 00 00 00 00 00 00 00 
       000162D4 00 00 00 00 00 00 00 00 00 00 
       000162DE 00 00 00 00 00 00 00 00 00 00 
       000162E8 00 00 00 00 00 00 00 00 00 00 
       000162F2 00 00 00 00 00 00 00 00 00 00 
       000162FC 00 00 00 00 00 00 00 00 00 00 
       00016306 00 00 00 00 00 00 00 00 00 00 
       00016310 00 00 00 00 00 00 00 00 00 00 
       0001631A 00 00 00 00 00 00 00 00 00 00 
       00016324 00 00 00 00 00 00 00 00 00 00 
       0001632E 00 00 00 00 00 00 00 00 00 00 
       00016338 00 00 00 00 00 00 00 00 00 00 
       00016342 00 00 00 00 00 00 00 00 00 00 
       0001634C 00 00 00 00 00 00 00 00 00 00 
       00016356 00 00 00 00 00 00 00 00 00 00 
       00016360 00 00 00 00 00 00 00 00 00 00 
       0001636A 00 00 00 00 00 00 00 00 00 00 
       00016374 00 00 00 00 00 00 00 00 00 00 
       0001637E 00 00 00 00 00 00 00 00 00 00 
       00016388 00 00 00 00 00 00 00 00 00 00 
       00016392 00 00 00 00 00 00 00 00 00 00 
       0001639C 00 00 00 00 00 00 00 00 00 00 
       000163A6 00 00 00 00 00 00 00 00 00 00 
       000163B0 00 00 00 00 00 00 00 00 00 00 
       000163BA 00 00 00 00 00 00 00 00 00 00 
       000163C4 00 00 00 00 00 00 00 00 00 00 
       000163CE 00 00 00 00 00 00 00 00 00 00 
       000163D8 00 00 00 00 00 00 00 00 00 00 
       000163E2 00 00 00 00 00 00 00 00 00 00 
       000163EC 00 00 00 00 00 00 00 00 00 00 
       000163F6 00 00 00 00 00 00 00 00 00 00 
       00016400 00 00 00 00 00 00 00 00 00 00 
       0001640A 00 00 00 00 00 00 00 00 00 00 
       00016414 00 00 00 00 00 00 00 00 00 00 
       0001641E 00 00 00 00 00 00 00 00 00 00 
       00016428 00 00 00 00 00 00 00 00 00 00 
       00016432 00 00 00 00 00 00 00 00 00 00 
       0001643C 00 00 00 00 00 00 00 00 00 00 
       00016446 00 00 00 00 00 00 00 00 00 00 
       00016450 00 00 00 00 00 00 00 00 00 00 
       0001645A 00 00 00 00 00 00 00 00 00 00 
       00016464 00 00 00 00 00 00 00 00 00 00 
       0001646E 00 00 00 00 00 00 00 00 00 00 
       00016478 00 00 00 00 00 00 00 00 00 00 
       00016482 00 00 00 00 00 00 00 00 00 00 
       0001648C 00 00 00 00 00 00 00 00 00 00 
       00016496 00 00 00 00 00 00 00 00 00 00 
       000164A0 00 00 00 00 00 00 00 00 00 00 
       000164AA 00 00 00 00 00 00 00 00 00 00 
       000164B4 00 00 00 00 00 00 00 00 00 00 
       000164BE 00 00 00 00 00 00 00 00 00 00 
       000164C8 00 00 00 00 00 00 00 00 00 00 
       000164D2 00 00 00 00 00 00 00 00 00 00 
       000164DC 00 00 00 00 00 00 00 00 00 00 
       000164E6 00 00 00 00 00 00 00 00 00 00 
       000164F0 00 00 00 00 00 00 00 00 00 00 
       000164FA 00 00 00 00 00 00 00 00 00 00 
       00016504 00 00 00 00 00 00 00 00 00 00 
       0001650E 00 00 00 00 00 00 00 00 00 00 
       00016518 00 00 00 00 00 00 00 00 00 00 
       00016522 00 00 00 00 00 00 00 00 00 00 
       0001652C 00 00 00 00 00 00 00 00 00 00 
       00016536 00 00 00 00 00 00 00 00 00 00 
       00016540 00 00 00 00 00 00 00 00 00 00 
       0001654A 00 00 00 00 00 00 00 00 00 00 
       00016554 00 00 00 00 00 00 00 00 00 00 
       0001655E 00 00 00 00 00 00 00 00 00 00 
       00016568 00 00 00 00 00 00 00 00 00 00 
       00016572 00 00 00 00 00 00 00 00 00 00 
       0001657C 00 00 00 00 00 00 00 00 00 00 
       00016586 00 00 00 00 00 00 00 00 00 00 
       00016590 00 00 00 00 00 00 00 00 00 00 
       0001659A 00 00 00 00 00 00 00 00 00 00 
       000165A4 00 00 00 00 00 00 00 00 00 00 
       000165AE 00 00 00 00 00 00 00 00 00 00 
       000165B8 00 00 00 00 00 00 00 00 00 00 
       000165C2 00 00 00 00 00 00 00 00 00 00 
       000165CC 00 00 00 00 00 00 00 00 00 00 
       000165D6 00 00 00 00 00 00 00 00 00 00 
       000165E0 00 00 00 00 00 00 00 00 00 00 
       000165EA 00 00 00 00 00 00 00 00 00 00 
       000165F4 00 00 00 00 00 00 00 00 00 00 
       000165FE 00 00 00 00 00 00 00 00 00 00 
       00016608 00 00 00 00 00 00 00 00 00 00 
       00016612 00 00 00 00 00 00 00 00 00 00 
       0001661C 00 00 00 00 00 00 00 00 00 00 
       00016626 00 00 00 00 00 00 00 00 00 00 
       00016630 00 00 00 00 00 00 00 00 00 00 
       0001663A 00 00 00 00 00 00 00 00 00 00 
       00016644 00 00 00 00 00 00 00 00 00 00 
       0001664E 00 00 00 00 00 00 00 00 00 00 
       00016658 00 00 00 00 00 00 00 00 00 00 
       00016662 00 00 00 00 00 00 00 00 00 00 
       0001666C 00 00 00 00 00 00 00 00 00 00 
       00016676 00 00 00 00 00 00 00 00 00 00 
       00016680 00 00 00 00 00 00 00 00 00 00 
       0001668A 00 00 00 00 00 00 00 00 00 00 
       00016694 00 00 00 00 00 00 00 00 00 00 
       0001669E 00 00 00 00 00 00 00 00 00 00 
       000166A8 00 00 00 00 00 00 00 00 00 00 
       000166B2 00 00 00 00 00 00 00 00 00 00 
       000166BC 00 00 00 00 00 00 00 00 00 00 
       000166C6 00 00 00 00 00 00 00 00 00 00 
       000166D0 00 00 00 00 00 00 00 00 00 00 
       000166DA 00 00 00 00 00 00 00 00 00 00 
       000166E4 00 00 00 00 00 00 00 00 00 00 
       000166EE 00 00 00 00 00 00 00 00 00 00 
       000166F8 00 00 00 00 00 00 00 00 00 00 
       00016702 00 00 00 00 00 00 00 00 00 00 
       0001670C 00 00 00 00 00 00 00 00 00 00 
       00016716 00 00 00 00 00 00 00 00 00 00 
       00016720 00 00 00 00 00 00 00 00 00 00 
       0001672A 00 00 00 00 00 00 00 00 00 00 
       00016734 00 00 00 00 00 00 00 00 00 00 
       0001673E 00 00 00 00 00 00 00 00 00 00 
       00016748 00 00 00 00 00 00 00 00 00 00 
       00016752 00 00 00 00 00 00 00 00 00 00 
       0001675C 00 00 00 00 00 00 00 00 00 00 
       00016766 00 00 00 00 00 00 00 00 00 00 
       00016770 00 00 00 00 00 00 00 00 00 00 
       0001677A 00 00 00 00 00 00 00 00 00 00 
       00016784 00 00 00 00 00 00 00 00 00 00 
       0001678E 00 00 00 00 00 00 00 00 00 00 
       00016798 00 00 00 00 00 00 00 00 00 00 
       000167A2 00 00 00 00 00 00 00 00 00 00 
       000167AC 00 00 00 00 00 00 00 00 00 00 
       000167B6 00 00 00 00 00 00 00 00 00 00 
       000167C0 00 00 00 00 00 00 00 00 00 00 
       000167CA 00 00 00 00 00 00 00 00 00 00 
       000167D4 00 00 00 00 00 00 00 00 00 00 
       000167DE 00 00 00 00 00 00 00 00 00 00 
       000167E8 00 00 00 00 00 00 00 00 00 00 
       000167F2 00 00 00 00 00 00 00 00 00 00 
       000167FC 00 00 00 00 00 00 00 00 00 00 
       00016806 00 00 00 00 00 00 00 00 00 00 
       00016810 00 00 00 00 00 00 00 00 00 00 
       0001681A 00 00 00 00 00 00 00 00 00 00 
       00016824 00 00 00 00 00 00 00 00 00 00 
       0001682E 00 00 00 00 00 00 00 00 00 00 
       00016838 00 00 00 00 00 00 00 00 00 00 
       00016842 00 00 00 00 00 00 00 00 00 00 
       0001684C 00 00 00 00 00 00 00 00 00 00 
       00016856 00 00 00 00 00 00 00 00 00 00 
       00016860 00 00 00 00 00 00 00 00 00 00 
       0001686A 00 00 00 00 00 00 00 00 00 00 
       00016874 00 00 00 00 00 00 00 00 00 00 
       0001687E 00 00 00 00 00 00 00 00 00 00 
       00016888 00 00 00 00 00 00 00 00 00 00 
       00016892 00 00 00 00 00 00 00 00 00 00 
       0001689C 00 00 00 00 00 00 00 00 00 00 
       000168A6 00 00 00 00 00 00 00 00 00 00 
       000168B0 00 00 00 00 00 00 00 00 00 00 
       000168BA 00 00 00 00 00 00 00 00 00 00 
       000168C4 00 00 00 00 00 00 00 00 00 00 
       000168CE 00 00 00 00 00 00 00 00 00 00 
       000168D8 00 00 00 00 00 00 00 00 00 00 
       000168E2 00 00 00 00 00 00 00 00 00 00 
       000168EC 00 00 00 00 00 00 00 00 00 00 
       000168F6 00 00 00 00 00 00 00 00 00 00 
       00016900 00 00 00 00 00 00 00 00 00 00 
       0001690A 00 00 00 00 00 00 00 00 00 00 
       00016914 00 00 00 00 00 00 00 00 00 00 
       0001691E 00 00 00 00 00 00 00 00 00 00 
       00016928 00 00 00 00 00 00 00 00 00 00 
       00016932 00 00 00 00 00 00 00 00 00 00 
       0001693C 00 00 00 00 00 00 00 00 00 00 
       00016946 00 00 00 00 00 00 00 00 00 00 
       00016950 00 00 00 00 00 00 00 00 00 00 
       0001695A 00 00 00 00 00 00 00 00 00 00 
       00016964 00 00 00 00 00 00 00 00 00 00 
       0001696E 00 00 00 00 00 00 00 00 00 00 
       00016978 00 00 00 00 00 00 00 00 00 00 
       00016982 00 00 00 00 00 00 00 00 00 00 
       0001698C 00 00 00 00 00 00 00 00 00 00 
       00016996 00 00 00 00 00 00 00 00 00 00 
       000169A0 00 00 00 00 00 00 00 00 00 00 
       000169AA 00 00 00 00 00 00 00 00 00 00 
       000169B4 00 00 00 00 00 00 00 00 00 00 
       000169BE 00 00 00 00 00 00 00 00 00 00 
       000169C8 00 00 00 00 00 00 00 00 00 00 
       000169D2 00 00 00 00 00 00 00 00 00 00 
       000169DC 00 00 00 00 00 00 00 00 00 00 
       000169E6 00 00 00 00 00 00 00 00 00 00 
       000169F0 00 00 00 00 00 00 00 00 00 00 
       000169FA 00 00 00 00 00 00 00 00 00 00 
       00016A04 00 00 00 00 00 00 00 00 00 00 
       00016A0E 00 00 00 00 00 00 00 00 00 00 
       00016A18 00 00 00 00 00 00 00 00 00 00 
       00016A22 00 00 00 00 00 00 00 00 00 00 
       00016A2C 00 00 00 00 00 00 00 00 00 00 
       00016A36 00 00 00 00 00 00 00 00 00 00 
       00016A40 00 00 00 00 00 00 00 00 00 00 
       00016A4A 00 00 00 00 00 00 00 00 00 00 
       00016A54 00 00 00 00 00 00 00 00 00 00 
       00016A5E 00 00 00 00 00 00 00 00 00 00 
       00016A68 00 00 00 00 00 00 00 00 00 00 
       00016A72 00 00 00 00 00 00 00 00 00 00 
       00016A7C 00 00 00 00 00 00 00 00 00 00 
       00016A86 00 00 00 00 00 00 00 00 00 00 
       00016A90 00 00 00 00 00 00 00 00 00 00 
       00016A9A 00 00 00 00 00 00 00 00 00 00 
       00016AA4 00 00 00 00 00 00 00 00 00 00 
       00016AAE 00 00 00 00 00 00 00 00 00 00 
       00016AB8 00 00 00 00 00 00 00 00 00 00 
       00016AC2 00 00 00 00 00 00 00 00 00 00 
       00016ACC 00 00 00 00 00 00 00 00 00 00 
       00016AD6 00 00 00 00 00 00 00 00 00 00 
       00016AE0 00 00 00 00 00 00 00 00 00 00 
       00016AEA 00 00 00 00 00 00 00 00 00 00 
       00016AF4 00 00 00 00 00 00 00 00 00 00 
       00016AFE 00 00 00 00 00 00 00 00 00 00 
       00016B08 00 00 00 00 00 00 00 00 00 00 
       00016B12 00 00 00 00 00 00 00 00 00 00 
       00016B1C 00 00 00 00 00 00 00 00 00 00 
       00016B26 00 00 00 00 00 00 00 00 00 00 
       00016B30 00 00 00 00 00 00 00 00 00 00 
       00016B3A 00 00 00 00 00 00 00 00 00 00 
       00016B44 00 00 00 00 00 00 00 00 00 00 
       00016B4E 00 00 00 00 00 00 00 00 00 00 
       00016B58 00 00 00 00 00 00 00 00 00 00 
       00016B62 00 00 00 00 00 00 00 00 00 00 
       00016B6C 00 00 00 00 00 00 00 00 00 00 
       00016B76 00 00 00 00 00 00 00 00 00 00 
       00016B80 00 00 00 00 00 00 00 00 00 00 
       00016B8A 00 00 00 00 00 00 00 00 00 00 
       00016B94 00 00 00 00 00 00 00 00 00 00 
       00016B9E 00 00 00 00 00 00 00 00 00 00 
       00016BA8 00 00 00 00 00 00 00 00 00 00 
       00016BB2 00 00 00 00 00 00 00 00 00 00 
       00016BBC 00 00 00 00 00 00 00 00 00 00 
       00016BC6 00 00 00 00 00 00 00 00 00 00 
       00016BD0 00 00 00 00 00 00 00 00 00 00 
       00016BDA 00 00 00 00 00 00 00 00 00 00 
       00016BE4 00 00 00 00 00 00 00 00 00 00 
       00016BEE 00 00 00 00 00 00 00 00 00 00 
       00016BF8 00 00 00 00 00 00 00 00 00 00 
       00016C02 00 00 00 00 00 00 00 00 00 00 
       00016C0C 00 00 00 00 00 00 00 00 00 00 
       00016C16 00 00 00 00 00 00 00 00 00 00 
       00016C20 00 00 00 00 00 00 00 00 00 00 
       00016C2A 00 00 00 00 00 00 00 00 00 00 
       00016C34 00 00 00 00 00 00 00 00 00 00 
       00016C3E 00 00 00 00 00 00 00 00 00 00 
       00016C48 00 00 00 00 00 00 00 00 00 00 
       00016C52 00 00 00 00 00 00 00 00 00 00 
       00016C5C 00 00 00 00 00 00 00 00 00 00 
       00016C66 00 00 00 00 00 00 00 00 00 00 
       00016C70 00 00 00 00 00 00 00 00 00 00 
       00016C7A 00 00 00 00 00 00 00 00 00 00 
       00016C84 00 00 00 00 00 00 00 00 00 00 
       00016C8E 00 00 00 00 00 00 00 00 00 00 
       00016C98 00 00 00 00 00 00 00 00 00 00 
       00016CA2 00 00 00 00 00 00 00 00 00 00 
       00016CAC 00 00 00 00 00 00 00 00 00 00 
       00016CB6 00 00 00 00 00 00 00 00 00 00 
       00016CC0 00 00 00 00 00 00 00 00 00 00 
       00016CCA 00 00 00 00 00 00 00 00 00 00 
       00016CD4 00 00 00 00 00 00 00 00 00 00 
       00016CDE 00 00 00 00 00 00 00 00 00 00 
       00016CE8 00 00 00 00 00 00 00 00 00 00 
       00016CF2 00 00 00 00 00 00 00 00 00 00 
       00016CFC 00 00 00 00 00 00 00 00 00 00 
       00016D06 00 00 00 00 00 00 00 00 00 00 
       00016D10 00 00 00 00 00 00 00 00 00 00 
       00016D1A 00 00 00 00 00 00 00 00 00 00 
       00016D24 00 00 00 00 00 00 00 00 00 00 
       00016D2E 00 00 00 00 00 00 00 00 00 00 
       00016D38 00 00 00 00 00 00 00 00 00 00 
       00016D42 00 00 00 00 00 00 00 00 00 00 
       00016D4C 00 00 00 00 00 00 00 00 00 00 
       00016D56 00 00 00 00 00 00 00 00 00 00 
       00016D60 00 00 00 00 00 00 00 00 00 00 
       00016D6A 00 00 00 00 00 00 00 00 00 00 
       00016D74 00 00 00 00 00 00 00 00 00 00 
       00016D7E 00 00 00 00 00 00 00 00 00 00 
       00016D88 00 00 00 00 00 00 00 00 00 00 
       00016D92 00 00 00 00 00 00 00 00 00 00 
       00016D9C 00 00 00 00 00 00 00 00 00 00 
       00016DA6 00 00 00 00 00 00 00 00 00 00 
       00016DB0 00 00 00 00 00 00 00 00 00 00 
       00016DBA 00 00 00 00 00 00 00 00 00 00 
       00016DC4 00 00 00 00 00 00 00 00 00 00 
       00016DCE 00 00 00 00 00 00 00 00 00 00 
       00016DD8 00 00 00 00 00 00 00 00 00 00 
       00016DE2 00 00 00 00 00 00 00 00 00 00 
       00016DEC 00 00 00 00 00 00 00 00 00 00 
       00016DF6 00 00 00 00 00 00 00 00 00 00 
       00016E00 00 00 00 00 00 00 00 00 00 00 
       00016E0A 00 00 00 00 00 00 00 00 00 00 
       00016E14 00 00 00 00 00 00 00 00 00 00 
       00016E1E 00 00 00 00 00 00 00 00 00 00 
       00016E28 00 00 00 00 00 00 00 00 00 00 
       00016E32 00 00 00 00 00 00 00 00 00 00 
       00016E3C 00 00 00 00 00 00 00 00 00 00 
       00016E46 00 00 00 00 00 00 00 00 00 00 
       00016E50 00 00 00 00 00 00 00 00 00 00 
       00016E5A 00 00 00 00 00 00 00 00 00 00 
       00016E64 00 00 00 00 00 00 00 00 00 00 
       00016E6E 00 00 00 00 00 00 00 00 00 00 
       00016E78 00 00 00 00 00 00 00 00 00 00 
       00016E82 00 00 00 00 00 00 00 00 00 00 
       00016E8C 00 00 00 00 00 00 00 00 00 00 
       00016E96 00 00 00 00 00 00 00 00 00 00 
       00016EA0 00 00 00 00 00 00 00 00 00 00 
       00016EAA 00 00 00 00 00 00 00 00 00 00 
       00016EB4 00 00 00 00 00 00 00 00 00 00 
       00016EBE 00 00 00 00 00 00 00 00 00 00 
       00016EC8 00 00 00 00 00 00 00 00 00 00 
       00016ED2 00 00 00 00 00 00 00 00 00 00 
       00016EDC 00 00 00 00 00 00 00 00 00 00 
       00016EE6 00 00 00 00 00 00 00 00 00 00 
       00016EF0 00 00 00 00 00 00 00 00 00 00 
       00016EFA 00 00 00 00 00 00 00 00 00 00 
       00016F04 00 00 00 00 00 00 00 00 00 00 
       00016F0E 00 00 00 00 00 00 00 00 00 00 
       00016F18 00 00 00 00 00 00 00 00 00 00 
       00016F22 00 00 00 00 00 00 00 00 00 00 
       00016F2C 00 00 00 00 00 00 00 00 00 00 
       00016F36 00 00 00 00 00 00 00 00 00 00 
       00016F40 00 00 00 00 00 00 00 00 00 00 
       00016F4A 00 00 00 00 00 00 00 00 00 00 
       00016F54 00 00 00 00 00 00 00 00 00 00 
       00016F5E 00 00 00 00 00 00 00 00 00 00 
       00016F68 00 00 00 00 00 00 00 00 00 00 
       00016F72 00 00 00 00 00 00 00 00 00 00 
       00016F7C 00 00 00 00 00 00 00 00 00 00 
       00016F86 00 00 00 00 00 00 00 00 00 00 
       00016F90 00 00 00 00 00 00 00 00 00 00 
       00016F9A 00 00 00 00 00 00 00 00 00 00 
       00016FA4 00 00 00 00 00 00 00 00 00 00 
       00016FAE 00 00 00 00 00 00 00 00 00 00 
       00016FB8 00 00 00 00 00 00 00 00 00 00 
       00016FC2 00 00 00 00 00 00 00 00 00 00 
       00016FCC 00 00 00 00 00 00 00 00 00 00 
       00016FD6 00 00 00 00 00 00 00 00 00 00 
       00016FE0 00 00 00 00 00 00 00 00 00 00 
       00016FEA 00 00 00 00 00 00 00 00 00 00 
       00016FF4 00 00 00 00 00 00 00 00 00 00 
       00016FFE 00 00 00 00 00 00 00 00 00 00 
       00017008 00 00 00 00 00 00 00 00 00 00 
       00017012 00 00 00 00 00 00 00 00 00 00 
       0001701C 00 00 00 00 00 00 00 00 00 00 
       00017026 00 00 00 00 00 00 00 00 00 00 
       00017030 00 00 00 00 00 00 00 00 00 00 
       0001703A 00 00 00 00 00 00 00 00 00 00 
       00017044 00 00 00 00 00 00 00 00 00 00 
       0001704E 00 00 00 00 00 00 00 00 00 00 
       00017058 00 00 00 00 00 00 00 00 00 00 
       00017062 00 00 00 00 00 00 00 00 00 00 
       0001706C 00 00 00 00 00 00 00 00 00 00 
       00017076 00 00 00 00 00 00 00 00 00 00 
       00017080 00 00 00 00 00 00 00 00 00 00 
       0001708A 00 00 00 00 00 00 00 00 00 00 
       00017094 00 00 00 00 00 00 00 00 00 00 
       0001709E 00 00 00 00 00 00 00 00 00 00 
       000170A8 00 00 00 00 00 00 00 00 00 00 
       000170B2 00 00 00 00 00 00 00 00 00 00 
       000170BC 00 00 00 00 00 00 00 00 00 00 
       000170C6 00 00 00 00 00 00 00 00 00 00 
       000170D0 00 00 00 00 00 00 00 00 00 00 
       000170DA 00 00 00 00 00 00 00 00 00 00 
       000170E4 00 00 00 00 00 00 00 00 00 00 
       000170EE 00 00 00 00 00 00 00 00 00 00 
       000170F8 00 00 00 00 00 00 00 00 00 00 
       00017102 00 00 00 00 00 00 00 00 00 00 
       0001710C 00 00 00 00 00 00 00 00 00 00 
       00017116 00 00 00 00 00 00 00 00 00 00 
       00017120 00 00 00 00 00 00 00 00 00 00 
       0001712A 00 00 00 00 00 00 00 00 00 00 
       00017134 00 00 00 00 00 00 00 00 00 00 
       0001713E 00 00 00 00 00 00 00 00 00 00 
       00017148 00 00 00 00 00 00 00 00 00 00 
       00017152 00 00 00 00 00 00 00 00 00 00 
       0001715C 00 00 00 00 00 00 00 00 00 00 
       00017166 00 00 00 00 00 00 00 00 00 00 
       00017170 00 00 00 00 00 00 00 00 00 00 
       0001717A 00 00 00 00 00 00 00 00 00 00 
       00017184 00 00 00 00 00 00 00 00 00 00 
       0001718E 00 00 00 00 00 00 00 00 00 00 
       00017198 00 00 00 00 00 00 00 00 00 00 
       000171A2 00 00 00 00 00 00 00 00 00 00 
       000171AC 00 00 00 00 00 00 00 00 00 00 
       000171B6 00 00 00 00 00 00 00 00 00 00 
       000171C0 00 00 00 00 00 00 00 00 00 00 
       000171CA 00 00 00 00 00 00 00 00 00 00 
       000171D4 00 00 00 00 00 00 00 00 00 00 
       000171DE 00 00 00 00 00 00 00 00 00 00 
       000171E8 00 00 00 00 00 00 00 00 00 00 
       000171F2 00 00 00 00 00 00 00 00 00 00 
       000171FC 00 00 00 00 00 00 00 00 00 00 
       00017206 00 00 00 00 00 00 00 00 00 00 
       00017210 00 00 00 00 00 00 00 00 00 00 
       0001721A 00 00 00 00 00 00 00 00 00 00 
       00017224 00 00 00 00 00 00 00 00 00 00 
       0001722E 00 00 00 00 00 00 00 00 00 00 
       00017238 00 00 00 00 00 00 00 00 00 00 
       00017242 00 00 00 00 00 00 00 00 00 00 
       0001724C 00 00 00 00 00 00 00 00 00 00 
       00017256 00 00 00 00 00 00 00 00 00 00 
       00017260 00 00 00 00 00 00 00 00 00 00 
       0001726A 00 00 00 00 00 00 00 00 00 00 
       00017274 00 00 00 00 00 00 00 00 00 00 
       0001727E 00 00 00 00 00 00 00 00 00 00 
       00017288 00 00 00 00 00 00 00 00 00 00 
       00017292 00 00 00 00 00 00 00 00 00 00 
       0001729C 00 00 00 00 00 00 00 00 00 00 
       000172A6 00 00 00 00 00 00 00 00 00 00 
       000172B0 00 00 00 00 00 00 00 00 00 00 
       000172BA 00 00 00 00 00 00 00 00 00 00 
       000172C4 00 00 00 00 00 00 00 00 00 00 
       000172CE 00 00 00 00 00 00 00 00 00 00 
       000172D8 00 00 00 00 00 00 00 00 00 00 
       000172E2 00 00 00 00 00 00 00 00 00 00 
       000172EC 00 00 00 00 00 00 00 00 00 00 
       000172F6 00 00 00 00 00 00 00 00 00 00 
       00017300 00 00 00 00 00 00 00 00 00 00 
       0001730A 00 00 00 00 00 00 00 00 00 00 
       00017314 00 00 00 00 00 00 00 00 00 00 
       0001731E 00 00 00 00 00 00 00 00 00 00 
       00017328 00 00 00 00 00 00 00 00 00 00 
       00017332 00 00 00 00 00 00 00 00 00 00 
       0001733C 00 00 00 00 00 00 00 00 00 00 
       00017346 00 00 00 00 00 00 00 00 00 00 
       00017350 00 00 00 00 00 00 00 00 00 00 
       0001735A 00 00 00 00 00 00 00 00 00 00 
       00017364 00 00 00 00 00 00 00 00 00 00 
       0001736E 00 00 00 00 00 00 00 00 00 00 
       00017378 00 00 00 00 00 00 00 00 00 00 
       00017382 00 00 00 00 00 00 00 00 00 00 
       0001738C 00 00 00 00 00 00 00 00 00 00 
       00017396 00 00 00 00 00 00 00 00 00 00 
       000173A0 00 00 00 00 00 00 00 00 00 00 
       000173AA 00 00 00 00 00 00 00 00 00 00 
       000173B4 00 00 00 00 00 00 00 00 00 00 
       000173BE 00 00 00 00 00 00 00 00 00 00 
       000173C8 00 00 00 00 00 00 00 00 00 00 
       000173D2 00 00 00 00 00 00 00 00 00 00 
       000173DC 00 00 00 00 00 00 00 00 00 00 
       000173E6 00 00 00 00 00 00 00 00 00 00 
       000173F0 00 00 00 00 00 00 00 00 00 00 
       000173FA 00 00 00 00 00 00 00 00 00 00 
       00017404 00 00 00 00 00 00 00 00 00 00 
       0001740E 00 00 00 00 00 00 00 00 00 00 
       00017418 00 00 00 00 00 00 00 00 00 00 
       00017422 00 00 00 00 00 00 00 00 00 00 
       0001742C 00 00 00 00 00 00 00 00 00 00 
       00017436 00 00 00 00 00 00 00 00 00 00 
       00017440 00 00 00 00 00 00 00 00 00 00 
       0001744A 00 00 00 00 00 00 00 00 00 00 
       00017454 00 00 00 00 00 00 00 00 00 00 
       0001745E 00 00 00 00 00 00 00 00 00 00 
       00017468 00 00 00 00 00 00 00 00 00 00 
       00017472 00 00 00 00 00 00 00 00 00 00 
       0001747C 00 00 00 00 00 00 00 00 00 00 
       00017486 00 00 00 00 00 00 00 00 00 00 
       00017490 00 00 00 00 00 00 00 00 00 00 
       0001749A 00 00 00 00 00 00 00 00 00 00 
       000174A4 00 00 00 00 00 00 00 00 00 00 
       000174AE 00 00 00 00 00 00 00 00 00 00 
       000174B8 00 00 00 00 00 00 00 00 00 00 
       000174C2 00 00 00 00 00 00 00 00 00 00 
       000174CC 00 00 00 00 00 00 00 00 00 00 
       000174D6 00 00 00 00 00 00 00 00 00 00 
       000174E0 00 00 00 00 00 00 00 00 00 00 
       000174EA 00 00 00 00 00 00 00 00 00 00 
       000174F4 00 00 00 00 00 00 00 00 00 00 
       000174FE 00 00 00 00 00 00 00 00 00 00 
       00017508 00 00 00 00 00 00 00 00 00 00 
       00017512 00 00 00 00 00 00 00 00 00 00 
       0001751C 00 00 00 00 00 00 00 00 00 00 
       00017526 00 00 00 00 00 00 00 00 00 00 
       00017530 00 00 00 00 00 00 00 00 00 00 
       0001753A 00 00 00 00 00 00 00 00 00 00 
       00017544 00 00 00 00 00 00 00 00 00 00 
       0001754E 00 00 00 00 00 00 00 00 00 00 
       00017558 00 00 00 00 00 00 00 00 00 00 
       00017562 00 00 00 00 00 00 00 00 00 00 
       0001756C 00 00 00 00 00 00 00 00 00 00 
       00017576 00 00 00 00 00 00 00 00 00 00 
       00017580 00 00 00 00 00 00 00 00 00 00 
       0001758A 00 00 00 00 00 00 00 00 00 00 
       00017594 00 00 00 00 00 00 00 00 00 00 
       0001759E 00 00 00 00 00 00 00 00 00 00 
       000175A8 00 00 00 00 00 00 00 00 00 00 
       000175B2 00 00 00 00 00 00 00 00 00 00 
       000175BC 00 00 00 00 00 00 00 00 00 00 
       000175C6 00 00 00 00 00 00 00 00 00 00 
       000175D0 00 00 00 00 00 00 00 00 00 00 
       000175DA 00 00 00 00 00 00 00 00 00 00 
       000175E4 00 00 00 00 00 00 00 00 00 00 
       000175EE 00 00 00 00 00 00 00 00 00 00 
       000175F8 00 00 00 00 00 00 00 00 00 00 
       00017602 00 00 00 00 00 00 00 00 00 00 
       0001760C 00 00 00 00 00 00 00 00 00 00 
       00017616 00 00 00 00 00 00 00 00 00 00 
       00017620 00 00 00 00 00 00 00 00 00 00 
       0001762A 00 00 00 00 00 00 00 00 00 00 
       00017634 00 00 00 00 00 00 00 00 00 00 
       0001763E 00 00 00 00 00 00 00 00 00 00 
       00017648 00 00 00 00 00 00 00 00 00 00 
       00017652 00 00 00 00 00 00 00 00 00 00 
       0001765C 00 00 00 00 00 00 00 00 00 00 
       00017666 00 00 00 00 00 00 00 00 00 00 
       00017670 00 00 00 00 00 00 00 00 00 00 
       0001767A 00 00 00 00 00 00 00 00 00 00 
       00017684 00 00 00 00 00 00 00 00 00 00 
       0001768E 00 00 00 00 00 00 00 00 00 00 
       00017698 00 00 00 00 00 00 00 00 00 00 
       000176A2 00 00 00 00 00 00 00 00 00 00 
       000176AC 00 00 00 00 00 00 00 00 00 00 
       000176B6 00 00 00 00 00 00 00 00 00 00 
       000176C0 00 00 00 00 00 00 00 00 00 00 
       000176CA 00 00 00 00 00 00 00 00 00 00 
       000176D4 00 00 00 00 00 00 00 00 00 00 
       000176DE 00 00 00 00 00 00 00 00 00 00 
       000176E8 00 00 00 00 00 00 00 00 00 00 
       000176F2 00 00 00 00 00 00 00 00 00 00 
       000176FC 00 00 00 00 00 00 00 00 00 00 
       00017706 00 00 00 00 00 00 00 00 00 00 
       00017710 00 00 00 00 00 00 00 00 00 00 
       0001771A 00 00 00 00 00 00 00 00 00 00 
       00017724 00 00 00 00 00 00 00 00 00 00 
       0001772E 00 00 00 00 00 00 00 00 00 00 
       00017738 00 00 00 00 00 00 00 00 00 00 
       00017742 00 00 00 00 00 00 00 00 00 00 
       0001774C 00 00 00 00 00 00 00 00 00 00 
       00017756 00 00 00 00 00 00 00 00 00 00 
       00017760 00 00 00 00 00 00 00 00 00 00 
       0001776A 00 00 00 00 00 00 00 00 00 00 
       00017774 00 00 00 00 00 00 00 00 00 00 
       0001777E 00 00 00 00 00 00 00 00 00 00 
       00017788 00 00 00 00 00 00 00 00 00 00 
       00017792 00 00 00 00 00 00 00 00 00 00 
       0001779C 00 00 00 00 00 00 00 00 00 00 
       000177A6 00 00 00 00 00 00 00 00 00 00 
       000177B0 00 00 00 00 00 00 00 00 00 00 
       000177BA 00 00 00 00 00 00 00 00 00 00 
       000177C4 00 00 00 00 00 00 00 00 00 00 
       000177CE 00 00 00 00 00 00 00 00 00 00 
       000177D8 00 00 00 00 00 00 00 00 00 00 
       000177E2 00 00 00 00 00 00 00 00 00 00 
       000177EC 00 00 00 00 00 00 00 00 00 00 
       000177F6 00 00 00 00 00 00 00 00 00 00 
       00017800 00 00 00 00 00 00 00 00 00 00 
       0001780A 00 00 00 00 00 00 00 00 00 00 
       00017814 00 00 00 00 00 00 00 00 00 00 
       0001781E 00 00 00 00 00 00 00 00 00 00 
       00017828 00 00 00 00 00 00 00 00 00 00 
       00017832 00 00 00 00 00 00 00 00 00 00 
       0001783C 00 00 00 00 00 00 00 00 00 00 
       00017846 00 00 00 00 00 00 00 00 00 00 
       00017850 00 00 00 00 00 00 00 00 00 00 
       0001785A 00 00 00 00 00 00 00 00 00 00 
       00017864 00 00 00 00 00 00 00 00 00 00 
       0001786E 00 00 00 00 00 00 00 00 00 00 
       00017878 00 00 00 00 00 00 00 00 00 00 
       00017882 00 00 00 00 00 00 00 00 00 00 
       0001788C 00 00 00 00 00 00 00 00 00 00 
       00017896 00 00 00 00 00 00 00 00 00 00 
       000178A0 00 00 00 00 00 00 00 00 00 00 
       000178AA 00 00 00 00 00 00 00 00 00 00 
       000178B4 00 00 00 00 00 00 00 00 00 00 
       000178BE 00 00 00 00 00 00 00 00 00 00 
       000178C8 00 00 00 00 00 00 00 00 00 00 
       000178D2 00 00 00 00 00 00 00 00 00 00 
       000178DC 00 00 00 00 00 00 00 00 00 00 
       000178E6 00 00 00 00 00 00 00 00 00 00 
       000178F0 00 00 00 00 00 00 00 00 00 00 
       000178FA 00 00 00 00 00 00 00 00 00 00 
       00017904 00 00 00 00 00 00 00 00 00 00 
       0001790E 00 00 00 00 00 00 00 00 00 00 
       00017918 00 00 00 00 00 00 00 00 00 00 
       00017922 00 00 00 00 00 00 00 00 00 00 
       0001792C 00 00 00 00 00 00 00 00 00 00 
       00017936 00 00 00 00 00 00 00 00 00 00 
       00017940 00 00 00 00 00 00 00 00 00 00 
       0001794A 00 00 00 00 00 00 00 00 00 00 
       00017954 00 00 00 00 00 00 00 00 00 00 
       0001795E 00 00 00 00 00 00 00 00 00 00 
       00017968 00 00 00 00 00 00 00 00 00 00 
       00017972 00 00 00 00 00 00 00 00 00 00 
       0001797C 00 00 00 00 00 00 00 00 00 00 
       00017986 00 00 00 00 00 00 00 00 00 00 
       00017990 00 00 00 00 00 00 00 00 00 00 
       0001799A 00 00 00 00 00 00 00 00 00 00 
       000179A4 00 00 00 00 00 00 00 00 00 00 
       000179AE 00 00 00 00 00 00 00 00 00 00 
       000179B8 00 00 00 00 00 00 00 00 00 00 
       000179C2 00 00 00 00 00 00 00 00 00 00 
       000179CC 00 00 00 00 00 00 00 00 00 00 
       000179D6 00 00 00 00 00 00 00 00 00 00 
       000179E0 00 00 00 00 00 00 00 00 00 00 
       000179EA 00 00 00 00 00 00 00 00 00 00 
       000179F4 00 00 00 00 00 00 00 00 00 00 
       000179FE 00 00 00 00 00 00 00 00 00 00 
       00017A08 00 00 00 00 00 00 00 00 00 00 
       00017A12 00 00 00 00 00 00 00 00 00 00 
       00017A1C 00 00 00 00 00 00 00 00 00 00 
       00017A26 00 00 00 00 00 00 00 00 00 00 
       00017A30 00 00 00 00 00 00 00 00 00 00 
       00017A3A 00 00 00 00 00 00 00 00 00 00 
       00017A44 00 00 00 00 00 00 00 00 00 00 
       00017A4E 00 00 00 00 00 00 00 00 00 00 
       00017A58 00 00 00 00 00 00 00 00 00 00 
       00017A62 00 00 00 00 00 00 00 00 00 00 
       00017A6C 00 00 00 00 00 00 00 00 00 00 
       00017A76 00 00 00 00 00 00 00 00 00 00 
       00017A80 00 00 00 00 00 00 00 00 00 00 
       00017A8A 00 00 00 00 00 00 00 00 00 00 
       00017A94 00 00 00 00 00 00 00 00 00 00 
       00017A9E 00 00 00 00 00 00 00 00 00 00 
       00017AA8 00 00 00 00 00 00 00 00 00 00 
       00017AB2 00 00 00 00 00 00 00 00 00 00 
       00017ABC 00 00 00 00 00 00 00 00 00 00 
       00017AC6 00 00 00 00 00 00 00 00 00 00 
       00017AD0 00 00 00 00 00 00 00 00 00 00 
       00017ADA 00 00 00 00 00 00 00 00 00 00 
       00017AE4 00 00 00 00 00 00 00 00 00 00 
       00017AEE 00 00 00 00 00 00 00 00 00 00 
       00017AF8 00 00 00 00 00 00 00 00 00 00 
       00017B02 00 00 00 00 00 00 00 00 00 00 
       00017B0C 00 00 00 00 00 00 00 00 00 00 
       00017B16 00 00 00 00 00 00 00 00 00 00 
       00017B20 00 00 00 00 00 00 00 00 00 00 
       00017B2A 00 00 00 00 00 00 00 00 00 00 
       00017B34 00 00 00 00 00 00 00 00 00 00 
       00017B3E 00 00 00 00 00 00 00 00 00 00 
       00017B48 00 00 00 00 00 00 00 00 00 00 
       00017B52 00 00 00 00 00 00 00 00 00 00 
       00017B5C 00 00 00 00 00 00 00 00 00 00 
       00017B66 00 00 00 00 00 00 00 00 00 00 
       00017B70 00 00 00 00 00 00 00 00 00 00 
       00017B7A 00 00 00 00 00 00 00 00 00 00 
       00017B84 00 00 00 00 00 00 00 00 00 00 
       00017B8E 00 00 00 00 00 00 00 00 00 00 
       00017B98 00 00 00 00 00 00 00 00 00 00 
       00017BA2 00 00 00 00 00 00 00 00 00 00 
       00017BAC 00 00 00 00 00 00 00 00 00 00 
       00017BB6 00 00 00 00 00 00 00 00 00 00 
       00017BC0 00 00 00 00 00 00 00 00 00 00 
       00017BCA 00 00 00 00 00 00 00 00 00 00 
       00017BD4 00 00 00 00 00 00 00 00 00 00 
       00017BDE 00 00 00 00 00 00 00 00 00 00 
       00017BE8 00 00 00 00 00 00 00 00 00 00 
       00017BF2 00 00 00 00 00 00 00 00 00 00 
       00017BFC 00 00 00 00 00 00 00 00 00 00 
       00017C06 00 00 00 00 00 00 00 00 00 00 
       00017C10 00 00 00 00 00 00 00 00 00 00 
       00017C1A 00 00 00 00 00 00 00 00 00 00 
       00017C24 00 00 00 00 00 00 00 00 00 00 
       00017C2E 00 00 00 00 00 00 00 00 00 00 
       00017C38 00 00 00 00 00 00 00 00 00 00 
       00017C42 00 00 00 00 00 00 00 00 00 00 
       00017C4C 00 00 00 00 00 00 00 00 00 00 
       00017C56 00 00 00 00 00 00 00 00 00 00 
       00017C60 00 00 00 00 00 00 00 00 00 00 
       00017C6A 00 00 00 00 00 00 00 00 00 00 
       00017C74 00 00 00 00 00 00 00 00 00 00 
       00017C7E 00 00 00 00 00 00 00 00 00 00 
       00017C88 00 00 00 00 00 00 00 00 00 00 
       00017C92 00 00 00 00 00 00 00 00 00 00 
       00017C9C 00 00 00 00 00 00 00 00 00 00 
       00017CA6 00 00 00 00 00 00 00 00 00 00 
       00017CB0 00 00 00 00 00 00 00 00 00 00 
       00017CBA 00 00 00 00 00 00 00 00 00 00 
       00017CC4 00 00 00 00 00 00 00 00 00 00 
       00017CCE 00 00 00 00 00 00 00 00 00 00 
       00017CD8 00 00 00 00 00 00 00 00 00 00 
       00017CE2 00 00 00 00 00 00 00 00 00 00 
       00017CEC 00 00 00 00 00 00 00 00 00 00 
       00017CF6 00 00 00 00 00 00 00 00 00 00 
       00017D00 00 00 00 00 00 00 00 00 00 00 
       00017D0A 00 00 00 00 00 00 00 00 00 00 
       00017D14 00 00 00 00 00 00 00 00 00 00 
       00017D1E 00 00 00 00 00 00 00 00 00 00 
       00017D28 00 00 00 00 00 00 00 00 00 00 
       00017D32 00 00 00 00 00 00 00 00 00 00 
       00017D3C 00 00 00 00 00 00 00 00 00 00 
       00017D46 00 00 00 00 00 00 00 00 00 00 
       00017D50 00 00 00 00 00 00 00 00 00 00 
       00017D5A 00 00 00 00 00 00 00 00 00 00 
       00017D64 00 00 00 00 00 00 00 00 00 00 
       00017D6E 00 00 00 00 00 00 00 00 00 00 
       00017D78 00 00 00 00 00 00 00 00 00 00 
       00017D82 00 00 00 00 00 00 00 00 00 00 
       00017D8C 00 00 00 00 00 00 00 00 00 00 
       00017D96 00 00 00 00 00 00 00 00 00 00 
       00017DA0 00 00 00 00 00 00 00 00 00 00 
       00017DAA 00 00 00 00 00 00 00 00 00 00 
       00017DB4 00 00 00 00 00 00 00 00 00 00 
       00017DBE 00 00 00 00 00 00 00 00 00 00 
       00017DC8 00 00 00 00 00 00 00 00 00 00 
       00017DD2 00 00 00 00 00 00 00 00 00 00 
       00017DDC 00 00 00 00 00 00 00 00 00 00 
       00017DE6 00 00 00 00 00 00 00 00 00 00 
       00017DF0 00 00 00 00 00 00 00 00 00 00 
       00017DFA 00 00 00 00 00 00 00 00 00 00 
       00017E04 00 00 00 00 00 00 00 00 00 00 
       00017E0E 00 00 00 00 00 00 00 00 00 00 
       00017E18 00 00 00 00 00 00 00 00 00 00 
       00017E22 00 00 00 00 00 00 00 00 00 00 
       00017E2C 00 00 00 00 00 00 00 00 00 00 
       00017E36 00 00 00 00 00 00 00 00 00 00 
       00017E40 00 00 00 00 00 00 00 00 00 00 
       00017E4A 00 00 00 00 00 00 00 00 00 00 
       00017E54 00 00 00 00 00 00 00 00 00 00 
       00017E5E 00 00 00 00 00 00 00 00 00 00 
       00017E68 00 00 00 00 00 00 00 00 00 00 
       00017E72 00 00 00 00 00 00 00 00 00 00 
       00017E7C 00 00 00 00 00 00 00 00 00 00 
       00017E86 00 00 00 00 00 00 00 00 00 00 
       00017E90 00 00 00 00 00 00 00 00 00 00 
       00017E9A 00 00 00 00 00 00 00 00 00 00 
       00017EA4 00 00 00 00 00 00 00 00 00 00 
       00017EAE 00 00 00 00 00 00 00 00 00 00 
       00017EB8 00 00 00 00 00 00 00 00 00 00 
       00017EC2 00 00 00 00 00 00 00 00 00 00 
       00017ECC 00 00 00 00 00 00 00 00 00 00 
       00017ED6 00 00 00 00 00 00 00 00 00 00 
       00017EE0 00 00 00 00 00 00 00 00 00 00 
       00017EEA 00 00 00 00 00 00 00 00 00 00 
       00017EF4 00 00 00 00 00 00 00 00 00 00 
       00017EFE 00 00 00 00 00 00 00 00 00 00 
       00017F08 00 00 00 00 00 00 00 00 00 00 
       00017F12 00 00 00 00 00 00 00 00 00 00 
       00017F1C 00 00 00 00 00 00 00 00 00 00 
       00017F26 00 00 00 00 00 00 00 00 00 00 
       00017F30 00 00 00 00 00 00 00 00 00 00 
       00017F3A 00 00 00 00 00 00 00 00 00 00 
       00017F44 00 00 00 00 00 00 00 00 00 00 
       00017F4E 00 00 00 00 00 00 00 00 00 00 
       00017F58 00 00 00 00 00 00 00 00 00 00 
       00017F62 00 00 00 00 00 00 00 00 00 00 
       00017F6C 00 00 00 00 00 00 00 00 00 00 
       00017F76 00 00 00 00 00 00 00 00 00 00 
       00017F80 00 00 00 00 00 00 00 00 00 00 
       00017F8A 00 00 00 00 00 00 00 00 00 00 
       00017F94 00 00 00 00 00 00 00 00 00 00 
       00017F9E 00 00 00 00 00 00 00 00 00 00 
       00017FA8 00 00 00 00 00 00 00 00 00 00 
       00017FB2 00 00 00 00 00 00 00 00 00 00 
       00017FBC 00 00 00 00 00 00 00 00 00 00 
       00017FC6 00 00 00 00 00 00 00 00 00 00 
       00017FD0 00 00 00 00 00 00 00 00 00 00 
       00017FDA 00 00 00 00 00 00 00 00 00 00 
       00017FE4 00 00 00 00 00 00 00 00 00 00 
       00017FEE 00 00 00 00 00 00 00 00 00 00 
       00017FF8 00 00 00 00 00 00 00 00 00 00 
       00018002 00 00 00 00 00 00 00 00 00 00 
       0001800C 00 00 00 00 00 00 00 00 00 00 
       00018016 00 00 00 00 00 00 00 00 00 00 
       00018020 00 00 00 00 00 00 00 00 00 00 
       0001802A 00 00 00 00 00 00 00 00 00 00 
       00018034 00 00 00 00 00 00 00 00 00 00 
       0001803E 00 00 00 00 00 00 00 00 00 00 
       00018048 00 00 00 00 00 00 00 00 00 00 
       00018052 00 00 00 00 00 00 00 00 00 00 
       0001805C 00 00 00 00 00 00 00 00 00 00 
       00018066 00 00 00 00 00 00 00 00 00 00 
       00018070 00 00 00 00 00 00 00 00 00 00 
       0001807A 00 00 00 00 00 00 00 00 00 00 
       00018084 00 00 00 00 00 00 00 00 00 00 
       0001808E 00 00 00 00 00 00 00 00 00 00 
       00018098 00 00 00 00 00 00 00 00 00 00 
       000180A2 00 00 00 00 00 00 00 00 00 00 
       000180AC 00 00 00 00 00 00 00 00 00 00 
       000180B6 00 00 00 00 00 00 00 00 00 00 
       000180C0 00 00 00 00 00 00 00 00 00 00 
       000180CA 00 00 00 00 00 00 00 00 00 00 
       000180D4 00 00 00 00 00 00 00 00 00 00 
       000180DE 00 00 00 00 00 00 00 00 00 00 
       000180E8 00 00 00 00 00 00 00 00 00 00 
       000180F2 00 00 00 00 00 00 00 00 00 00 
       000180FC 00 00 00 00 00 00 00 00 00 00 
       00018106 00 00 00 00 00 00 00 00 00 00 
       00018110 00 00 00 00 00 00 00 00 00 00 
       0001811A 00 00 00 00 00 00 00 00 00 00 
       00018124 00 00 00 00 00 00 00 00 00 00 
       0001812E 00 00 00 00 00 00 00 00 00 00 
       00018138 00 00 00 00 00 00 00 00 00 00 
       00018142 00 00 00 00 00 00 00 00 00 00 
       0001814C 00 00 00 00 00 00 00 00 00 00 
       00018156 00 00 00 00 00 00 00 00 00 00 
       00018160 00 00 00 00 00 00 00 00 00 00 
       0001816A 00 00 00 00 00 00 00 00 00 00 
       00018174 00 00 00 00 00 00 00 00 00 00 
       0001817E 00 00 00 00 00 00 00 00 00 00 
       00018188 00 00 00 00 00 00 00 00 00 00 
       00018192 00 00 00 00 00 00 00 00 00 00 
       0001819C 00 00 00 00 00 00 00 00 00 00 
       000181A6 00 00 00 00 00 00 00 00 00 00 
       000181B0 00 00 00 00 00 00 00 00 00 00 
       000181BA 00 00 00 00 00 00 00 00 00 00 
       000181C4 00 00 00 00 00 00 00 00 00 00 
       000181CE 00 00 00 00 00 00 00 00 00 00 
       000181D8 00 00 00 00 00 00 00 00 00 00 
       000181E2 00 00 00 00 00 00 00 00 00 00 
       000181EC 00 00 00 00 00 00 00 00 00 00 
       000181F6 00 00 00 00 00 00 00 00 00 00 
       00018200 00 00 00 00 00 00 00 00 00 00 
       0001820A 00 00 00 00 00 00 00 00 00 00 
       00018214 00 00 00 00 00 00 00 00 00 00 
       0001821E 00 00 00 00 00 00 00 00 00 00 
       00018228 00 00 00 00 00 00 00 00 00 00 
       00018232 00 00 00 00 00 00 00 00 00 00 
       0001823C 00 00 00 00 00 00 00 00 00 00 
       00018246 00 00 00 00 00 00 00 00 00 00 
       00018250 00 00 00 00 00 00 00 00 00 00 
       0001825A 00 00 00 00 00 00 00 00 00 00 
       00018264 00 00 00 00 00 00 00 00 00 00 
       0001826E 00 00 00 00 00 00 00 00 00 00 
       00018278 00 00 00 00 00 00 00 00 00 00 
       00018282 00 00 00 00 00 00 00 00 00 00 
       0001828C 00 00 00 00 00 00 00 00 00 00 
       00018296 00 00 00 00 00 00 00 00 00 00 
       000182A0 00 00 00 00 00 00 00 00 00 00 
       000182AA 00 00 00 00 00 00 00 00 00 00 
       000182B4 00 00 00 00 00 00 00 00 00 00 
       000182BE 00 00 00 00 00 00 00 00 00 00 
       000182C8 00 00 00 00 00 00 00 00 00 00 
       000182D2 00 00 00 00 00 00 00 00 00 00 
       000182DC 00 00 00 00 00 00 00 00 00 00 
       000182E6 00 00 00 00 00 00 00 00 00 00 
       000182F0 00 00 00 00 00 00 00 00 00 00 
       000182FA 00 00 00 00 00 00 00 00 00 00 
       00018304 00 00 00 00 00 00 00 00 00 00 
       0001830E 00 00 00 00 00 00 00 00 00 00 
       00018318 00 00 00 00 00 00 00 00 00 00 
       00018322 00 00 00 00 00 00 00 00 00 00 
       0001832C 00 00 00 00 00 00 00 00 00 00 
       00018336 00 00 00 00 00 00 00 00 00 00 
       00018340 00 00 00 00 00 00 00 00 00 00 
       0001834A 00 00 00 00 00 00 00 00 00 00 
       00018354 00 00 00 00 00 00 00 00 00 00 
       0001835E 00 00 00 00 00 00 00 00 00 00 
       00018368 00 00 00 00 00 00 00 00 00 00 
       00018372 00 00 00 00 00 00 00 00 00 00 
       0001837C 00 00 00 00 00 00 00 00 00 00 
       00018386 00 00 00 00 00 00 00 00 00 00 
       00018390 00 00 00 00 00 00 00 00 00 00 
       0001839A 00 00 00 00 00 00 00 00 00 00 
       000183A4 00 00 00 00 00 00 00 00 00 00 
       000183AE 00 00 00 00 00 00 00 00 00 00 
       000183B8 00 00 00 00 00 00 00 00 00 00 
       000183C2 00 00 00 00 00 00 00 00 00 00 
       000183CC 00 00 00 00 00 00 00 00 00 00 
       000183D6 00 00 00 00 00 00 00 00 00 00 
       000183E0 00 00 00 00 00 00 00 00 00 00 
       000183EA 00 00 00 00 00 00 00 00 00 00 
       000183F4 00 00 00 00 00 00 00 00 00 00 
       000183FE 00 00 00 00 00 00 00 00 00 00 
       00018408 00 00 00 00 00 00 00 00 00 00 
       00018412 00 00 00 00 00 00 00 00 00 00 
       0001841C 00 00 00 00 00 00 00 00 00 00 
       00018426 00 00 00 00 00 00 00 00 00 00 
       00018430 00 00 00 00 00 00 00 00 00 00 
       0001843A 00 00 00 00 00 00 00 00 00 00 
       00018444 00 00 00 00 00 00 00 00 00 00 
       0001844E 00 00 00 00 00 00 00 00 00 00 
       00018458 00 00 00 00 00 00 00 00 00 00 
       00018462 00 00 00 00 00 00 00 00 00 00 
       0001846C 00 00 00 00 00 00 00 00 00 00 
       00018476 00 00 00 00 00 00 00 00 00 00 
       00018480 00 00 00 00 00 00 00 00 00 00 
       0001848A 00 00 00 00 00 00 00 00 00 00 
       00018494 00 00 00 00 00 00 00 00 00 00 
       0001849E 00 00 00 00 00 00 00 00 00 00 
       000184A8 00 00 00 00 00 00 00 00 00 00 
       000184B2 00 00 00 00 00 00 00 00 00 00 
       000184BC 00 00 00 00 00 00 00 00 00 00 
       000184C6 00 00 00 00 00 00 00 00 00 00 
       000184D0 00 00 00 00 00 00 00 00 00 00 
       000184DA 00 00 00 00 00 00 00 00 00 00 
       000184E4 00 00 00 00 00 00 00 00 00 00 
       000184EE 00 00 00 00 00 00 00 00 00 00 
       000184F8 00 00 00 00 00 00 00 00 00 00 
       00018502 00 00 00 00 00 00 00 00 00 00 
       0001850C 00 00 00 00 00 00 00 00 00 00 
       00018516 00 00 00 00 00 00 00 00 00 00 
       00018520 00 00 00 00 00 00 00 00 00 00 
       0001852A 00 00 00 00 00 00 00 00 00 00 
       00018534 00 00 00 00 00 00 00 00 00 00 
       0001853E 00 00 00 00 00 00 00 00 00 00 
       00018548 00 00 00 00 00 00 00 00 00 00 
       00018552 00 00 00 00 00 00 00 00 00 00 
       0001855C 00 00 00 00 00 00 00 00 00 00 
       00018566 00 00 00 00 00 00 00 00 00 00 
       00018570 00 00 00 00 00 00 00 00 00 00 
       0001857A 00 00 00 00 00 00 00 00 00 00 
       00018584 00 00 00 00 00 00 00 00 00 00 
       0001858E 00 00 00 00 00 00 00 00 00 00 
       00018598 00 00 00 00 00 00 00 00 00 00 
       000185A2 00 00 00 00 00 00 00 00 00 00 
       000185AC 00 00 00 00 00 00 00 00 00 00 
       000185B6 00 00 00 00 00 00 00 00 00 00 
       000185C0 00 00 00 00 00 00 00 00 00 00 
       000185CA 00 00 00 00 00 00 00 00 00 00 
       000185D4 00 00 00 00 00 00 00 00 00 00 
       000185DE 00 00 00 00 00 00 00 00 00 00 
       000185E8 00 00 00 00 00 00 00 00 00 00 
       000185F2 00 00 00 00 00 00 00 00 00 00 
       000185FC 00 00 00 00 00 00 00 00 00 00 
       00018606 00 00 00 00 00 00 00 00 00 00 
       00018610 00 00 00 00 00 00 00 00 00 00 
       0001861A 00 00 00 00 00 00 00 00 00 00 
       00018624 00 00 00 00 00 00 00 00 00 00 
       0001862E 00 00 00 00 00 00 00 00 00 00 
       00018638 00 00 00 00 00 00 00 00 00 00 
       00018642 00 00 00 00 00 00 00 00 00 00 
       0001864C 00 00 00 00 00 00 00 00 00 00 
       00018656 00 00 00 00 00 00 00 00 00 00 
       00018660 00 00 00 00 00 00 00 00 00 00 
       0001866A 00 00 00 00 00 00 00 00 00 00 
       00018674 00 00 00 00 00 00 00 00 00 00 
       0001867E 00 00 00 00 00 00 00 00 00 00 
       00018688 00 00 00 00 00 00 00 00 00 00 
       00018692 00 00 00 00 00 00 00 00 00 00 
       0001869C 00 00 00 00 00 00 00 00 00 00 
       000186A6 00 00 00 00 00 00 00 00 00 00 
       000186B0 00 00 00 00 00 00 00 00 00 00 
       000186BA 00 00 00 00 00 00 00 00 00 00 
       000186C4 00 00 00 00 00 00 00 00 00 00 
       000186CE 00 00 00 00 00 00 00 00 00 00 
       000186D8 00 00 00 00 00 00 00 00 00 00 
       000186E2 00 00 00 00 00 00 00 00 00 00 
       000186EC 00 00 00 00 00 00 00 00 00 00 
       000186F6 00 00 00 00 00 00 00 00 00 00 
       00018700 00 00 00 00 00 00 00 00 00 00 
       0001870A 00 00 00 00 00 00 00 00 00 00 
       00018714 00 00 00 00 00 00 00 00 00 00 
       0001871E 00 00 00 00 00 00 00 00 00 00 
       00018728 00 00 00 00 00 00 00 00 00 00 
       00018732 00 00 00 00 00 00 00 00 00 00 
       0001873C 00 00 00 00 00 00 00 00 00 00 
       00018746 00 00 00 00 00 00 00 00 00 00 
       00018750 00 00 00 00 00 00 00 00 00 00 
       0001875A 00 00 00 00 00 00 00 00 00 00 
       00018764 00 00 00 00 00 00 00 00 00 00 
       0001876E 00 00 00 00 00 00 00 00 00 00 
       00018778 00 00 00 00 00 00 00 00 00 00 
       00018782 00 00 00 00 00 00 00 00 00 00 
       0001878C 00 00 00 00 00 00 00 00 00 00 
       00018796 00 00 00 00 00 00 00 00 00 00 
       000187A0 00 00 00 00 00 00 00 00 00 00 
       000187AA 00 00 00 00 00 00 00 00 00 00 
       000187B4 00 00 00 00 00 00 00 00 00 00 
       000187BE 00 00 00 00 00 00 00 00 00 00 
       000187C8 00 00 00 00 00 00 00 00 00 00 
       000187D2 00 00 00 00 00 00 00 00 00 00 
       000187DC 00 00 00 00 00 00 00 00 00 00 
       000187E6 00 00 00 00 00 00 00 00 00 00 
       000187F0 00 00 00 00 00 00 00 00 00 00 
       000187FA 00 00 00 00 00 00 00 00 00 00 
       00018804 00 00 00 00 00 00 00 00 00 00 
       0001880E 00 00 00 00 00 00 00 00 00 00 
       00018818 00 00 00 00 00 00 00 00 00 00 
       00018822 00 00 00 00 00 00 00 00 00 00 
       0001882C 00 00 00 00 00 00 00 00 00 00 
       00018836 00 00 00 00 00 00 00 00 00 00 
       00018840 00 00 00 00 00 00 00 00 00 00 
       0001884A 00 00 00 00 00 00 00 00 00 00 
       00018854 00 00 00 00 00 00 00 00 00 00 
       0001885E 00 00 00 00 00 00 00 00 00 00 
       00018868 00 00 00 00 00 00 00 00 00 00 
       00018872 00 00 00 00 00 00 00 00 00 00 
       0001887C 00 00 00 00 00 00 00 00 00 00 
       00018886 00 00 00 00 00 00 00 00 00 00 
       00018890 00 00 00 00 00 00 00 00 00 00 
       0001889A 00 00 00 00 00 00 00 00 00 00 
       000188A4 00 00 00 00 00 00 00 00 00 00 
       000188AE 00 00 00 00 00 00 00 00 00 00 
       000188B8 00 00 00 00 00 00 00 00 00 00 
       000188C2 00 00 00 00 00 00 00 00 00 00 
       000188CC 00 00 00 00 00 00 00 00 00 00 
       000188D6 00 00 00 00 00 00 00 00 00 00 
       000188E0 00 00 00 00 00 00 00 00 00 00 
       000188EA 00 00 00 00 00 00 00 00 00 00 
       000188F4 00 00 00 00 00 00 00 00 00 00 
       000188FE 00 00 00 00 00 00 00 00 00 00 
       00018908 00 00 00 00 00 00 00 00 00 00 
       00018912 00 00 00 00 00 00 00 00 00 00 
       0001891C 00 00 00 00 00 00 00 00 00 00 
       00018926 00 00 00 00 00 00 00 00 00 00 
       00018930 00 00 00 00 00 00 00 00 00 00 
       0001893A 00 00 00 00 00 00 00 00 00 00 
       00018944 00 00 00 00 00 00 00 00 00 00 
       0001894E 00 00 00 00 00 00 00 00 00 00 
       00018958 00 00 00 00 00 00 00 00 00 00 
       00018962 00 00 00 00 00 00 00 00 00 00 
       0001896C 00 00 00 00 00 00 00 00 00 00 
       00018976 00 00 00 00 00 00 00 00 00 00 
