     1 00000000                                 [FORMAT "WCOFF"]
     2 00000000                                 [INSTRSET "i486p"]
     3 00000000                                 [OPTIMIZE 1]
     4 00000000                                 [OPTION 1]
     5 00000000                                 [BITS 32]
     6 00000000                                 	EXTERN	_HDEntry
     7 00000000                                 	EXTERN	_FSEntry
     8 00000000                                 	EXTERN	_io_cli
     9 00000000                                 	EXTERN	_io_sti
    10 00000000                                 	EXTERN	_io_hlt
    11 00000000                                 	EXTERN	_strcmp
    12 00000000                                 [FILE "driver.c"]
    13 00000000                                 	GLOBAL	_dDevs
    14                                          [SECTION .data]
    15 00000000                                 LC0:
    16 00000000 49 64 65 20 48 44 00            	DB	"Ide HD",0x00
    17 00000007                                 LC1:
    18 00000007 46 53 00                        	DB	"FS",0x00
    19 0000000A 00 00                           	ALIGNB	4
    20 0000000C                                 _dDevs:
    21 0000000C [00000000]                      	DD	LC0
    22 00000010 [00000000]                      	DD	_HDEntry
    23 00000014 00 00 00 00                     	RESB	4
    24 00000018 [00000007]                      	DD	LC1
    25 0000001C [00000000]                      	DD	_FSEntry
    26 00000020 00 00 00 00                     	RESB	4
    27 00000024                                 	GLOBAL	_etable
    28 00000024                                 LC2:
    29 00000024 48 41 46 53 00                  	DB	"HAFS",0x00
    30 00000029                                 LC3:
    31 00000029 68 61 66 73 2E 73 79 73 00      	DB	"hafs.sys",0x00
    32 00000032                                 LC4:
    33 00000032 49 4F 00                        	DB	"IO",0x00
    34 00000035                                 LC5:
    35 00000035 69 6F 2E 73 79 73 00            	DB	"io.sys",0x00
    36 0000003C                                 LC6:
    37 0000003C 4E 45 54 00                     	DB	"NET",0x00
    38 00000040                                 LC7:
    39 00000040 6E 65 74 2E 73 79 73 00         	DB	"net.sys",0x00
    40 00000048                                 LC8:
    41 00000048 53 45 54 4D 00                  	DB	"SETM",0x00
    42 0000004D                                 LC9:
    43 0000004D 73 65 74 6D 2E 73 79 73 00      	DB	"setm.sys",0x00
    44 00000056                                 LC10:
    45 00000056 53 45 54 48 00                  	DB	"SETH",0x00
    46 0000005B                                 LC11:
    47 0000005B 73 65 74 68 2E 73 79 73 00      	DB	"seth.sys",0x00
    48 00000064                                 _etable:
    49 00000064 [00000024]                      	DD	LC2
    50 00000068 [00000029]                      	DD	LC3
    51 0000006C 00 00 00 00                     	RESB	4
    52 00000070 [00000032]                      	DD	LC4
    53 00000074 [00000035]                      	DD	LC5
    54 00000078 00 00 00 00                     	RESB	4
    55 0000007C [0000003C]                      	DD	LC6
    56 00000080 [00000040]                      	DD	LC7
    57 00000084 00 00 00 00                     	RESB	4
    58 00000088 [00000048]                      	DD	LC8
    59 0000008C [0000004D]                      	DD	LC9
    60 00000090 00 00 00 00                     	RESB	4
    61 00000094 [00000056]                      	DD	LC10
    62 00000098 [0000005B]                      	DD	LC11
    63 0000009C 00 00 00 00                     	RESB	4
    64                                          [SECTION .text]
    65 00000000                                 	GLOBAL	_LDevs
    66 00000000                                 _LDevs:
    67 00000000 55                              	PUSH	EBP
    68 00000001 89 E5                           	MOV	EBP,ESP
    69 00000003 57                              	PUSH	EDI
    70 00000004 56                              	PUSH	ESI
    71 00000005 31 FF                           	XOR	EDI,EDI
    72 00000007 53                              	PUSH	EBX
    73 00000008 31 F6                           	XOR	ESI,ESI
    74 0000000A 83 EC 10                        	SUB	ESP,16
    75 0000000D E8 [00000000]                   	CALL	_io_cli
    76 00000012                                 L7:
    77 00000012 8B 86 [0000000C]                	MOV	EAX,DWORD [_dDevs+ESI]
    78 00000018 8D 5D E4                        	LEA	EBX,DWORD [-28+EBP]
    79 0000001B 89 45 E4                        	MOV	DWORD [-28+EBP],EAX
    80 0000001E 89 9E [00000014]                	MOV	DWORD [_dDevs+8+ESI],EBX
    81 00000024 8B 45 08                        	MOV	EAX,DWORD [8+EBP]
    82 00000027 89 45 E8                        	MOV	DWORD [-24+EBP],EAX
    83 0000002A E8 [00000000]                   	CALL	_io_sti
    84 0000002F 53                              	PUSH	EBX
    85 00000030 FF 96 [00000010]                	CALL	DWORD [_dDevs+4+ESI]
    86 00000036 5A                              	POP	EDX
    87 00000037 31 D2                           	XOR	EDX,EDX
    88 00000039 85 C0                           	TEST	EAX,EAX
    89 0000003B 74 18                           	JE	L1
    90 0000003D 47                              	INC	EDI
    91 0000003E E8 [00000000]                   	CALL	_io_hlt
    92 00000043 83 C6 0C                        	ADD	ESI,12
    93 00000046 83 FF 01                        	CMP	EDI,1
    94 00000049 7E C7                           	JLE	L7
    95 0000004B E8 [00000000]                   	CALL	_io_sti
    96 00000050 BA 00000001                     	MOV	EDX,1
    97 00000055                                 L1:
    98 00000055 8D 65 F4                        	LEA	ESP,DWORD [-12+EBP]
    99 00000058 89 D0                           	MOV	EAX,EDX
   100 0000005A 5B                              	POP	EBX
   101 0000005B 5E                              	POP	ESI
   102 0000005C 5F                              	POP	EDI
   103 0000005D 5D                              	POP	EBP
   104 0000005E C3                              	RET
   105 0000005F                                 	GLOBAL	_GetMyObj
   106 0000005F                                 _GetMyObj:
   107 0000005F 55                              	PUSH	EBP
   108 00000060 89 E5                           	MOV	EBP,ESP
   109 00000062 57                              	PUSH	EDI
   110 00000063 56                              	PUSH	ESI
   111 00000064 31 F6                           	XOR	ESI,ESI
   112 00000066 53                              	PUSH	EBX
   113 00000067 8B 7D 08                        	MOV	EDI,DWORD [8+EBP]
   114 0000006A 31 DB                           	XOR	EBX,EBX
   115 0000006C                                 L16:
   116 0000006C 57                              	PUSH	EDI
   117 0000006D FF B3 [0000000C]                	PUSH	DWORD [_dDevs+EBX]
   118 00000073 E8 [00000000]                   	CALL	_strcmp
   119 00000078 59                              	POP	ECX
   120 00000079 5A                              	POP	EDX
   121 0000007A 85 C0                           	TEST	EAX,EAX
   122 0000007C 74 13                           	JE	L19
   123 0000007E 46                              	INC	ESI
   124 0000007F 83 C3 0C                        	ADD	EBX,12
   125 00000082 83 FE 01                        	CMP	ESI,1
   126 00000085 7E E5                           	JLE	L16
   127 00000087 31 C0                           	XOR	EAX,EAX
   128 00000089                                 L10:
   129 00000089 8D 65 F4                        	LEA	ESP,DWORD [-12+EBP]
   130 0000008C 5B                              	POP	EBX
   131 0000008D 5E                              	POP	ESI
   132 0000008E 5F                              	POP	EDI
   133 0000008F 5D                              	POP	EBP
   134 00000090 C3                              	RET
   135 00000091                                 L19:
   136 00000091 8B 83 [00000014]                	MOV	EAX,DWORD [_dDevs+8+EBX]
   137 00000097 EB F0                           	JMP	L10
