     1 00000000                                 [FORMAT "WCOFF"]
     2 00000000                                 [INSTRSET "i486p"]
     3 00000000                                 [OPTIMIZE 1]
     4 00000000                                 [OPTION 1]
     5 00000000                                 [BITS 32]
     6 00000000                                 	EXTERN	_io_out8
     7 00000000                                 	EXTERN	_ReadWordStringFromPort
     8 00000000                                 	EXTERN	_io_out16
     9 00000000                                 	EXTERN	_io_in8
    10 00000000                                 	EXTERN	_inws
    11 00000000                                 	EXTERN	_printk
    12 00000000                                 [FILE "hd.c"]
    13 00000000                                 	GLOBAL	_hd_int
    14                                          [SECTION .data]
    15 00000000                                 	ALIGNB	4
    16 00000000                                 _hd_int:
    17 00000000 00000000                        	DD	0
    18                                          [SECTION .text]
    19 00000000                                 	GLOBAL	_readhddisk
    20 00000000                                 _readhddisk:
    21 00000000 55                              	PUSH	EBP
    22 00000001 89 E5                           	MOV	EBP,ESP
    23 00000003 57                              	PUSH	EDI
    24 00000004 56                              	PUSH	ESI
    25 00000005 53                              	PUSH	EBX
    26 00000006 50                              	PUSH	EAX
    27 00000007 8B 45 14                        	MOV	EAX,DWORD [20+EBP]
    28 0000000A 8B 5D 10                        	MOV	EBX,DWORD [16+EBP]
    29 0000000D 8B 75 08                        	MOV	ESI,DWORD [8+EBP]
    30 00000010 8B 7D 0C                        	MOV	EDI,DWORD [12+EBP]
    31 00000013 89 45 F0                        	MOV	DWORD [-16+EBP],EAX
    32 00000016 6A 00                           	PUSH	0
    33 00000018 68 000001F7                     	PUSH	503
    34 0000001D E8 0000021B                     	CALL	_WaitForBsy
    35 00000022 6A 00                           	PUSH	0
    36 00000024 68 000001F7                     	PUSH	503
    37 00000029 E8 000001E2                     	CALL	_WaitForRdy
    38 0000002E 6A 00                           	PUSH	0
    39 00000030 68 000003F6                     	PUSH	1014
    40 00000035 E8 [00000000]                   	CALL	_io_out8
    41 0000003A 6A 00                           	PUSH	0
    42 0000003C 68 000001F1                     	PUSH	497
    43 00000041 E8 [00000000]                   	CALL	_io_out8
    44 00000046 83 C4 20                        	ADD	ESP,32
    45 00000049 57                              	PUSH	EDI
    46 0000004A 68 000001F2                     	PUSH	498
    47 0000004F E8 [00000000]                   	CALL	_io_out8
    48 00000054 53                              	PUSH	EBX
    49 00000055 C1 FB 08                        	SAR	EBX,8
    50 00000058 68 000001F3                     	PUSH	499
    51 0000005D E8 [00000000]                   	CALL	_io_out8
    52 00000062 53                              	PUSH	EBX
    53 00000063 C1 FB 08                        	SAR	EBX,8
    54 00000066 68 000001F4                     	PUSH	500
    55 0000006B E8 [00000000]                   	CALL	_io_out8
    56 00000070 53                              	PUSH	EBX
    57 00000071 68 000001F5                     	PUSH	501
    58 00000076 E8 [00000000]                   	CALL	_io_out8
    59 0000007B 83 C4 20                        	ADD	ESP,32
    60 0000007E 89 D8                           	MOV	EAX,EBX
    61 00000080 C1 F8 08                        	SAR	EAX,8
    62 00000083 4E                              	DEC	ESI
    63 00000084 74 4A                           	JE	L4
    64 00000086 0D 000000E0                     	OR	EAX,224
    65 0000008B                                 L3:
    66 0000008B C1 E7 08                        	SAL	EDI,8
    67 0000008E 50                              	PUSH	EAX
    68 0000008F 68 000001F6                     	PUSH	502
    69 00000094 E8 [00000000]                   	CALL	_io_out8
    70 00000099 6A 20                           	PUSH	32
    71 0000009B 68 000001F7                     	PUSH	503
    72 000000A0 E8 [00000000]                   	CALL	_io_out8
    73 000000A5 6A 00                           	PUSH	0
    74 000000A7 68 000001F7                     	PUSH	503
    75 000000AC E8 000001BE                     	CALL	_WaitForDrq
    76 000000B1 8B 45 F0                        	MOV	EAX,DWORD [-16+EBP]
    77 000000B4 C7 45 10 000001F0               	MOV	DWORD [16+EBP],496
    78 000000BB 89 7D 0C                        	MOV	DWORD [12+EBP],EDI
    79 000000BE 89 45 08                        	MOV	DWORD [8+EBP],EAX
    80 000000C1 83 C4 18                        	ADD	ESP,24
    81 000000C4 8D 65 F4                        	LEA	ESP,DWORD [-12+EBP]
    82 000000C7 5B                              	POP	EBX
    83 000000C8 5E                              	POP	ESI
    84 000000C9 5F                              	POP	EDI
    85 000000CA 5D                              	POP	EBP
    86 000000CB E9 [00000000]                   	JMP	_ReadWordStringFromPort
    87 000000D0                                 L4:
    88 000000D0 0D 000000F0                     	OR	EAX,240
    89 000000D5 EB B4                           	JMP	L3
    90 000000D7                                 	GLOBAL	_writehddisk
    91 000000D7                                 _writehddisk:
    92 000000D7 55                              	PUSH	EBP
    93 000000D8 89 E5                           	MOV	EBP,ESP
    94 000000DA 57                              	PUSH	EDI
    95 000000DB 56                              	PUSH	ESI
    96 000000DC 53                              	PUSH	EBX
    97 000000DD 53                              	PUSH	EBX
    98 000000DE 8B 45 14                        	MOV	EAX,DWORD [20+EBP]
    99 000000E1 8B 5D 10                        	MOV	EBX,DWORD [16+EBP]
   100 000000E4 8B 75 08                        	MOV	ESI,DWORD [8+EBP]
   101 000000E7 8B 7D 0C                        	MOV	EDI,DWORD [12+EBP]
   102 000000EA 89 45 F0                        	MOV	DWORD [-16+EBP],EAX
   103 000000ED 6A 00                           	PUSH	0
   104 000000EF 68 000001F7                     	PUSH	503
   105 000000F4 E8 00000144                     	CALL	_WaitForBsy
   106 000000F9 6A 00                           	PUSH	0
   107 000000FB 68 000001F7                     	PUSH	503
   108 00000100 E8 0000010B                     	CALL	_WaitForRdy
   109 00000105 6A 00                           	PUSH	0
   110 00000107 68 000003F6                     	PUSH	1014
   111 0000010C E8 [00000000]                   	CALL	_io_out8
   112 00000111 6A 00                           	PUSH	0
   113 00000113 68 000001F1                     	PUSH	497
   114 00000118 E8 [00000000]                   	CALL	_io_out8
   115 0000011D 83 C4 20                        	ADD	ESP,32
   116 00000120 57                              	PUSH	EDI
   117 00000121 68 000001F2                     	PUSH	498
   118 00000126 E8 [00000000]                   	CALL	_io_out8
   119 0000012B 53                              	PUSH	EBX
   120 0000012C C1 FB 08                        	SAR	EBX,8
   121 0000012F 68 000001F3                     	PUSH	499
   122 00000134 E8 [00000000]                   	CALL	_io_out8
   123 00000139 53                              	PUSH	EBX
   124 0000013A C1 FB 08                        	SAR	EBX,8
   125 0000013D 68 000001F4                     	PUSH	500
   126 00000142 E8 [00000000]                   	CALL	_io_out8
   127 00000147 53                              	PUSH	EBX
   128 00000148 68 000001F5                     	PUSH	501
   129 0000014D E8 [00000000]                   	CALL	_io_out8
   130 00000152 83 C4 20                        	ADD	ESP,32
   131 00000155 89 D8                           	MOV	EAX,EBX
   132 00000157 C1 F8 08                        	SAR	EAX,8
   133 0000015A 4E                              	DEC	ESI
   134 0000015B 0F 84 000000A5                  	JE	L15
   135 00000161 0D 000000E0                     	OR	EAX,224
   136 00000166                                 L7:
   137 00000166 50                              	PUSH	EAX
   138 00000167 31 DB                           	XOR	EBX,EBX
   139 00000169 68 000001F6                     	PUSH	502
   140 0000016E E8 [00000000]                   	CALL	_io_out8
   141 00000173 6A 30                           	PUSH	48
   142 00000175 68 000001F7                     	PUSH	503
   143 0000017A E8 [00000000]                   	CALL	_io_out8
   144 0000017F 6A 00                           	PUSH	0
   145 00000181 68 000001F7                     	PUSH	503
   146 00000186 E8 000000B2                     	CALL	_WaitForBsy
   147 0000018B 6A 00                           	PUSH	0
   148 0000018D 68 000001F7                     	PUSH	503
   149 00000192 E8 000000D8                     	CALL	_WaitForDrq
   150 00000197 89 F8                           	MOV	EAX,EDI
   151 00000199 C1 E0 08                        	SAL	EAX,8
   152 0000019C 83 C4 20                        	ADD	ESP,32
   153 0000019F 39 C3                           	CMP	EBX,EAX
   154 000001A1 7C 35                           	JL	L12
   155 000001A3                                 L14:
   156 000001A3 6A 00                           	PUSH	0
   157 000001A5 68 000001F7                     	PUSH	503
   158 000001AA E8 0000008E                     	CALL	_WaitForBsy
   159 000001AF 6A 00                           	PUSH	0
   160 000001B1 68 000001F7                     	PUSH	503
   161 000001B6 E8 00000055                     	CALL	_WaitForRdy
   162 000001BB 83 C4 10                        	ADD	ESP,16
   163 000001BE C7 45 0C 00000000               	MOV	DWORD [12+EBP],0
   164 000001C5 C7 45 08 000001F7               	MOV	DWORD [8+EBP],503
   165 000001CC 8D 65 F4                        	LEA	ESP,DWORD [-12+EBP]
   166 000001CF 5B                              	POP	EBX
   167 000001D0 5E                              	POP	ESI
   168 000001D1 5F                              	POP	EDI
   169 000001D2 5D                              	POP	EBP
   170 000001D3 E9 00000097                     	JMP	_WaitForDrq
   171 000001D8                                 L12:
   172 000001D8 8B 55 F0                        	MOV	EDX,DWORD [-16+EBP]
   173 000001DB 0F BE 44 5A 01                  	MOVSX	EAX,BYTE [1+EDX+EBX*2]
   174 000001E0 C1 E0 08                        	SAL	EAX,8
   175 000001E3 66 0F BE 14 5A                  	MOVSX	DX,BYTE [EDX+EBX*2]
   176 000001E8 09 C2                           	OR	EDX,EAX
   177 000001EA 43                              	INC	EBX
   178 000001EB 0F B7 D2                        	MOVZX	EDX,DX
   179 000001EE 52                              	PUSH	EDX
   180 000001EF 68 000001F0                     	PUSH	496
   181 000001F4 E8 [00000000]                   	CALL	_io_out16
   182 000001F9 89 F8                           	MOV	EAX,EDI
   183 000001FB C1 E0 08                        	SAL	EAX,8
   184 000001FE 5A                              	POP	EDX
   185 000001FF 59                              	POP	ECX
   186 00000200 39 C3                           	CMP	EBX,EAX
   187 00000202 7C D4                           	JL	L12
   188 00000204 EB 9D                           	JMP	L14
   189 00000206                                 L15:
   190 00000206 0D 000000F0                     	OR	EAX,240
   191 0000020B E9 FFFFFF56                     	JMP	L7
   192 00000210                                 	GLOBAL	_WaitForRdy
   193 00000210                                 _WaitForRdy:
   194 00000210 55                              	PUSH	EBP
   195 00000211 89 E5                           	MOV	EBP,ESP
   196 00000213 56                              	PUSH	ESI
   197 00000214 53                              	PUSH	EBX
   198 00000215 BB 00010000                     	MOV	EBX,65536
   199 0000021A 8B 75 08                        	MOV	ESI,DWORD [8+EBP]
   200 0000021D                                 L22:
   201 0000021D 0F B7 C6                        	MOVZX	EAX,SI
   202 00000220 50                              	PUSH	EAX
   203 00000221 E8 [00000000]                   	CALL	_io_in8
   204 00000226 5A                              	POP	EDX
   205 00000227 83 E0 40                        	AND	EAX,64
   206 0000022A 84 C0                           	TEST	AL,AL
   207 0000022C 75 03                           	JNE	L18
   208 0000022E 4B                              	DEC	EBX
   209 0000022F 75 EC                           	JNE	L22
   210 00000231                                 L18:
   211 00000231 8D 65 F8                        	LEA	ESP,DWORD [-8+EBP]
   212 00000234 B8 00000001                     	MOV	EAX,1
   213 00000239 5B                              	POP	EBX
   214 0000023A 5E                              	POP	ESI
   215 0000023B 5D                              	POP	EBP
   216 0000023C C3                              	RET
   217 0000023D                                 	GLOBAL	_WaitForBsy
   218 0000023D                                 _WaitForBsy:
   219 0000023D 55                              	PUSH	EBP
   220 0000023E 89 E5                           	MOV	EBP,ESP
   221 00000240 57                              	PUSH	EDI
   222 00000241 56                              	PUSH	ESI
   223 00000242 31 FF                           	XOR	EDI,EDI
   224 00000244 53                              	PUSH	EBX
   225 00000245 8B 75 08                        	MOV	ESI,DWORD [8+EBP]
   226 00000248 BB 00010000                     	MOV	EBX,65536
   227 0000024D                                 L29:
   228 0000024D 0F B7 C6                        	MOVZX	EAX,SI
   229 00000250 50                              	PUSH	EAX
   230 00000251 E8 [00000000]                   	CALL	_io_in8
   231 00000256 59                              	POP	ECX
   232 00000257 84 C0                           	TEST	AL,AL
   233 00000259 79 0D                           	JNS	L30
   234 0000025B 4B                              	DEC	EBX
   235 0000025C 75 EF                           	JNE	L29
   236 0000025E                                 L25:
   237 0000025E 8D 65 F4                        	LEA	ESP,DWORD [-12+EBP]
   238 00000261 89 F8                           	MOV	EAX,EDI
   239 00000263 5B                              	POP	EBX
   240 00000264 5E                              	POP	ESI
   241 00000265 5F                              	POP	EDI
   242 00000266 5D                              	POP	EBP
   243 00000267 C3                              	RET
   244 00000268                                 L30:
   245 00000268 BF 00000001                     	MOV	EDI,1
   246 0000026D EB EF                           	JMP	L25
   247 0000026F                                 	GLOBAL	_WaitForDrq
   248 0000026F                                 _WaitForDrq:
   249 0000026F 55                              	PUSH	EBP
   250 00000270 89 E5                           	MOV	EBP,ESP
   251 00000272 57                              	PUSH	EDI
   252 00000273 56                              	PUSH	ESI
   253 00000274 31 FF                           	XOR	EDI,EDI
   254 00000276 53                              	PUSH	EBX
   255 00000277 8B 75 08                        	MOV	ESI,DWORD [8+EBP]
   256 0000027A BB 00010000                     	MOV	EBX,65536
   257 0000027F                                 L37:
   258 0000027F 0F B7 C6                        	MOVZX	EAX,SI
   259 00000282 50                              	PUSH	EAX
   260 00000283 E8 [00000000]                   	CALL	_io_in8
   261 00000288 5A                              	POP	EDX
   262 00000289 83 E0 08                        	AND	EAX,8
   263 0000028C 84 C0                           	TEST	AL,AL
   264 0000028E 75 0D                           	JNE	L38
   265 00000290 4B                              	DEC	EBX
   266 00000291 75 EC                           	JNE	L37
   267 00000293                                 L33:
   268 00000293 8D 65 F4                        	LEA	ESP,DWORD [-12+EBP]
   269 00000296 89 F8                           	MOV	EAX,EDI
   270 00000298 5B                              	POP	EBX
   271 00000299 5E                              	POP	ESI
   272 0000029A 5F                              	POP	EDI
   273 0000029B 5D                              	POP	EBP
   274 0000029C C3                              	RET
   275 0000029D                                 L38:
   276 0000029D BF 00000001                     	MOV	EDI,1
   277 000002A2 EB EF                           	JMP	L33
   278 000002A4                                 	GLOBAL	_identify_hd
   279 000002A4                                 _identify_hd:
   280 000002A4 55                              	PUSH	EBP
   281 000002A5 89 E5                           	MOV	EBP,ESP
   282 000002A7 6A 00                           	PUSH	0
   283 000002A9 68 000001F7                     	PUSH	503
   284 000002AE E8 FFFFFF8A                     	CALL	_WaitForBsy
   285 000002B3 6A 00                           	PUSH	0
   286 000002B5 68 000001F7                     	PUSH	503
   287 000002BA E8 FFFFFF51                     	CALL	_WaitForRdy
   288 000002BF B8 000000F0                     	MOV	EAX,240
   289 000002C4 83 7D 08 01                     	CMP	DWORD [8+EBP],1
   290 000002C8 74 05                           	JE	L43
   291 000002CA B8 000000E0                     	MOV	EAX,224
   292 000002CF                                 L43:
   293 000002CF 50                              	PUSH	EAX
   294 000002D0 68 000001F6                     	PUSH	502
   295 000002D5 E8 [00000000]                   	CALL	_io_out8
   296 000002DA 68 000000EC                     	PUSH	236
   297 000002DF 68 000001F7                     	PUSH	503
   298 000002E4 E8 [00000000]                   	CALL	_io_out8
   299 000002E9 83 C4 20                        	ADD	ESP,32
   300 000002EC 6A 00                           	PUSH	0
   301 000002EE 68 000001F7                     	PUSH	503
   302 000002F3 E8 FFFFFF77                     	CALL	_WaitForDrq
   303 000002F8 68 000001F0                     	PUSH	496
   304 000002FD 68 00000200                     	PUSH	512
   305 00000302 FF 75 0C                        	PUSH	DWORD [12+EBP]
   306 00000305 E8 [00000000]                   	CALL	_inws
   307 0000030A C9                              	LEAVE
   308 0000030B C3                              	RET
   309 0000030C                                 	GLOBAL	_IdeInitialize
   310 0000030C                                 _IdeInitialize:
   311 0000030C 55                              	PUSH	EBP
   312 0000030D 89 E5                           	MOV	EBP,ESP
   313 0000030F 6A 00                           	PUSH	0
   314 00000311 68 000001F7                     	PUSH	503
   315 00000316 E8 FFFFFF22                     	CALL	_WaitForBsy
   316 0000031B 6A 00                           	PUSH	0
   317 0000031D 68 000001F7                     	PUSH	503
   318 00000322 E8 FFFFFEE9                     	CALL	_WaitForRdy
   319 00000327 68 000003F6                     	PUSH	1014
   320 0000032C 6A 0E                           	PUSH	14
   321 0000032E E8 [00000000]                   	CALL	_io_out8
   322 00000333 6A 00                           	PUSH	0
   323 00000335 68 000001F7                     	PUSH	503
   324 0000033A E8 FFFFFEFE                     	CALL	_WaitForBsy
   325 0000033F 83 C4 20                        	ADD	ESP,32
   326 00000342 6A 00                           	PUSH	0
   327 00000344 68 000001F7                     	PUSH	503
   328 00000349 E8 FFFFFEC2                     	CALL	_WaitForRdy
   329 0000034E B8 00000001                     	MOV	EAX,1
   330 00000353 C9                              	LEAVE
   331 00000354 C3                              	RET
   332 00000355                                 	GLOBAL	_inthandler2e
   333 00000355                                 _inthandler2e:
   334 00000355 55                              	PUSH	EBP
   335 00000356 89 E5                           	MOV	EBP,ESP
   336 00000358 6A 66                           	PUSH	102
   337 0000035A 68 000000A0                     	PUSH	160
   338 0000035F E8 [00000000]                   	CALL	_io_out8
   339 00000364 6A 62                           	PUSH	98
   340 00000366 6A 20                           	PUSH	32
   341 00000368 E8 [00000000]                   	CALL	_io_out8
   342 0000036D 68 000001F7                     	PUSH	503
   343 00000372 E8 [00000000]                   	CALL	_io_in8
   344 00000377 C7 05 [00000000] 00000001       	MOV	DWORD [_hd_int],1
   345 00000381 C9                              	LEAVE
   346 00000382 C3                              	RET
   347                                          [SECTION .data]
   348 00000004                                 LC0:
   349 00000004 0A 0A 25 58 20 25 58 20 25 58   	DB	0x0A,0x0A,"%X %X %X %X %X %X %X %X",0x00
       0000000E 20 25 58 20 25 58 20 25 58 20 
       00000018 25 58 20 25 58 00 
   350                                          [SECTION .text]
   351 00000383                                 	GLOBAL	_HDEntry
   352 00000383                                 _HDEntry:
   353 00000383 55                              	PUSH	EBP
   354 00000384 31 C0                           	XOR	EAX,EAX
   355 00000386 89 E5                           	MOV	EBP,ESP
   356 00000388 81 EC 00000400                  	SUB	ESP,1024
   357 0000038E                                 L51:
   358 0000038E C6 84 05 FFFFFE00 00            	MOV	BYTE [-512+EBP+EAX*1],0
   359 00000396 40                              	INC	EAX
   360 00000397 3D 000001FF                     	CMP	EAX,511
   361 0000039C 7E F0                           	JLE	L51
   362 0000039E 6A 00                           	PUSH	0
   363 000003A0 68 000003F6                     	PUSH	1014
   364 000003A5 C6 45 FE 55                     	MOV	BYTE [-2+EBP],85
   365 000003A9 C6 45 FF AA                     	MOV	BYTE [-1+EBP],-86
   366 000003AD E8 [00000000]                   	CALL	_io_out8
   367 000003B2 68 00007C00                     	PUSH	31744
   368 000003B7 6A 00                           	PUSH	0
   369 000003B9 6A 01                           	PUSH	1
   370 000003BB 6A 00                           	PUSH	0
   371 000003BD E8 FFFFFD15                     	CALL	_writehddisk
   372 000003C2 8D 85 FFFFFC00                  	LEA	EAX,DWORD [-1024+EBP]
   373 000003C8 50                              	PUSH	EAX
   374 000003C9 6A 00                           	PUSH	0
   375 000003CB 6A 01                           	PUSH	1
   376 000003CD 6A 00                           	PUSH	0
   377 000003CF E8 FFFFFC2C                     	CALL	_readhddisk
   378 000003D4 83 C4 28                        	ADD	ESP,40
   379 000003D7 0F BE 85 FFFFFC07               	MOVSX	EAX,BYTE [-1017+EBP]
   380 000003DE 50                              	PUSH	EAX
   381 000003DF 0F BE 85 FFFFFC06               	MOVSX	EAX,BYTE [-1018+EBP]
   382 000003E6 50                              	PUSH	EAX
   383 000003E7 0F BE 85 FFFFFC05               	MOVSX	EAX,BYTE [-1019+EBP]
   384 000003EE 50                              	PUSH	EAX
   385 000003EF 0F BE 85 FFFFFC04               	MOVSX	EAX,BYTE [-1020+EBP]
   386 000003F6 50                              	PUSH	EAX
   387 000003F7 0F BE 85 FFFFFC03               	MOVSX	EAX,BYTE [-1021+EBP]
   388 000003FE 50                              	PUSH	EAX
   389 000003FF 0F BE 85 FFFFFC02               	MOVSX	EAX,BYTE [-1022+EBP]
   390 00000406 50                              	PUSH	EAX
   391 00000407 0F BE 85 FFFFFC01               	MOVSX	EAX,BYTE [-1023+EBP]
   392 0000040E 50                              	PUSH	EAX
   393 0000040F 0F BE 85 FFFFFC00               	MOVSX	EAX,BYTE [-1024+EBP]
   394 00000416 50                              	PUSH	EAX
   395 00000417 68 [00000004]                   	PUSH	LC0
   396 0000041C E8 [00000000]                   	CALL	_printk
   397 00000421 B8 00000001                     	MOV	EAX,1
   398 00000426 C9                              	LEAVE
   399 00000427 C3                              	RET
   400 00000428                                 	GLOBAL	_hd_sector_map
   401                                          [SECTION .data]
   402 0000001E 00 00                           	ALIGNB	16
   403 00000020                                 _hd_sector_map:
   404 00000020 00 00 00 00 00 00 00 00 00 00   	RESB	4096
       0000002A 00 00 00 00 00 00 00 00 00 00 
       00000034 00 00 00 00 00 00 00 00 00 00 
       0000003E 00 00 00 00 00 00 00 00 00 00 
       00000048 00 00 00 00 00 00 00 00 00 00 
       00000052 00 00 00 00 00 00 00 00 00 00 
       0000005C 00 00 00 00 00 00 00 00 00 00 
       00000066 00 00 00 00 00 00 00 00 00 00 
       00000070 00 00 00 00 00 00 00 00 00 00 
       0000007A 00 00 00 00 00 00 00 00 00 00 
       00000084 00 00 00 00 00 00 00 00 00 00 
       0000008E 00 00 00 00 00 00 00 00 00 00 
       00000098 00 00 00 00 00 00 00 00 00 00 
       000000A2 00 00 00 00 00 00 00 00 00 00 
       000000AC 00 00 00 00 00 00 00 00 00 00 
       000000B6 00 00 00 00 00 00 00 00 00 00 
       000000C0 00 00 00 00 00 00 00 00 00 00 
       000000CA 00 00 00 00 00 00 00 00 00 00 
       000000D4 00 00 00 00 00 00 00 00 00 00 
       000000DE 00 00 00 00 00 00 00 00 00 00 
       000000E8 00 00 00 00 00 00 00 00 00 00 
       000000F2 00 00 00 00 00 00 00 00 00 00 
       000000FC 00 00 00 00 00 00 00 00 00 00 
       00000106 00 00 00 00 00 00 00 00 00 00 
       00000110 00 00 00 00 00 00 00 00 00 00 
       0000011A 00 00 00 00 00 00 00 00 00 00 
       00000124 00 00 00 00 00 00 00 00 00 00 
       0000012E 00 00 00 00 00 00 00 00 00 00 
       00000138 00 00 00 00 00 00 00 00 00 00 
       00000142 00 00 00 00 00 00 00 00 00 00 
       0000014C 00 00 00 00 00 00 00 00 00 00 
       00000156 00 00 00 00 00 00 00 00 00 00 
       00000160 00 00 00 00 00 00 00 00 00 00 
       0000016A 00 00 00 00 00 00 00 00 00 00 
       00000174 00 00 00 00 00 00 00 00 00 00 
       0000017E 00 00 00 00 00 00 00 00 00 00 
       00000188 00 00 00 00 00 00 00 00 00 00 
       00000192 00 00 00 00 00 00 00 00 00 00 
       0000019C 00 00 00 00 00 00 00 00 00 00 
       000001A6 00 00 00 00 00 00 00 00 00 00 
       000001B0 00 00 00 00 00 00 00 00 00 00 
       000001BA 00 00 00 00 00 00 00 00 00 00 
       000001C4 00 00 00 00 00 00 00 00 00 00 
       000001CE 00 00 00 00 00 00 00 00 00 00 
       000001D8 00 00 00 00 00 00 00 00 00 00 
       000001E2 00 00 00 00 00 00 00 00 00 00 
       000001EC 00 00 00 00 00 00 00 00 00 00 
       000001F6 00 00 00 00 00 00 00 00 00 00 
       00000200 00 00 00 00 00 00 00 00 00 00 
       0000020A 00 00 00 00 00 00 00 00 00 00 
       00000214 00 00 00 00 00 00 00 00 00 00 
       0000021E 00 00 00 00 00 00 00 00 00 00 
       00000228 00 00 00 00 00 00 00 00 00 00 
       00000232 00 00 00 00 00 00 00 00 00 00 
       0000023C 00 00 00 00 00 00 00 00 00 00 
       00000246 00 00 00 00 00 00 00 00 00 00 
       00000250 00 00 00 00 00 00 00 00 00 00 
       0000025A 00 00 00 00 00 00 00 00 00 00 
       00000264 00 00 00 00 00 00 00 00 00 00 
       0000026E 00 00 00 00 00 00 00 00 00 00 
       00000278 00 00 00 00 00 00 00 00 00 00 
       00000282 00 00 00 00 00 00 00 00 00 00 
       0000028C 00 00 00 00 00 00 00 00 00 00 
       00000296 00 00 00 00 00 00 00 00 00 00 
       000002A0 00 00 00 00 00 00 00 00 00 00 
       000002AA 00 00 00 00 00 00 00 00 00 00 
       000002B4 00 00 00 00 00 00 00 00 00 00 
       000002BE 00 00 00 00 00 00 00 00 00 00 
       000002C8 00 00 00 00 00 00 00 00 00 00 
       000002D2 00 00 00 00 00 00 00 00 00 00 
       000002DC 00 00 00 00 00 00 00 00 00 00 
       000002E6 00 00 00 00 00 00 00 00 00 00 
       000002F0 00 00 00 00 00 00 00 00 00 00 
       000002FA 00 00 00 00 00 00 00 00 00 00 
       00000304 00 00 00 00 00 00 00 00 00 00 
       0000030E 00 00 00 00 00 00 00 00 00 00 
       00000318 00 00 00 00 00 00 00 00 00 00 
       00000322 00 00 00 00 00 00 00 00 00 00 
       0000032C 00 00 00 00 00 00 00 00 00 00 
       00000336 00 00 00 00 00 00 00 00 00 00 
       00000340 00 00 00 00 00 00 00 00 00 00 
       0000034A 00 00 00 00 00 00 00 00 00 00 
       00000354 00 00 00 00 00 00 00 00 00 00 
       0000035E 00 00 00 00 00 00 00 00 00 00 
       00000368 00 00 00 00 00 00 00 00 00 00 
       00000372 00 00 00 00 00 00 00 00 00 00 
       0000037C 00 00 00 00 00 00 00 00 00 00 
       00000386 00 00 00 00 00 00 00 00 00 00 
       00000390 00 00 00 00 00 00 00 00 00 00 
       0000039A 00 00 00 00 00 00 00 00 00 00 
       000003A4 00 00 00 00 00 00 00 00 00 00 
       000003AE 00 00 00 00 00 00 00 00 00 00 
       000003B8 00 00 00 00 00 00 00 00 00 00 
       000003C2 00 00 00 00 00 00 00 00 00 00 
       000003CC 00 00 00 00 00 00 00 00 00 00 
       000003D6 00 00 00 00 00 00 00 00 00 00 
       000003E0 00 00 00 00 00 00 00 00 00 00 
       000003EA 00 00 00 00 00 00 00 00 00 00 
       000003F4 00 00 00 00 00 00 00 00 00 00 
       000003FE 00 00 00 00 00 00 00 00 00 00 
       00000408 00 00 00 00 00 00 00 00 00 00 
       00000412 00 00 00 00 00 00 00 00 00 00 
       0000041C 00 00 00 00 00 00 00 00 00 00 
       00000426 00 00 00 00 00 00 00 00 00 00 
       00000430 00 00 00 00 00 00 00 00 00 00 
       0000043A 00 00 00 00 00 00 00 00 00 00 
       00000444 00 00 00 00 00 00 00 00 00 00 
       0000044E 00 00 00 00 00 00 00 00 00 00 
       00000458 00 00 00 00 00 00 00 00 00 00 
       00000462 00 00 00 00 00 00 00 00 00 00 
       0000046C 00 00 00 00 00 00 00 00 00 00 
       00000476 00 00 00 00 00 00 00 00 00 00 
       00000480 00 00 00 00 00 00 00 00 00 00 
       0000048A 00 00 00 00 00 00 00 00 00 00 
       00000494 00 00 00 00 00 00 00 00 00 00 
       0000049E 00 00 00 00 00 00 00 00 00 00 
       000004A8 00 00 00 00 00 00 00 00 00 00 
       000004B2 00 00 00 00 00 00 00 00 00 00 
       000004BC 00 00 00 00 00 00 00 00 00 00 
       000004C6 00 00 00 00 00 00 00 00 00 00 
       000004D0 00 00 00 00 00 00 00 00 00 00 
       000004DA 00 00 00 00 00 00 00 00 00 00 
       000004E4 00 00 00 00 00 00 00 00 00 00 
       000004EE 00 00 00 00 00 00 00 00 00 00 
       000004F8 00 00 00 00 00 00 00 00 00 00 
       00000502 00 00 00 00 00 00 00 00 00 00 
       0000050C 00 00 00 00 00 00 00 00 00 00 
       00000516 00 00 00 00 00 00 00 00 00 00 
       00000520 00 00 00 00 00 00 00 00 00 00 
       0000052A 00 00 00 00 00 00 00 00 00 00 
       00000534 00 00 00 00 00 00 00 00 00 00 
       0000053E 00 00 00 00 00 00 00 00 00 00 
       00000548 00 00 00 00 00 00 00 00 00 00 
       00000552 00 00 00 00 00 00 00 00 00 00 
       0000055C 00 00 00 00 00 00 00 00 00 00 
       00000566 00 00 00 00 00 00 00 00 00 00 
       00000570 00 00 00 00 00 00 00 00 00 00 
       0000057A 00 00 00 00 00 00 00 00 00 00 
       00000584 00 00 00 00 00 00 00 00 00 00 
       0000058E 00 00 00 00 00 00 00 00 00 00 
       00000598 00 00 00 00 00 00 00 00 00 00 
       000005A2 00 00 00 00 00 00 00 00 00 00 
       000005AC 00 00 00 00 00 00 00 00 00 00 
       000005B6 00 00 00 00 00 00 00 00 00 00 
       000005C0 00 00 00 00 00 00 00 00 00 00 
       000005CA 00 00 00 00 00 00 00 00 00 00 
       000005D4 00 00 00 00 00 00 00 00 00 00 
       000005DE 00 00 00 00 00 00 00 00 00 00 
       000005E8 00 00 00 00 00 00 00 00 00 00 
       000005F2 00 00 00 00 00 00 00 00 00 00 
       000005FC 00 00 00 00 00 00 00 00 00 00 
       00000606 00 00 00 00 00 00 00 00 00 00 
       00000610 00 00 00 00 00 00 00 00 00 00 
       0000061A 00 00 00 00 00 00 00 00 00 00 
       00000624 00 00 00 00 00 00 00 00 00 00 
       0000062E 00 00 00 00 00 00 00 00 00 00 
       00000638 00 00 00 00 00 00 00 00 00 00 
       00000642 00 00 00 00 00 00 00 00 00 00 
       0000064C 00 00 00 00 00 00 00 00 00 00 
       00000656 00 00 00 00 00 00 00 00 00 00 
       00000660 00 00 00 00 00 00 00 00 00 00 
       0000066A 00 00 00 00 00 00 00 00 00 00 
       00000674 00 00 00 00 00 00 00 00 00 00 
       0000067E 00 00 00 00 00 00 00 00 00 00 
       00000688 00 00 00 00 00 00 00 00 00 00 
       00000692 00 00 00 00 00 00 00 00 00 00 
       0000069C 00 00 00 00 00 00 00 00 00 00 
       000006A6 00 00 00 00 00 00 00 00 00 00 
       000006B0 00 00 00 00 00 00 00 00 00 00 
       000006BA 00 00 00 00 00 00 00 00 00 00 
       000006C4 00 00 00 00 00 00 00 00 00 00 
       000006CE 00 00 00 00 00 00 00 00 00 00 
       000006D8 00 00 00 00 00 00 00 00 00 00 
       000006E2 00 00 00 00 00 00 00 00 00 00 
       000006EC 00 00 00 00 00 00 00 00 00 00 
       000006F6 00 00 00 00 00 00 00 00 00 00 
       00000700 00 00 00 00 00 00 00 00 00 00 
       0000070A 00 00 00 00 00 00 00 00 00 00 
       00000714 00 00 00 00 00 00 00 00 00 00 
       0000071E 00 00 00 00 00 00 00 00 00 00 
       00000728 00 00 00 00 00 00 00 00 00 00 
       00000732 00 00 00 00 00 00 00 00 00 00 
       0000073C 00 00 00 00 00 00 00 00 00 00 
       00000746 00 00 00 00 00 00 00 00 00 00 
       00000750 00 00 00 00 00 00 00 00 00 00 
       0000075A 00 00 00 00 00 00 00 00 00 00 
       00000764 00 00 00 00 00 00 00 00 00 00 
       0000076E 00 00 00 00 00 00 00 00 00 00 
       00000778 00 00 00 00 00 00 00 00 00 00 
       00000782 00 00 00 00 00 00 00 00 00 00 
       0000078C 00 00 00 00 00 00 00 00 00 00 
       00000796 00 00 00 00 00 00 00 00 00 00 
       000007A0 00 00 00 00 00 00 00 00 00 00 
       000007AA 00 00 00 00 00 00 00 00 00 00 
       000007B4 00 00 00 00 00 00 00 00 00 00 
       000007BE 00 00 00 00 00 00 00 00 00 00 
       000007C8 00 00 00 00 00 00 00 00 00 00 
       000007D2 00 00 00 00 00 00 00 00 00 00 
       000007DC 00 00 00 00 00 00 00 00 00 00 
       000007E6 00 00 00 00 00 00 00 00 00 00 
       000007F0 00 00 00 00 00 00 00 00 00 00 
       000007FA 00 00 00 00 00 00 00 00 00 00 
       00000804 00 00 00 00 00 00 00 00 00 00 
       0000080E 00 00 00 00 00 00 00 00 00 00 
       00000818 00 00 00 00 00 00 00 00 00 00 
       00000822 00 00 00 00 00 00 00 00 00 00 
       0000082C 00 00 00 00 00 00 00 00 00 00 
       00000836 00 00 00 00 00 00 00 00 00 00 
       00000840 00 00 00 00 00 00 00 00 00 00 
       0000084A 00 00 00 00 00 00 00 00 00 00 
       00000854 00 00 00 00 00 00 00 00 00 00 
       0000085E 00 00 00 00 00 00 00 00 00 00 
       00000868 00 00 00 00 00 00 00 00 00 00 
       00000872 00 00 00 00 00 00 00 00 00 00 
       0000087C 00 00 00 00 00 00 00 00 00 00 
       00000886 00 00 00 00 00 00 00 00 00 00 
       00000890 00 00 00 00 00 00 00 00 00 00 
       0000089A 00 00 00 00 00 00 00 00 00 00 
       000008A4 00 00 00 00 00 00 00 00 00 00 
       000008AE 00 00 00 00 00 00 00 00 00 00 
       000008B8 00 00 00 00 00 00 00 00 00 00 
       000008C2 00 00 00 00 00 00 00 00 00 00 
       000008CC 00 00 00 00 00 00 00 00 00 00 
       000008D6 00 00 00 00 00 00 00 00 00 00 
       000008E0 00 00 00 00 00 00 00 00 00 00 
       000008EA 00 00 00 00 00 00 00 00 00 00 
       000008F4 00 00 00 00 00 00 00 00 00 00 
       000008FE 00 00 00 00 00 00 00 00 00 00 
       00000908 00 00 00 00 00 00 00 00 00 00 
       00000912 00 00 00 00 00 00 00 00 00 00 
       0000091C 00 00 00 00 00 00 00 00 00 00 
       00000926 00 00 00 00 00 00 00 00 00 00 
       00000930 00 00 00 00 00 00 00 00 00 00 
       0000093A 00 00 00 00 00 00 00 00 00 00 
       00000944 00 00 00 00 00 00 00 00 00 00 
       0000094E 00 00 00 00 00 00 00 00 00 00 
       00000958 00 00 00 00 00 00 00 00 00 00 
       00000962 00 00 00 00 00 00 00 00 00 00 
       0000096C 00 00 00 00 00 00 00 00 00 00 
       00000976 00 00 00 00 00 00 00 00 00 00 
       00000980 00 00 00 00 00 00 00 00 00 00 
       0000098A 00 00 00 00 00 00 00 00 00 00 
       00000994 00 00 00 00 00 00 00 00 00 00 
       0000099E 00 00 00 00 00 00 00 00 00 00 
       000009A8 00 00 00 00 00 00 00 00 00 00 
       000009B2 00 00 00 00 00 00 00 00 00 00 
       000009BC 00 00 00 00 00 00 00 00 00 00 
       000009C6 00 00 00 00 00 00 00 00 00 00 
       000009D0 00 00 00 00 00 00 00 00 00 00 
       000009DA 00 00 00 00 00 00 00 00 00 00 
       000009E4 00 00 00 00 00 00 00 00 00 00 
       000009EE 00 00 00 00 00 00 00 00 00 00 
       000009F8 00 00 00 00 00 00 00 00 00 00 
       00000A02 00 00 00 00 00 00 00 00 00 00 
       00000A0C 00 00 00 00 00 00 00 00 00 00 
       00000A16 00 00 00 00 00 00 00 00 00 00 
       00000A20 00 00 00 00 00 00 00 00 00 00 
       00000A2A 00 00 00 00 00 00 00 00 00 00 
       00000A34 00 00 00 00 00 00 00 00 00 00 
       00000A3E 00 00 00 00 00 00 00 00 00 00 
       00000A48 00 00 00 00 00 00 00 00 00 00 
       00000A52 00 00 00 00 00 00 00 00 00 00 
       00000A5C 00 00 00 00 00 00 00 00 00 00 
       00000A66 00 00 00 00 00 00 00 00 00 00 
       00000A70 00 00 00 00 00 00 00 00 00 00 
       00000A7A 00 00 00 00 00 00 00 00 00 00 
       00000A84 00 00 00 00 00 00 00 00 00 00 
       00000A8E 00 00 00 00 00 00 00 00 00 00 
       00000A98 00 00 00 00 00 00 00 00 00 00 
       00000AA2 00 00 00 00 00 00 00 00 00 00 
       00000AAC 00 00 00 00 00 00 00 00 00 00 
       00000AB6 00 00 00 00 00 00 00 00 00 00 
       00000AC0 00 00 00 00 00 00 00 00 00 00 
       00000ACA 00 00 00 00 00 00 00 00 00 00 
       00000AD4 00 00 00 00 00 00 00 00 00 00 
       00000ADE 00 00 00 00 00 00 00 00 00 00 
       00000AE8 00 00 00 00 00 00 00 00 00 00 
       00000AF2 00 00 00 00 00 00 00 00 00 00 
       00000AFC 00 00 00 00 00 00 00 00 00 00 
       00000B06 00 00 00 00 00 00 00 00 00 00 
       00000B10 00 00 00 00 00 00 00 00 00 00 
       00000B1A 00 00 00 00 00 00 00 00 00 00 
       00000B24 00 00 00 00 00 00 00 00 00 00 
       00000B2E 00 00 00 00 00 00 00 00 00 00 
       00000B38 00 00 00 00 00 00 00 00 00 00 
       00000B42 00 00 00 00 00 00 00 00 00 00 
       00000B4C 00 00 00 00 00 00 00 00 00 00 
       00000B56 00 00 00 00 00 00 00 00 00 00 
       00000B60 00 00 00 00 00 00 00 00 00 00 
       00000B6A 00 00 00 00 00 00 00 00 00 00 
       00000B74 00 00 00 00 00 00 00 00 00 00 
       00000B7E 00 00 00 00 00 00 00 00 00 00 
       00000B88 00 00 00 00 00 00 00 00 00 00 
       00000B92 00 00 00 00 00 00 00 00 00 00 
       00000B9C 00 00 00 00 00 00 00 00 00 00 
       00000BA6 00 00 00 00 00 00 00 00 00 00 
       00000BB0 00 00 00 00 00 00 00 00 00 00 
       00000BBA 00 00 00 00 00 00 00 00 00 00 
       00000BC4 00 00 00 00 00 00 00 00 00 00 
       00000BCE 00 00 00 00 00 00 00 00 00 00 
       00000BD8 00 00 00 00 00 00 00 00 00 00 
       00000BE2 00 00 00 00 00 00 00 00 00 00 
       00000BEC 00 00 00 00 00 00 00 00 00 00 
       00000BF6 00 00 00 00 00 00 00 00 00 00 
       00000C00 00 00 00 00 00 00 00 00 00 00 
       00000C0A 00 00 00 00 00 00 00 00 00 00 
       00000C14 00 00 00 00 00 00 00 00 00 00 
       00000C1E 00 00 00 00 00 00 00 00 00 00 
       00000C28 00 00 00 00 00 00 00 00 00 00 
       00000C32 00 00 00 00 00 00 00 00 00 00 
       00000C3C 00 00 00 00 00 00 00 00 00 00 
       00000C46 00 00 00 00 00 00 00 00 00 00 
       00000C50 00 00 00 00 00 00 00 00 00 00 
       00000C5A 00 00 00 00 00 00 00 00 00 00 
       00000C64 00 00 00 00 00 00 00 00 00 00 
       00000C6E 00 00 00 00 00 00 00 00 00 00 
       00000C78 00 00 00 00 00 00 00 00 00 00 
       00000C82 00 00 00 00 00 00 00 00 00 00 
       00000C8C 00 00 00 00 00 00 00 00 00 00 
       00000C96 00 00 00 00 00 00 00 00 00 00 
       00000CA0 00 00 00 00 00 00 00 00 00 00 
       00000CAA 00 00 00 00 00 00 00 00 00 00 
       00000CB4 00 00 00 00 00 00 00 00 00 00 
       00000CBE 00 00 00 00 00 00 00 00 00 00 
       00000CC8 00 00 00 00 00 00 00 00 00 00 
       00000CD2 00 00 00 00 00 00 00 00 00 00 
       00000CDC 00 00 00 00 00 00 00 00 00 00 
       00000CE6 00 00 00 00 00 00 00 00 00 00 
       00000CF0 00 00 00 00 00 00 00 00 00 00 
       00000CFA 00 00 00 00 00 00 00 00 00 00 
       00000D04 00 00 00 00 00 00 00 00 00 00 
       00000D0E 00 00 00 00 00 00 00 00 00 00 
       00000D18 00 00 00 00 00 00 00 00 00 00 
       00000D22 00 00 00 00 00 00 00 00 00 00 
       00000D2C 00 00 00 00 00 00 00 00 00 00 
       00000D36 00 00 00 00 00 00 00 00 00 00 
       00000D40 00 00 00 00 00 00 00 00 00 00 
       00000D4A 00 00 00 00 00 00 00 00 00 00 
       00000D54 00 00 00 00 00 00 00 00 00 00 
       00000D5E 00 00 00 00 00 00 00 00 00 00 
       00000D68 00 00 00 00 00 00 00 00 00 00 
       00000D72 00 00 00 00 00 00 00 00 00 00 
       00000D7C 00 00 00 00 00 00 00 00 00 00 
       00000D86 00 00 00 00 00 00 00 00 00 00 
       00000D90 00 00 00 00 00 00 00 00 00 00 
       00000D9A 00 00 00 00 00 00 00 00 00 00 
       00000DA4 00 00 00 00 00 00 00 00 00 00 
       00000DAE 00 00 00 00 00 00 00 00 00 00 
       00000DB8 00 00 00 00 00 00 00 00 00 00 
       00000DC2 00 00 00 00 00 00 00 00 00 00 
       00000DCC 00 00 00 00 00 00 00 00 00 00 
       00000DD6 00 00 00 00 00 00 00 00 00 00 
       00000DE0 00 00 00 00 00 00 00 00 00 00 
       00000DEA 00 00 00 00 00 00 00 00 00 00 
       00000DF4 00 00 00 00 00 00 00 00 00 00 
       00000DFE 00 00 00 00 00 00 00 00 00 00 
       00000E08 00 00 00 00 00 00 00 00 00 00 
       00000E12 00 00 00 00 00 00 00 00 00 00 
       00000E1C 00 00 00 00 00 00 00 00 00 00 
       00000E26 00 00 00 00 00 00 00 00 00 00 
       00000E30 00 00 00 00 00 00 00 00 00 00 
       00000E3A 00 00 00 00 00 00 00 00 00 00 
       00000E44 00 00 00 00 00 00 00 00 00 00 
       00000E4E 00 00 00 00 00 00 00 00 00 00 
       00000E58 00 00 00 00 00 00 00 00 00 00 
       00000E62 00 00 00 00 00 00 00 00 00 00 
       00000E6C 00 00 00 00 00 00 00 00 00 00 
       00000E76 00 00 00 00 00 00 00 00 00 00 
       00000E80 00 00 00 00 00 00 00 00 00 00 
       00000E8A 00 00 00 00 00 00 00 00 00 00 
       00000E94 00 00 00 00 00 00 00 00 00 00 
       00000E9E 00 00 00 00 00 00 00 00 00 00 
       00000EA8 00 00 00 00 00 00 00 00 00 00 
       00000EB2 00 00 00 00 00 00 00 00 00 00 
       00000EBC 00 00 00 00 00 00 00 00 00 00 
       00000EC6 00 00 00 00 00 00 00 00 00 00 
       00000ED0 00 00 00 00 00 00 00 00 00 00 
       00000EDA 00 00 00 00 00 00 00 00 00 00 
       00000EE4 00 00 00 00 00 00 00 00 00 00 
       00000EEE 00 00 00 00 00 00 00 00 00 00 
       00000EF8 00 00 00 00 00 00 00 00 00 00 
       00000F02 00 00 00 00 00 00 00 00 00 00 
       00000F0C 00 00 00 00 00 00 00 00 00 00 
       00000F16 00 00 00 00 00 00 00 00 00 00 
       00000F20 00 00 00 00 00 00 00 00 00 00 
       00000F2A 00 00 00 00 00 00 00 00 00 00 
       00000F34 00 00 00 00 00 00 00 00 00 00 
       00000F3E 00 00 00 00 00 00 00 00 00 00 
       00000F48 00 00 00 00 00 00 00 00 00 00 
       00000F52 00 00 00 00 00 00 00 00 00 00 
       00000F5C 00 00 00 00 00 00 00 00 00 00 
       00000F66 00 00 00 00 00 00 00 00 00 00 
       00000F70 00 00 00 00 00 00 00 00 00 00 
       00000F7A 00 00 00 00 00 00 00 00 00 00 
       00000F84 00 00 00 00 00 00 00 00 00 00 
       00000F8E 00 00 00 00 00 00 00 00 00 00 
       00000F98 00 00 00 00 00 00 00 00 00 00 
       00000FA2 00 00 00 00 00 00 00 00 00 00 
       00000FAC 00 00 00 00 00 00 00 00 00 00 
       00000FB6 00 00 00 00 00 00 00 00 00 00 
       00000FC0 00 00 00 00 00 00 00 00 00 00 
       00000FCA 00 00 00 00 00 00 00 00 00 00 
       00000FD4 00 00 00 00 00 00 00 00 00 00 
       00000FDE 00 00 00 00 00 00 00 00 00 00 
       00000FE8 00 00 00 00 00 00 00 00 00 00 
       00000FF2 00 00 00 00 00 00 00 00 00 00 
       00000FFC 00 00 00 00 00 00 00 00 00 00 
       00001006 00 00 00 00 00 00 00 00 00 00 
       00001010 00 00 00 00 00 00 00 00 00 00 
       0000101A 00 00 00 00 00 00 
