     1 00000000                                 ; naskfunc
     2 00000000                                 ; TAB=4
     3 00000000                                 
     4 00000000                                 [FORMAT "WCOFF"]				; オブジェクトファイルを作るモード	
     5 00000000                                 [INSTRSET "i486p"]				; 486の命令まで使いたいという記述
     6 00000000                                 [BITS 32]						; 32ビットモード用の機械語を作らせる
     7 00000000                                 [FILE "naskfunc.nas"]			; ソースファイル名情報
     8 00000000                                 
     9 00000000                                 		GLOBAL	_io_hlt, _io_cli, _io_sti, _io_stihlt
    10 00000000                                 		GLOBAL	_io_in8,  _io_in16,  _io_in32
    11 00000000                                 		GLOBAL	_io_out8, _io_out16, _io_out32
    12 00000000                                 		GLOBAL	_io_load_eflags, _io_store_eflags
    13 00000000                                 		GLOBAL	_load_gdtr, _load_idtr
    14 00000000                                 		GLOBAL	_load_cr0, _store_cr0
    15 00000000                                 		GLOBAL	_load_tr
    16 00000000                                 		GLOBAL	_asm_inthandler20, _asm_inthandler21
    17 00000000                                 		GLOBAL	_asm_inthandler2c, _asm_inthandler0c
    18 00000000                                 		GLOBAL	_asm_inthandler0d, _asm_end_app
    19 00000000                                 		GLOBAL  _asm_inthandler2e
    20 00000000                                 		GLOBAL	_memtest_sub
    21 00000000                                 		GLOBAL	_farjmp, _farcall
    22 00000000                                 		GLOBAL	_asm_hrb_api, _start_app,_start_sys, _asm_hrb_dpi
    23 00000000                                 		EXTERN	_inthandler20, _inthandler21
    24 00000000                                 		EXTERN	_inthandler2c, _inthandler0d
    25 00000000                                 		EXTERN	_inthandler0c, _inthandler2e
    26 00000000                                 		EXTERN	_hrb_api, _hrb_dpi
    27 00000000                                 		GLOBAL  _clts, _fnsave, _frstor, _asm_inthandler07
    28 00000000                                 		GLOBAL	_WriteByteToPort, _ReadByteStringFromPor
    29 00000000                                 		GLOBAL	_WriteByteStringToPort, _ReadWordFromPort
    30 00000000                                 		GLOBAL	_WriteWordToPort, _ReadWordStringFromPort
    31 00000000                                 		GLOBAL	_WriteWordStringToPort, _inws, _outws
    32 00000000                                 		GLOBAL	memcpy
    33 00000000                                 		GLOBAL	memset
    34 00000000                                         EXTERN  _inthandler07
    35 00000000                                 
    36                                          [SECTION .text]
    37 00000000                                 
    38 00000000                                 _clts:          ; void clts(void);
    39 00000000 0F 06                                   CLTS
    40 00000002 C3                                      RET
    41 00000003                                 
    42 00000003                                 _fnsave:        ; void fnsave(int *addr);
    43 00000003 8B 44 24 04                             MOV     EAX,[ESP+4]     ; addr
    44 00000007 DD 30                                   FNSAVE  [EAX]
    45 00000009 C3                                      RET
    46 0000000A                                 
    47 0000000A                                 _frstor:        ; void frstor(int *addr);
    48 0000000A 8B 44 24 04                             MOV     EAX,[ESP+4]     ; addr
    49 0000000E DD 20                                   FRSTOR  [EAX]
    50 00000010 C3                                      RET
    51 00000011                                 
    52 00000011                                 _asm_inthandler07:
    53 00000011 FB                                      STI
    54 00000012 06                                      PUSH    ES
    55 00000013 1E                                      PUSH    DS
    56 00000014 60                                      PUSHAD
    57 00000015 89 E0                                   MOV     EAX,ESP
    58 00000017 50                                      PUSH    EAX
    59 00000018 66 8C D0                                MOV     AX,SS
    60 0000001B 8E D8                                   MOV     DS,AX
    61 0000001D 8E C0                                   MOV     ES,AX
    62 0000001F E8 [00000000]                           CALL    _inthandler07
    63 00000024 83 F8 00                                CMP     EAX,0
    64 00000027 0F 85 00000193                          JNE     _asm_end_app
    65 0000002D 58                                      POP     EAX
    66 0000002E 61                                      POPAD
    67 0000002F 1F                                      POP     DS
    68 00000030 07                                      POP     ES
    69 00000031 CF                                      IRETD                   ; INT07では ESP += 4; はいらない
    70 00000032                                 
    71 00000032                                 
    72 00000032                                 
    73 00000032                                 _io_hlt:	; void io_hlt(void);
    74 00000032 F4                              		HLT
    75 00000033 C3                              		RET
    76 00000034                                 
    77 00000034                                 _io_cli:	; void io_cli(void);
    78 00000034 FA                              		CLI
    79 00000035 C3                              		RET
    80 00000036                                 
    81 00000036                                 _io_sti:	; void io_sti(void);
    82 00000036 FB                              		STI
    83 00000037 C3                              		RET
    84 00000038                                 
    85 00000038                                 _io_stihlt:	; void io_stihlt(void);
    86 00000038 FB                              		STI
    87 00000039 F4                              		HLT
    88 0000003A C3                              		RET
    89 0000003B                                 
    90 0000003B                                 _io_in8:	; int io_in8(int port);
    91 0000003B 8B 54 24 04                     		MOV		EDX,[ESP+4]		; port
    92 0000003F B8 00000000                     		MOV		EAX,0
    93 00000044 EC                              		IN		AL,DX
    94 00000045 C3                              		RET
    95 00000046                                 
    96 00000046                                 _io_in16:	; int io_in16(int port);
    97 00000046 8B 54 24 04                     		MOV		EDX,[ESP+4]		; port
    98 0000004A B8 00000000                     		MOV		EAX,0
    99 0000004F 66 ED                           		IN		AX,DX
   100 00000051 C3                              		RET
   101 00000052                                 
   102 00000052                                 _io_in32:	; int io_in32(int port);
   103 00000052 8B 54 24 04                     		MOV		EDX,[ESP+4]		; port
   104 00000056 ED                              		IN		EAX,DX
   105 00000057 C3                              		RET
   106 00000058                                 
   107 00000058                                 _io_out8:	; void io_out8(int port, int data);
   108 00000058 8B 54 24 04                     		MOV		EDX,[ESP+4]		; port
   109 0000005C 8A 44 24 08                     		MOV		AL,[ESP+8]		; data
   110 00000060 EE                              		OUT		DX,AL
   111 00000061 C3                              		RET
   112 00000062                                 
   113 00000062                                 _io_out16:	; void io_out16(int port, int data);
   114 00000062 8B 54 24 04                     		MOV		EDX,[ESP+4]		; port
   115 00000066 8B 44 24 08                     		MOV		EAX,[ESP+8]		; data
   116 0000006A 66 EF                           		OUT		DX,AX
   117 0000006C C3                              		RET
   118 0000006D                                 
   119 0000006D                                 _io_out32:	; void io_out32(int port, int data);
   120 0000006D 8B 54 24 04                     		MOV		EDX,[ESP+4]		; port
   121 00000071 8B 44 24 08                     		MOV		EAX,[ESP+8]		; data
   122 00000075 EF                              		OUT		DX,EAX
   123 00000076 C3                              		RET
   124 00000077                                 
   125 00000077                                 _io_load_eflags:	; int io_load_eflags(void);
   126 00000077 9C                              		PUSHFD		; PUSH EFLAGS という意味
   127 00000078 58                              		POP		EAX
   128 00000079 C3                              		RET
   129 0000007A                                 
   130 0000007A                                 _io_store_eflags:	; void io_store_eflags(int eflags);
   131 0000007A 8B 44 24 04                     		MOV		EAX,[ESP+4]
   132 0000007E 50                              		PUSH	EAX
   133 0000007F 9D                              		POPFD		; POP EFLAGS という意味
   134 00000080 C3                              		RET
   135 00000081                                 
   136 00000081                                 _load_gdtr:		; void load_gdtr(int limit, int addr);
   137 00000081 66 8B 44 24 04                  		MOV		AX,[ESP+4]		; limit
   138 00000086 66 89 44 24 06                  		MOV		[ESP+6],AX
   139 0000008B 0F 01 54 24 06                  		LGDT	[ESP+6]
   140 00000090 C3                              		RET
   141 00000091                                 
   142 00000091                                 _load_idtr:		; void load_idtr(int limit, int addr);
   143 00000091 66 8B 44 24 04                  		MOV		AX,[ESP+4]		; limit
   144 00000096 66 89 44 24 06                  		MOV		[ESP+6],AX
   145 0000009B 0F 01 5C 24 06                  		LIDT	[ESP+6]
   146 000000A0 C3                              		RET
   147 000000A1                                 
   148 000000A1                                 _load_cr0:		; int load_cr0(void);
   149 000000A1 0F 20 C0                        		MOV		EAX,CR0
   150 000000A4 C3                              		RET
   151 000000A5                                 
   152 000000A5                                 _store_cr0:		; void store_cr0(int cr0);
   153 000000A5 8B 44 24 04                     		MOV		EAX,[ESP+4]
   154 000000A9 0F 22 C0                        		MOV		CR0,EAX
   155 000000AC C3                              		RET
   156 000000AD                                 
   157 000000AD                                 _load_tr:		; void load_tr(int tr);
   158 000000AD 0F 00 5C 24 04                  		LTR		[ESP+4]			; tr
   159 000000B2 C3                              		RET
   160 000000B3                                 
   161 000000B3                                 _asm_inthandler20:
   162 000000B3 06                              		PUSH	ES
   163 000000B4 1E                              		PUSH	DS
   164 000000B5 60                              		PUSHAD
   165 000000B6 89 E0                           		MOV		EAX,ESP
   166 000000B8 50                              		PUSH	EAX
   167 000000B9 66 8C D0                        		MOV		AX,SS
   168 000000BC 8E D8                           		MOV		DS,AX
   169 000000BE 8E C0                           		MOV		ES,AX
   170 000000C0 E8 [00000000]                   		CALL	_inthandler20
   171 000000C5 58                              		POP		EAX
   172 000000C6 61                              		POPAD
   173 000000C7 1F                              		POP		DS
   174 000000C8 07                              		POP		ES
   175 000000C9 CF                              		IRETD
   176 000000CA                                 
   177 000000CA                                 _asm_inthandler21:
   178 000000CA 06                              		PUSH	ES
   179 000000CB 1E                              		PUSH	DS
   180 000000CC 60                              		PUSHAD
   181 000000CD 89 E0                           		MOV		EAX,ESP
   182 000000CF 50                              		PUSH	EAX
   183 000000D0 66 8C D0                        		MOV		AX,SS
   184 000000D3 8E D8                           		MOV		DS,AX
   185 000000D5 8E C0                           		MOV		ES,AX
   186 000000D7 E8 [00000000]                   		CALL	_inthandler21
   187 000000DC 58                              		POP		EAX
   188 000000DD 61                              		POPAD
   189 000000DE 1F                              		POP		DS
   190 000000DF 07                              		POP		ES
   191 000000E0 CF                              		IRETD
   192 000000E1                                 
   193 000000E1                                 _asm_inthandler2c:
   194 000000E1 06                              		PUSH	ES
   195 000000E2 1E                              		PUSH	DS
   196 000000E3 60                              		PUSHAD
   197 000000E4 89 E0                           		MOV		EAX,ESP
   198 000000E6 50                              		PUSH	EAX
   199 000000E7 66 8C D0                        		MOV		AX,SS
   200 000000EA 8E D8                           		MOV		DS,AX
   201 000000EC 8E C0                           		MOV		ES,AX
   202 000000EE E8 [00000000]                   		CALL	_inthandler2c
   203 000000F3 58                              		POP		EAX
   204 000000F4 61                              		POPAD
   205 000000F5 1F                              		POP		DS
   206 000000F6 07                              		POP		ES
   207 000000F7 CF                              		IRETD
   208 000000F8                                 
   209 000000F8                                 _asm_inthandler0c:
   210 000000F8 FB                              		STI
   211 000000F9 06                              		PUSH	ES
   212 000000FA 1E                              		PUSH	DS
   213 000000FB 60                              		PUSHAD
   214 000000FC 89 E0                           		MOV		EAX,ESP
   215 000000FE 50                              		PUSH	EAX
   216 000000FF 66 8C D0                        		MOV		AX,SS
   217 00000102 8E D8                           		MOV		DS,AX
   218 00000104 8E C0                           		MOV		ES,AX
   219 00000106 E8 [00000000]                   		CALL	_inthandler0c
   220 0000010B 83 F8 00                        		CMP		EAX,0
   221 0000010E 0F 85 000000AC                  		JNE		_asm_end_app
   222 00000114 58                              		POP		EAX
   223 00000115 61                              		POPAD
   224 00000116 1F                              		POP		DS
   225 00000117 07                              		POP		ES
   226 00000118 83 C4 04                        		ADD		ESP,4			; INT 0x0c でも、これが必要
   227 0000011B CF                              		IRETD
   228 0000011C                                 
   229 0000011C                                 _asm_inthandler0d:
   230 0000011C FB                              		STI
   231 0000011D 06                              		PUSH	ES
   232 0000011E 1E                              		PUSH	DS
   233 0000011F 60                              		PUSHAD
   234 00000120 89 E0                           		MOV		EAX,ESP
   235 00000122 50                              		PUSH	EAX
   236 00000123 66 8C D0                        		MOV		AX,SS
   237 00000126 8E D8                           		MOV		DS,AX
   238 00000128 8E C0                           		MOV		ES,AX
   239 0000012A E8 [00000000]                   		CALL	_inthandler0d
   240 0000012F 83 F8 00                        		CMP		EAX,0			; ここだけ違う
   241 00000132 0F 85 00000088                  		JNE		_asm_end_app	; ここだけ違う
   242 00000138 58                              		POP		EAX
   243 00000139 61                              		POPAD
   244 0000013A 1F                              		POP		DS
   245 0000013B 07                              		POP		ES
   246 0000013C 83 C4 04                        		ADD		ESP,4			; INT 0x0d では、これが必要
   247 0000013F CF                              		IRETD
   248 00000140                                 
   249 00000140                                 _asm_inthandler2e:
   250 00000140 06                              		PUSH	ES
   251 00000141 1E                              		PUSH	DS
   252 00000142 60                              		PUSHAD
   253 00000143 89 E0                           		MOV		EAX,ESP
   254 00000145 50                              		PUSH	EAX
   255 00000146 66 8C D0                        		MOV		AX,SS
   256 00000149 8E D8                           		MOV		DS,AX
   257 0000014B 8E C0                           		MOV		ES,AX
   258 0000014D E8 [00000000]                   		CALL	_inthandler2e
   259 00000152 58                              		POP		EAX
   260 00000153 61                              		POPAD
   261 00000154 1F                              		POP		DS
   262 00000155 07                              		POP		ES
   263 00000156 CF                              		IRETD
   264 00000157                                 
   265 00000157                                 
   266 00000157                                 _memtest_sub:	; unsigned int memtest_sub(unsigned int start, unsigned int end)
   267 00000157 57                              		PUSH	EDI						; （EBX, ESI, EDI も使いたいので）
   268 00000158 56                              		PUSH	ESI
   269 00000159 53                              		PUSH	EBX
   270 0000015A BE AA55AA55                     		MOV		ESI,0xaa55aa55			; pat0 = 0xaa55aa55;
   271 0000015F BF 55AA55AA                     		MOV		EDI,0x55aa55aa			; pat1 = 0x55aa55aa;
   272 00000164 8B 44 24 10                     		MOV		EAX,[ESP+12+4]			; i = start;
   273 00000168                                 mts_loop:
   274 00000168 89 C3                           		MOV		EBX,EAX
   275 0000016A 81 C3 00000FFC                  		ADD		EBX,0xffc				; p = i + 0xffc;
   276 00000170 8B 13                           		MOV		EDX,[EBX]				; old = *p;
   277 00000172 89 33                           		MOV		[EBX],ESI				; *p = pat0;
   278 00000174 83 33 FF                        		XOR		DWORD [EBX],0xffffffff	; *p ^= 0xffffffff;
   279 00000177 3B 3B                           		CMP		EDI,[EBX]				; if (*p != pat1) goto fin;
   280 00000179 75 18                           		JNE		mts_fin
   281 0000017B 83 33 FF                        		XOR		DWORD [EBX],0xffffffff	; *p ^= 0xffffffff;
   282 0000017E 3B 33                           		CMP		ESI,[EBX]				; if (*p != pat0) goto fin;
   283 00000180 75 11                           		JNE		mts_fin
   284 00000182 89 13                           		MOV		[EBX],EDX				; *p = old;
   285 00000184 05 00001000                     		ADD		EAX,0x1000				; i += 0x1000;
   286 00000189 3B 44 24 14                     		CMP		EAX,[ESP+12+8]			; if (i <= end) goto mts_loop;
   287 0000018D 76 D9                           		JBE		mts_loop
   288 0000018F 5B                              		POP		EBX
   289 00000190 5E                              		POP		ESI
   290 00000191 5F                              		POP		EDI
   291 00000192 C3                              		RET
   292 00000193                                 mts_fin:
   293 00000193 89 13                           		MOV		[EBX],EDX				; *p = old;
   294 00000195 5B                              		POP		EBX
   295 00000196 5E                              		POP		ESI
   296 00000197 5F                              		POP		EDI
   297 00000198 C3                              		RET
   298 00000199                                 
   299 00000199                                 _farjmp:		; void farjmp(int eip, int cs);
   300 00000199 FF 6C 24 04                     		JMP		FAR	[ESP+4]		; eip, cs
   301 0000019D C3                              		RET
   302 0000019E                                 
   303 0000019E                                 _farcall:		; void farcall(int eip, int cs);
   304 0000019E FF 5C 24 04                     		CALL	FAR	[ESP+4]				; eip, cs
   305 000001A2 C3                              		RET
   306 000001A3                                 
   307 000001A3                                 _asm_hrb_api:
   308 000001A3 FB                              		STI
   309 000001A4 1E                              		PUSH	DS
   310 000001A5 06                              		PUSH	ES
   311 000001A6 60                              		PUSHAD		; 保存のためのPUSH
   312 000001A7 60                              		PUSHAD		; hrb_apiにわたすためのPUSH
   313 000001A8 66 8C D0                        		MOV		AX,SS
   314 000001AB 8E D8                           		MOV		DS,AX		; OS用のセグメントをDSとESにも入れる
   315 000001AD 8E C0                           		MOV		ES,AX
   316 000001AF E8 [00000000]                   		CALL	_hrb_api
   317 000001B4 83 F8 00                        		CMP		EAX,0		; EAXが0でなければアプリ終了処理
   318 000001B7 75 07                           		JNE		_asm_end_app
   319 000001B9 83 C4 20                        		ADD		ESP,32
   320 000001BC 61                              		POPAD
   321 000001BD 07                              		POP		ES
   322 000001BE 1F                              		POP		DS
   323 000001BF CF                              		IRETD
   324 000001C0                                 _asm_end_app:
   325 000001C0                                 ;	EAXはtss.esp0の番地
   326 000001C0 8B 20                           		MOV		ESP,[EAX]
   327 000001C2 C7 40 04 00000000               		MOV		DWORD [EAX+4],0
   328 000001C9 61                              		POPAD
   329 000001CA C3                              		RET					; cmd_appへ帰る
   330 000001CB                                 
   331 000001CB                                 _asm_hrb_dpi:
   332 000001CB FB                              		STI
   333 000001CC 1E                              		PUSH	DS
   334 000001CD 06                              		PUSH	ES
   335 000001CE 60                              		PUSHAD		; 保存のためのPUSH
   336 000001CF 60                              		PUSHAD		; hrb_apiにわたすためのPUSH
   337 000001D0 66 8C D0                        		MOV		AX,SS
   338 000001D3 8E D8                           		MOV		DS,AX		; OS用のセグメントをDSとESにも入れる
   339 000001D5 8E C0                           		MOV		ES,AX
   340 000001D7 E8 [00000000]                   		CALL	_hrb_dpi
   341 000001DC                                 		;CMP		EAX,0		; EAXが0でなければアプリ終了処理
   342 000001DC                                 		;JNE		_asm_end_app
   343 000001DC 83 C4 20                        		ADD		ESP,32
   344 000001DF 61                              		POPAD
   345 000001E0 07                              		POP		ES
   346 000001E1 1F                              		POP		DS
   347 000001E2 CF                              		IRETD
   348 000001E3                                 
   349 000001E3                                 _start_app:		; void start_app(int eip, int cs, int esp, int ds, int *tss_esp0);
   350 000001E3 60                              		PUSHAD		; 32ビットレジスタを全部保存しておく
   351 000001E4 8B 44 24 24                     		MOV		EAX,[ESP+36]	; アプリ用のEIP
   352 000001E8 8B 4C 24 28                     		MOV		ECX,[ESP+40]	; アプリ用のCS
   353 000001EC 8B 54 24 2C                     		MOV		EDX,[ESP+44]	; アプリ用のESP
   354 000001F0 8B 5C 24 30                     		MOV		EBX,[ESP+48]	; アプリ用のDS/SS
   355 000001F4 8B 6C 24 34                     		MOV		EBP,[ESP+52]	; tss.esp0の番地
   356 000001F8 89 65 00                        		MOV		[EBP  ],ESP		; OS用のESPを保存
   357 000001FB 8C 55 04                        		MOV		[EBP+4],SS		; OS用のSSを保存
   358 000001FE 8E C3                           		MOV		ES,BX
   359 00000200 8E DB                           		MOV		DS,BX
   360 00000202 8E E3                           		MOV		FS,BX
   361 00000204 8E EB                           		MOV		GS,BX
   362 00000206                                 ;	以下はRETFでアプリに行かせるためのスタック調整
   363 00000206 83 C9 03                        		OR		ECX,3			; アプリ用のセグメント番号に3をORする
   364 00000209 83 CB 03                        		OR		EBX,3			; アプリ用のセグメント番号に3をORする
   365 0000020C 53                              		PUSH	EBX				; アプリのSS
   366 0000020D 52                              		PUSH	EDX				; アプリのESP
   367 0000020E 51                              		PUSH	ECX				; アプリのCS
   368 0000020F 50                              		PUSH	EAX				; アプリのEIP
   369 00000210 CB                              		RETF
   370 00000211                                 _start_sys:		; void start_app(int eip, int cs, int esp, int ds, int *tss_esp0);
   371 00000211 60                              		PUSHAD		; 32ビットレジスタを全部保存しておく
   372 00000212 8B 44 24 24                     		MOV		EAX,[ESP+36]	; アプリ用のEIP
   373 00000216 8B 4C 24 28                     		MOV		ECX,[ESP+40]	; アプリ用のCS
   374 0000021A 8B 54 24 2C                     		MOV		EDX,[ESP+44]	; アプリ用のESP
   375 0000021E 8B 5C 24 30                     		MOV		EBX,[ESP+48]	; アプリ用のDS/SS
   376 00000222 8B 6C 24 34                     		MOV		EBP,[ESP+52]	; tss.esp0の番地
   377 00000226 89 65 00                        		MOV		[EBP  ],ESP		; OS用のESPを保存
   378 00000229 8C 55 04                        		MOV		[EBP+4],SS		; OS用のSSを保存
   379 0000022C 8E C3                           		MOV		ES,BX
   380 0000022E 8E DB                           		MOV		DS,BX
   381 00000230 8E E3                           		MOV		FS,BX
   382 00000232 8E EB                           		MOV		GS,BX
   383 00000234                                 ;	以下はRETFでアプリに行かせるためのスタック調整
   384 00000234 83 C9 01                        		OR		ECX,1			; アプリ用のセグメント番号に3をORする
   385 00000237 83 CB 01                        		OR		EBX,1			; アプリ用のセグメント番号に3をORする
   386 0000023A 53                              		PUSH	EBX				; アプリのSS
   387 0000023B 52                              		PUSH	EDX				; アプリのESP
   388 0000023C 51                              		PUSH	ECX				; アプリのCS
   389 0000023D 50                              		PUSH	EAX				; アプリのEIP
   390 0000023E CB                              		RETF
   391 0000023F                                 ;	アプリが終了してもここには来ない
   392 0000023F                                 
   393 0000023F                                 ;_shutdown:
   394 0000023F                                 ;		MOV AX,5301H
   395 0000023F                                 ;		XOR BX,BX
   396 0000023F                                 ;		INT 0x15 
   397 0000023F                                 
   398 0000023F                                 _WriteByteToPort:
   399 0000023F 55                              		push ebp
   400 00000240 89 E5                           		mov ebp,esp
   401 00000242 52                              		push edx
   402 00000243 8A 45 08                        		mov al,BYTE [ebp + 8]
   403 00000246 66 8B 55 0C                     		mov dx,WORD [ebp + 12]
   404 0000024A EE                              		out dx,al
   405 0000024B 5A                              		pop edx
   406 0000024C C9                              		leave
   407 0000024D C3                              		retn
   408 0000024E                                 
   409 0000024E                                 _ReadByteStringFromPort:
   410 0000024E 55                              		push ebp
   411 0000024F 89 E5                           		mov ebp,esp
   412 00000251 51                              		push ecx
   413 00000252 52                              		push edx
   414 00000253 57                              		push edi
   415 00000254 8B 7D 08                        		mov edi,dword [ebp + 8]
   416 00000257 8B 4D 0C                        		mov ecx,dword [ebp + 12]
   417 0000025A 66 8B 55 10                     		mov dx,word [ebp + 16]
   418 0000025E F3 6C                           		rep insb
   419 00000260 5F                              		pop edi
   420 00000261 5A                              		pop edx
   421 00000262 59                              		pop ecx
   422 00000263 C9                              		leave
   423 00000264 C3                              		retn
   424 00000265                                 
   425 00000265                                 
   426 00000265                                 
   427 00000265                                 _WriteByteStringToPort:
   428 00000265 55                              		push ebp
   429 00000266 89 E5                           		mov ebp,esp
   430 00000268 51                              		push ecx
   431 00000269 52                              		push edx
   432 0000026A 56                              		push esi
   433 0000026B 8B 75 08                        		mov esi,dword [ebp + 8]
   434 0000026E 8B 4D 0C                        		mov ecx,dword [ebp + 12]
   435 00000271 66 8B 55 10                     		mov dx,word [ebp + 16]
   436 00000275 F3 6E                           		rep outsb
   437 00000277 5E                              		pop esi
   438 00000278 5A                              		pop edx
   439 00000279 59                              		pop ecx
   440 0000027A C9                              		leave
   441 0000027B C3                              		retn
   442 0000027C                                 
   443 0000027C                                 _ReadWordFromPort:
   444 0000027C 55                              		push ebp
   445 0000027D 89 E5                           		mov ebp,esp
   446 0000027F 53                              		push ebx
   447 00000280 52                              		push edx
   448 00000281 66 8B 55 0C                     		mov dx,word [ebp + 0x0c]
   449 00000285 8B 5D 08                        		mov ebx,dword [ebp + 0x08]
   450 00000288 66 ED                           		in ax,dx
   451 0000028A 66 89 03                        		mov word [ebx],ax
   452 0000028D 5A                              		pop edx
   453 0000028E 5B                              		pop ebx
   454 0000028F C9                              		leave
   455 00000290 C3                              		retn
   456 00000291                                 
   457 00000291                                 
   458 00000291                                 _WriteWordToPort:
   459 00000291 55                              		push ebp
   460 00000292 89 E5                           		mov ebp,esp
   461 00000294 66 52                           		push dx
   462 00000296 66 8B 55 0C                     		mov dx,word [ebp + 0x0c]
   463 0000029A 66 8B 45 08                     		mov ax,word [ebp + 0x08]
   464 0000029E 66 EF                           		out dx,ax
   465 000002A0 66 5A                           		pop dx
   466 000002A2 C9                              		leave
   467 000002A3 C3                              		retn
   468 000002A4                                 
   469 000002A4                                 _ReadWordStringFromPort:
   470 000002A4 55                              		push ebp
   471 000002A5 89 E5                           		mov ebp,esp
   472 000002A7 51                              		push ecx
   473 000002A8 52                              		push edx
   474 000002A9 57                              		push edi
   475 000002AA 8B 7D 08                        		mov edi,dword [ebp + 0x08]
   476 000002AD 8B 4D 0C                        		mov ecx,dword [ebp + 0x0c]
   477 000002B0 D1 E9                           		shr ecx,0x01
   478 000002B2 66 8B 55 10                     		mov dx,  word [ebp + 0x10]
   479 000002B6 FC                              		cld
   480 000002B7 F3 66 6D                        		rep insw
   481 000002BA 5F                              		pop edi
   482 000002BB 5A                              		pop edx
   483 000002BC 59                              		pop ecx
   484 000002BD C9                              		leave
   485 000002BE C3                              		retn
   486 000002BF                                 
   487 000002BF                                 
   488 000002BF                                 
   489 000002BF                                 
   490 000002BF                                 _WriteWordStringToPort:
   491 000002BF 55                              		push ebp
   492 000002C0 89 E5                           		mov ebp,esp
   493 000002C2 51                              		push ecx
   494 000002C3 52                              		push edx
   495 000002C4 56                              		push esi
   496 000002C5 8B 75 08                        		mov esi,dword [ebp + 0x08]
   497 000002C8 8B 4D 0C                        		mov ecx,dword  [ebp + 0x0c]
   498 000002CB C1 E9 02                        		shr ecx,0x02
   499 000002CE 66 8B 55 10                     		mov dx,  word [ebp + 0x10]
   500 000002D2 F3 66 6F                        		rep outsw
   501 000002D5 5E                              		pop esi
   502 000002D6 5A                              		pop edx
   503 000002D7 59                              		pop ecx
   504 000002D8 C9                              		leave
   505 000002D9 C3                              		retn
   506 000002DA                                 
   507 000002DA                                 _inws:
   508 000002DA 8B 7C 24 04                     	mov	edi, [esp + 4]	; buf
   509 000002DE 8B 4C 24 08                     	mov	ecx, [esp + 4 + 4]	; port
   510 000002E2 8B 54 24 0C                     	mov	edx, [esp + 4 + 4 + 4]   ; n
   511 000002E6 D1 E9                           	shr	ecx, 1
   512 000002E8 FC                              	cld
   513 000002E9 F3 66 6D                        	rep	insw
   514 000002EC C3                              	ret
   515 000002ED                                 	
   516 000002ED                                 _outws:
   517 000002ED 8B 7C 24 04                     	mov	edi, [esp + 4]	; buf
   518 000002F1 8B 4C 24 08                     	mov	ecx, [esp + 4 + 4]	; port
   519 000002F5 8B 54 24 0C                     	mov	edx, [esp + 4 + 4 + 4]   ; n
   520 000002F9 D1 E9                           	shr	ecx, 1
   521 000002FB FC                              	cld
   522 000002FC F3 66 6F                        	rep	outsw
   523 000002FF C3                              	ret
   524 00000300                                 	
   525 00000300                                 ; ------------------------------------------------------------------------
   526 00000300                                 ; void* memcpy(void* es:p_dst, void* ds:p_src, int size);
   527 00000300                                 ; ------------------------------------------------------------------------
   528 00000300                                 _memcpy:
   529 00000300 55                              	push	ebp
   530 00000301 89 E5                           	mov	ebp, esp
   531 00000303                                 
   532 00000303 56                              	push	esi
   533 00000304 57                              	push	edi
   534 00000305 51                              	push	ecx
   535 00000306                                 
   536 00000306 8B 7D 08                        	mov	edi, [ebp + 8]	; Destination
   537 00000309 8B 75 0C                        	mov	esi, [ebp + 12]	; Source
   538 0000030C 8B 4D 10                        	mov	ecx, [ebp + 16]	; Counter
   539 0000030F                                 .1:
   540 0000030F 83 F9 00                        	cmp	ecx, 0		; 判断计数器
   541 00000312 74 0B                           	jz	.2		; 计数器为零时跳出
   542 00000314                                 
   543 00000314 3E 8A 06                        	mov	al, [ds:esi]		; ┓
   544 00000317 46                              	inc	esi			; ┃
   545 00000318                                 					; ┣ 逐字节移动
   546 00000318 26 88 07                        	mov	byte [es:edi], al	; ┃
   547 0000031B 47                              	inc	edi			; ┛
   548 0000031C                                 
   549 0000031C 49                              	dec	ecx		; 计数器减一
   550 0000031D EB F0                           	jmp	.1		; 循环
   551 0000031F                                 .2:
   552 0000031F 8B 45 08                        	mov	eax, [ebp + 8]	; 返回值
   553 00000322                                 
   554 00000322 59                              	pop	ecx
   555 00000323 5F                              	pop	edi
   556 00000324 5E                              	pop	esi
   557 00000325 89 EC                           	mov	esp, ebp
   558 00000327 5D                              	pop	ebp
   559 00000328                                 
   560 00000328 C3                              	ret			; 函数结束，返回
   561 00000329                                 ; memcpy 结束-------------------------------------------------------------
   562 00000329                                 
   563 00000329                                 
   564 00000329                                 ; ------------------------------------------------------------------------
   565 00000329                                 ; void memset(void* p_dst, char ch, int size);
   566 00000329                                 ; ------------------------------------------------------------------------
   567 00000329                                 _memset:
   568 00000329 55                              	push	ebp
   569 0000032A 89 E5                           	mov	ebp, esp
   570 0000032C                                 
   571 0000032C 56                              	push	esi
   572 0000032D 57                              	push	edi
   573 0000032E 51                              	push	ecx
   574 0000032F                                 
   575 0000032F 8B 7D 08                        	mov	edi, [ebp + 8]	; Destination
   576 00000332 8B 55 0C                        	mov	edx, [ebp + 12]	; Char to be putted
   577 00000335 8B 4D 10                        	mov	ecx, [ebp + 16]	; Counter
   578 00000338                                 .1:
   579 00000338 83 F9 00                        	cmp	ecx, 0		; 判断计数器
   580 0000033B 74 06                           	jz	.2		; 计数器为零时跳出
   581 0000033D                                 
   582 0000033D 88 17                           	mov	byte [edi], dl		; ┓
   583 0000033F 47                              	inc	edi			; ┛
   584 00000340                                 
   585 00000340 49                              	dec	ecx		; 计数器减一
   586 00000341 EB F5                           	jmp	.1		; 循环
   587 00000343                                 .2:
   588 00000343                                 
   589 00000343 59                              	pop	ecx
   590 00000344 5F                              	pop	edi
   591 00000345 5E                              	pop	esi
   592 00000346 89 EC                           	mov	esp, ebp
   593 00000348 5D                              	pop	ebp
   594 00000349                                 
   595 00000349 C3                              	ret			; 函数结束，返回
   596 0000034A                                 	
   597                                          [SECTION .initfunc.init]
   598 00000000                                 __initfunc_start:
   599 00000000                                 __initfunc_end: