     1 00000000                                 [FORMAT "WCOFF"]
     2 00000000                                 [INSTRSET "i486p"]
     3 00000000                                 [OPTIMIZE 1]
     4 00000000                                 [OPTION 1]
     5 00000000                                 [BITS 32]
     6 00000000                                 	EXTERN	_boxfill8
     7 00000000                                 	EXTERN	_putfonts8_asc
     8 00000000                                 	EXTERN	_task_now
     9 00000000                                 	EXTERN	_sheet_refresh
    10 00000000                                 	EXTERN	_mouse_click_register
    11 00000000                                 [FILE "window.c"]
    12                                          [SECTION .text]
    13 00000000                                 	GLOBAL	_make_window8
    14 00000000                                 _make_window8:
    15 00000000 55                              	PUSH	EBP
    16 00000001 89 E5                           	MOV	EBP,ESP
    17 00000003 57                              	PUSH	EDI
    18 00000004 56                              	PUSH	ESI
    19 00000005 53                              	PUSH	EBX
    20 00000006 83 EC 18                        	SUB	ESP,24
    21 00000009 8B 45 10                        	MOV	EAX,DWORD [16+EBP]
    22 0000000C 8B 5D 0C                        	MOV	EBX,DWORD [12+EBP]
    23 0000000F 89 45 F0                        	MOV	DWORD [-16+EBP],EAX
    24 00000012 8B 75 08                        	MOV	ESI,DWORD [8+EBP]
    25 00000015 8B 45 14                        	MOV	EAX,DWORD [20+EBP]
    26 00000018 89 45 EC                        	MOV	DWORD [-20+EBP],EAX
    27 0000001B 0F BE 45 18                     	MOVSX	EAX,BYTE [24+EBP]
    28 0000001F 89 45 E8                        	MOV	DWORD [-24+EBP],EAX
    29 00000022 8D 43 FF                        	LEA	EAX,DWORD [-1+EBX]
    30 00000025 6A 00                           	PUSH	0
    31 00000027 89 45 E4                        	MOV	DWORD [-28+EBP],EAX
    32 0000002A 50                              	PUSH	EAX
    33 0000002B 6A 00                           	PUSH	0
    34 0000002D 6A 00                           	PUSH	0
    35 0000002F 6A 08                           	PUSH	8
    36 00000031 53                              	PUSH	EBX
    37 00000032 56                              	PUSH	ESI
    38 00000033 E8 [00000000]                   	CALL	_boxfill8
    39 00000038 8D 43 FE                        	LEA	EAX,DWORD [-2+EBX]
    40 0000003B 6A 01                           	PUSH	1
    41 0000003D 89 45 E0                        	MOV	DWORD [-32+EBP],EAX
    42 00000040 50                              	PUSH	EAX
    43 00000041 6A 01                           	PUSH	1
    44 00000043 6A 01                           	PUSH	1
    45 00000045 6A 07                           	PUSH	7
    46 00000047 53                              	PUSH	EBX
    47 00000048 56                              	PUSH	ESI
    48 00000049 E8 [00000000]                   	CALL	_boxfill8
    49 0000004E 8B 45 F0                        	MOV	EAX,DWORD [-16+EBP]
    50 00000051 83 C4 38                        	ADD	ESP,56
    51 00000054 48                              	DEC	EAX
    52 00000055 89 45 DC                        	MOV	DWORD [-36+EBP],EAX
    53 00000058 50                              	PUSH	EAX
    54 00000059 6A 00                           	PUSH	0
    55 0000005B 6A 00                           	PUSH	0
    56 0000005D 6A 00                           	PUSH	0
    57 0000005F 6A 08                           	PUSH	8
    58 00000061 53                              	PUSH	EBX
    59 00000062 56                              	PUSH	ESI
    60 00000063 E8 [00000000]                   	CALL	_boxfill8
    61 00000068 8B 7D F0                        	MOV	EDI,DWORD [-16+EBP]
    62 0000006B 83 EF 02                        	SUB	EDI,2
    63 0000006E 57                              	PUSH	EDI
    64 0000006F 6A 01                           	PUSH	1
    65 00000071 6A 01                           	PUSH	1
    66 00000073 6A 01                           	PUSH	1
    67 00000075 6A 07                           	PUSH	7
    68 00000077 53                              	PUSH	EBX
    69 00000078 56                              	PUSH	ESI
    70 00000079 E8 [00000000]                   	CALL	_boxfill8
    71 0000007E 83 C4 38                        	ADD	ESP,56
    72 00000081 57                              	PUSH	EDI
    73 00000082 FF 75 E0                        	PUSH	DWORD [-32+EBP]
    74 00000085 6A 01                           	PUSH	1
    75 00000087 FF 75 E0                        	PUSH	DWORD [-32+EBP]
    76 0000008A 6A 0F                           	PUSH	15
    77 0000008C 53                              	PUSH	EBX
    78 0000008D 56                              	PUSH	ESI
    79 0000008E E8 [00000000]                   	CALL	_boxfill8
    80 00000093 FF 75 DC                        	PUSH	DWORD [-36+EBP]
    81 00000096 FF 75 E4                        	PUSH	DWORD [-28+EBP]
    82 00000099 6A 00                           	PUSH	0
    83 0000009B FF 75 E4                        	PUSH	DWORD [-28+EBP]
    84 0000009E 6A 00                           	PUSH	0
    85 000000A0 53                              	PUSH	EBX
    86 000000A1 56                              	PUSH	ESI
    87 000000A2 E8 [00000000]                   	CALL	_boxfill8
    88 000000A7 8B 45 F0                        	MOV	EAX,DWORD [-16+EBP]
    89 000000AA 83 C4 38                        	ADD	ESP,56
    90 000000AD 83 E8 03                        	SUB	EAX,3
    91 000000B0 50                              	PUSH	EAX
    92 000000B1 8D 43 FD                        	LEA	EAX,DWORD [-3+EBX]
    93 000000B4 50                              	PUSH	EAX
    94 000000B5 6A 02                           	PUSH	2
    95 000000B7 6A 02                           	PUSH	2
    96 000000B9 6A 08                           	PUSH	8
    97 000000BB 53                              	PUSH	EBX
    98 000000BC 56                              	PUSH	ESI
    99 000000BD E8 [00000000]                   	CALL	_boxfill8
   100 000000C2 57                              	PUSH	EDI
   101 000000C3 FF 75 E0                        	PUSH	DWORD [-32+EBP]
   102 000000C6 57                              	PUSH	EDI
   103 000000C7 6A 01                           	PUSH	1
   104 000000C9 6A 0F                           	PUSH	15
   105 000000CB 53                              	PUSH	EBX
   106 000000CC 56                              	PUSH	ESI
   107 000000CD E8 [00000000]                   	CALL	_boxfill8
   108 000000D2 83 C4 38                        	ADD	ESP,56
   109 000000D5 FF 75 DC                        	PUSH	DWORD [-36+EBP]
   110 000000D8 FF 75 E4                        	PUSH	DWORD [-28+EBP]
   111 000000DB FF 75 DC                        	PUSH	DWORD [-36+EBP]
   112 000000DE 6A 00                           	PUSH	0
   113 000000E0 6A 00                           	PUSH	0
   114 000000E2 53                              	PUSH	EBX
   115 000000E3 56                              	PUSH	ESI
   116 000000E4 E8 [00000000]                   	CALL	_boxfill8
   117 000000E9 89 75 08                        	MOV	DWORD [8+EBP],ESI
   118 000000EC 8B 45 E8                        	MOV	EAX,DWORD [-24+EBP]
   119 000000EF 89 5D 0C                        	MOV	DWORD [12+EBP],EBX
   120 000000F2 89 45 14                        	MOV	DWORD [20+EBP],EAX
   121 000000F5 83 C4 1C                        	ADD	ESP,28
   122 000000F8 8B 45 EC                        	MOV	EAX,DWORD [-20+EBP]
   123 000000FB 89 45 10                        	MOV	DWORD [16+EBP],EAX
   124 000000FE 8D 65 F4                        	LEA	ESP,DWORD [-12+EBP]
   125 00000101 5B                              	POP	EBX
   126 00000102 5E                              	POP	ESI
   127 00000103 5F                              	POP	EDI
   128 00000104 5D                              	POP	EBP
   129 00000105 EB 00                           	JMP	_make_wtitle8
   130                                          [SECTION .data]
   131 00000000                                 _closebtn.0:
   132 00000000 4F 4F 4F 4F 4F 4F 4F 4F 4F 4F   	DB	"OOOOOOOOOOOOOOO@"
       0000000A 4F 4F 4F 4F 4F 40 
   133 00000010 4F 51 51 51 51 51 51 51 51 51   	DB	"OQQQQQQQQQQQQQ$@"
       0000001A 51 51 51 51 24 40 
   134 00000020 4F 51 51 51 51 51 51 51 51 51   	DB	"OQQQQQQQQQQQQQ$@"
       0000002A 51 51 51 51 24 40 
   135 00000030 4F 51 51 51 40 40 51 51 51 51   	DB	"OQQQ@@QQQQ@@QQ$@"
       0000003A 40 40 51 51 24 40 
   136 00000040 4F 51 51 51 51 40 40 51 51 40   	DB	"OQQQQ@@QQ@@QQQ$@"
       0000004A 40 51 51 51 24 40 
   137 00000050 4F 51 51 51 51 51 40 40 40 40   	DB	"OQQQQQ@@@@QQQQ$@"
       0000005A 51 51 51 51 24 40 
   138 00000060 4F 51 51 51 51 51 51 40 40 51   	DB	"OQQQQQQ@@QQQQQ$@"
       0000006A 51 51 51 51 24 40 
   139 00000070 4F 51 51 51 51 51 40 40 40 40   	DB	"OQQQQQ@@@@QQQQ$@"
       0000007A 51 51 51 51 24 40 
   140 00000080 4F 51 51 51 51 40 40 51 51 40   	DB	"OQQQQ@@QQ@@QQQ$@"
       0000008A 40 51 51 51 24 40 
   141 00000090 4F 51 51 51 40 40 51 51 51 51   	DB	"OQQQ@@QQQQ@@QQ$@"
       0000009A 40 40 51 51 24 40 
   142 000000A0 4F 51 51 51 51 51 51 51 51 51   	DB	"OQQQQQQQQQQQQQ$@"
       000000AA 51 51 51 51 24 40 
   143 000000B0 4F 51 51 51 51 51 51 51 51 51   	DB	"OQQQQQQQQQQQQQ$@"
       000000BA 51 51 51 51 24 40 
   144 000000C0 4F 24 24 24 24 24 24 24 24 24   	DB	"O$$$$$$$$$$$$$$@"
       000000CA 24 24 24 24 24 40 
   145 000000D0 40 40 40 40 40 40 40 40 40 40   	DB	"@@@@@@@@@@@@@@@@"
       000000DA 40 40 40 40 40 40 
   146                                          [SECTION .text]
   147 00000107                                 	GLOBAL	_make_wtitle8
   148 00000107                                 _make_wtitle8:
   149 00000107 55                              	PUSH	EBP
   150 00000108 89 E5                           	MOV	EBP,ESP
   151 0000010A 57                              	PUSH	EDI
   152 0000010B 56                              	PUSH	ESI
   153 0000010C 53                              	PUSH	EBX
   154 0000010D 50                              	PUSH	EAX
   155 0000010E 80 7D 14 00                     	CMP	BYTE [20+EBP],0
   156 00000112 0F 84 00000097                  	JE	L3
   157 00000118 B3 07                           	MOV	BL,7
   158 0000011A B2 0C                           	MOV	DL,12
   159 0000011C                                 L4:
   160 0000011C 8B 45 0C                        	MOV	EAX,DWORD [12+EBP]
   161 0000011F 6A 14                           	PUSH	20
   162 00000121 83 E8 04                        	SUB	EAX,4
   163 00000124 31 FF                           	XOR	EDI,EDI
   164 00000126 50                              	PUSH	EAX
   165 00000127 6A 03                           	PUSH	3
   166 00000129 6A 03                           	PUSH	3
   167 0000012B 0F B6 C2                        	MOVZX	EAX,DL
   168 0000012E 50                              	PUSH	EAX
   169 0000012F FF 75 0C                        	PUSH	DWORD [12+EBP]
   170 00000132 FF 75 08                        	PUSH	DWORD [8+EBP]
   171 00000135 E8 [00000000]                   	CALL	_boxfill8
   172 0000013A FF 75 10                        	PUSH	DWORD [16+EBP]
   173 0000013D 0F BE C3                        	MOVSX	EAX,BL
   174 00000140 50                              	PUSH	EAX
   175 00000141 6A 04                           	PUSH	4
   176 00000143 6A 18                           	PUSH	24
   177 00000145 FF 75 0C                        	PUSH	DWORD [12+EBP]
   178 00000148 FF 75 08                        	PUSH	DWORD [8+EBP]
   179 0000014B E8 [00000000]                   	CALL	_putfonts8_asc
   180 00000150 83 C4 34                        	ADD	ESP,52
   181 00000153 6B 5D 0C 05                     	IMUL	EBX,DWORD [12+EBP],5
   182 00000157 C7 45 F0 00000000               	MOV	DWORD [-16+EBP],0
   183 0000015E                                 L20:
   184 0000015E 8B 45 0C                        	MOV	EAX,DWORD [12+EBP]
   185 00000161 8B 55 08                        	MOV	EDX,DWORD [8+EBP]
   186 00000164 01 D8                           	ADD	EAX,EBX
   187 00000166 31 F6                           	XOR	ESI,ESI
   188 00000168 8D 4C 02 EB                     	LEA	ECX,DWORD [-21+EDX+EAX*1]
   189 0000016C                                 L19:
   190 0000016C 8A 94 3E [00000000]             	MOV	DL,BYTE [_closebtn.0+ESI+EDI*1]
   191 00000173 80 FA 40                        	CMP	DL,64
   192 00000176 74 33                           	JE	L25
   193 00000178 80 FA 24                        	CMP	DL,36
   194 0000017B 74 2A                           	JE	L26
   195 0000017D 80 FA 51                        	CMP	DL,81
   196 00000180 B2 08                           	MOV	DL,8
   197 00000182 0F 95 C0                        	SETNE	AL
   198 00000185 28 C2                           	SUB	DL,AL
   199 00000187                                 L14:
   200 00000187 46                              	INC	ESI
   201 00000188 88 11                           	MOV	BYTE [ECX],DL
   202 0000018A 41                              	INC	ECX
   203 0000018B 83 FE 0F                        	CMP	ESI,15
   204 0000018E 7E DC                           	JLE	L19
   205 00000190 FF 45 F0                        	INC	DWORD [-16+EBP]
   206 00000193 83 C7 10                        	ADD	EDI,16
   207 00000196 03 5D 0C                        	ADD	EBX,DWORD [12+EBP]
   208 00000199 83 7D F0 0D                     	CMP	DWORD [-16+EBP],13
   209 0000019D 7E BF                           	JLE	L20
   210 0000019F 8D 65 F4                        	LEA	ESP,DWORD [-12+EBP]
   211 000001A2 5B                              	POP	EBX
   212 000001A3 5E                              	POP	ESI
   213 000001A4 5F                              	POP	EDI
   214 000001A5 5D                              	POP	EBP
   215 000001A6 C3                              	RET
   216 000001A7                                 L26:
   217 000001A7 B2 0F                           	MOV	DL,15
   218 000001A9 EB DC                           	JMP	L14
   219 000001AB                                 L25:
   220 000001AB 31 D2                           	XOR	EDX,EDX
   221 000001AD EB D8                           	JMP	L14
   222 000001AF                                 L3:
   223 000001AF B3 08                           	MOV	BL,8
   224 000001B1 B2 0F                           	MOV	DL,15
   225 000001B3 E9 FFFFFF64                     	JMP	L4
   226 000001B8                                 	GLOBAL	_putfonts8_asc_sht
   227 000001B8                                 _putfonts8_asc_sht:
   228 000001B8 55                              	PUSH	EBP
   229 000001B9 89 E5                           	MOV	EBP,ESP
   230 000001BB 57                              	PUSH	EDI
   231 000001BC 56                              	PUSH	ESI
   232 000001BD 53                              	PUSH	EBX
   233 000001BE 83 EC 18                        	SUB	ESP,24
   234 000001C1 8B 45 0C                        	MOV	EAX,DWORD [12+EBP]
   235 000001C4 8B 55 14                        	MOV	EDX,DWORD [20+EBP]
   236 000001C7 8B 4D 1C                        	MOV	ECX,DWORD [28+EBP]
   237 000001CA 89 45 F0                        	MOV	DWORD [-16+EBP],EAX
   238 000001CD 8B 45 20                        	MOV	EAX,DWORD [32+EBP]
   239 000001D0 89 55 EC                        	MOV	DWORD [-20+EBP],EDX
   240 000001D3 89 4D E8                        	MOV	DWORD [-24+EBP],ECX
   241 000001D6 89 45 E4                        	MOV	DWORD [-28+EBP],EAX
   242 000001D9 8B 7D 08                        	MOV	EDI,DWORD [8+EBP]
   243 000001DC 8B 75 10                        	MOV	ESI,DWORD [16+EBP]
   244 000001DF 8B 5D 18                        	MOV	EBX,DWORD [24+EBP]
   245 000001E2 E8 [00000000]                   	CALL	_task_now
   246 000001E7 0F B6 DB                        	MOVZX	EBX,BL
   247 000001EA 89 45 E0                        	MOV	DWORD [-32+EBP],EAX
   248 000001ED 8D 46 0F                        	LEA	EAX,DWORD [15+ESI]
   249 000001F0 50                              	PUSH	EAX
   250 000001F1 8B 4D F0                        	MOV	ECX,DWORD [-16+EBP]
   251 000001F4 8B 55 E4                        	MOV	EDX,DWORD [-28+EBP]
   252 000001F7 8D 14 D1                        	LEA	EDX,DWORD [ECX+EDX*8]
   253 000001FA 89 D0                           	MOV	EAX,EDX
   254 000001FC 89 55 DC                        	MOV	DWORD [-36+EBP],EDX
   255 000001FF 48                              	DEC	EAX
   256 00000200 50                              	PUSH	EAX
   257 00000201 56                              	PUSH	ESI
   258 00000202 51                              	PUSH	ECX
   259 00000203 53                              	PUSH	EBX
   260 00000204 FF 77 04                        	PUSH	DWORD [4+EDI]
   261 00000207 FF 37                           	PUSH	DWORD [EDI]
   262 00000209 E8 [00000000]                   	CALL	_boxfill8
   263 0000020E 8B 4D E0                        	MOV	ECX,DWORD [-32+EBP]
   264 00000211 83 C4 1C                        	ADD	ESP,28
   265 00000214 80 B9 0000012C 00               	CMP	BYTE [300+ECX],0
   266 0000021B 74 09                           	JE	L28
   267 0000021D 80 B9 0000012D 00               	CMP	BYTE [301+ECX],0
   268 00000224 75 40                           	JNE	L31
   269 00000226                                 L28:
   270 00000226 FF 75 E8                        	PUSH	DWORD [-24+EBP]
   271 00000229 0F BE 45 EC                     	MOVSX	EAX,BYTE [-20+EBP]
   272 0000022D 50                              	PUSH	EAX
   273 0000022E 56                              	PUSH	ESI
   274 0000022F FF 75 F0                        	PUSH	DWORD [-16+EBP]
   275 00000232 FF 77 04                        	PUSH	DWORD [4+EDI]
   276 00000235 FF 37                           	PUSH	DWORD [EDI]
   277 00000237 E8 [00000000]                   	CALL	_putfonts8_asc
   278 0000023C 89 75 10                        	MOV	DWORD [16+EBP],ESI
   279 0000023F 8B 4D F0                        	MOV	ECX,DWORD [-16+EBP]
   280 00000242 8B 55 E4                        	MOV	EDX,DWORD [-28+EBP]
   281 00000245 8D 46 10                        	LEA	EAX,DWORD [16+ESI]
   282 00000248 83 C4 18                        	ADD	ESP,24
   283 0000024B 89 45 18                        	MOV	DWORD [24+EBP],EAX
   284 0000024E 89 4D 0C                        	MOV	DWORD [12+EBP],ECX
   285 00000251 8D 04 D1                        	LEA	EAX,DWORD [ECX+EDX*8]
   286 00000254 89 45 14                        	MOV	DWORD [20+EBP],EAX
   287 00000257                                 L30:
   288 00000257 89 7D 08                        	MOV	DWORD [8+EBP],EDI
   289 0000025A 8D 65 F4                        	LEA	ESP,DWORD [-12+EBP]
   290 0000025D 5B                              	POP	EBX
   291 0000025E 5E                              	POP	ESI
   292 0000025F 5F                              	POP	EDI
   293 00000260 5D                              	POP	EBP
   294 00000261 E9 [00000000]                   	JMP	_sheet_refresh
   295 00000266                                 L31:
   296 00000266 FF 75 E8                        	PUSH	DWORD [-24+EBP]
   297 00000269 0F BE 45 EC                     	MOVSX	EAX,BYTE [-20+EBP]
   298 0000026D 50                              	PUSH	EAX
   299 0000026E 56                              	PUSH	ESI
   300 0000026F FF 75 F0                        	PUSH	DWORD [-16+EBP]
   301 00000272 FF 77 04                        	PUSH	DWORD [4+EDI]
   302 00000275 FF 37                           	PUSH	DWORD [EDI]
   303 00000277 E8 [00000000]                   	CALL	_putfonts8_asc
   304 0000027C 89 75 10                        	MOV	DWORD [16+EBP],ESI
   305 0000027F 8D 46 10                        	LEA	EAX,DWORD [16+ESI]
   306 00000282 83 C4 18                        	ADD	ESP,24
   307 00000285 89 45 18                        	MOV	DWORD [24+EBP],EAX
   308 00000288 8B 45 DC                        	MOV	EAX,DWORD [-36+EBP]
   309 0000028B 89 45 14                        	MOV	DWORD [20+EBP],EAX
   310 0000028E 8B 45 F0                        	MOV	EAX,DWORD [-16+EBP]
   311 00000291 83 E8 08                        	SUB	EAX,8
   312 00000294 89 45 0C                        	MOV	DWORD [12+EBP],EAX
   313 00000297 EB BE                           	JMP	L30
   314 00000299                                 	GLOBAL	_make_textbox8
   315 00000299                                 _make_textbox8:
   316 00000299 55                              	PUSH	EBP
   317 0000029A 89 E5                           	MOV	EBP,ESP
   318 0000029C 57                              	PUSH	EDI
   319 0000029D 56                              	PUSH	ESI
   320 0000029E 53                              	PUSH	EBX
   321 0000029F 83 EC 14                        	SUB	ESP,20
   322 000002A2 8B 45 0C                        	MOV	EAX,DWORD [12+EBP]
   323 000002A5 8B 75 10                        	MOV	ESI,DWORD [16+EBP]
   324 000002A8 03 45 14                        	ADD	EAX,DWORD [20+EBP]
   325 000002AB 83 EE 03                        	SUB	ESI,3
   326 000002AE 56                              	PUSH	ESI
   327 000002AF 89 45 F0                        	MOV	DWORD [-16+EBP],EAX
   328 000002B2 8B 45 10                        	MOV	EAX,DWORD [16+EBP]
   329 000002B5 03 45 18                        	ADD	EAX,DWORD [24+EBP]
   330 000002B8 89 45 EC                        	MOV	DWORD [-20+EBP],EAX
   331 000002BB 8B 45 F0                        	MOV	EAX,DWORD [-16+EBP]
   332 000002BE 40                              	INC	EAX
   333 000002BF 50                              	PUSH	EAX
   334 000002C0 89 45 E8                        	MOV	DWORD [-24+EBP],EAX
   335 000002C3 8B 45 0C                        	MOV	EAX,DWORD [12+EBP]
   336 000002C6 56                              	PUSH	ESI
   337 000002C7 83 E8 02                        	SUB	EAX,2
   338 000002CA 50                              	PUSH	EAX
   339 000002CB 89 45 E4                        	MOV	DWORD [-28+EBP],EAX
   340 000002CE 8B 45 08                        	MOV	EAX,DWORD [8+EBP]
   341 000002D1 6A 0F                           	PUSH	15
   342 000002D3 FF 70 04                        	PUSH	DWORD [4+EAX]
   343 000002D6 FF 30                           	PUSH	DWORD [EAX]
   344 000002D8 E8 [00000000]                   	CALL	_boxfill8
   345 000002DD 8B 7D 0C                        	MOV	EDI,DWORD [12+EBP]
   346 000002E0 8B 45 EC                        	MOV	EAX,DWORD [-20+EBP]
   347 000002E3 83 EF 03                        	SUB	EDI,3
   348 000002E6 40                              	INC	EAX
   349 000002E7 50                              	PUSH	EAX
   350 000002E8 89 45 E0                        	MOV	DWORD [-32+EBP],EAX
   351 000002EB 57                              	PUSH	EDI
   352 000002EC 8B 45 08                        	MOV	EAX,DWORD [8+EBP]
   353 000002EF 56                              	PUSH	ESI
   354 000002F0 57                              	PUSH	EDI
   355 000002F1 6A 0F                           	PUSH	15
   356 000002F3 FF 70 04                        	PUSH	DWORD [4+EAX]
   357 000002F6 FF 30                           	PUSH	DWORD [EAX]
   358 000002F8 E8 [00000000]                   	CALL	_boxfill8
   359 000002FD 8B 45 08                        	MOV	EAX,DWORD [8+EBP]
   360 00000300 83 C4 38                        	ADD	ESP,56
   361 00000303 8B 5D EC                        	MOV	EBX,DWORD [-20+EBP]
   362 00000306 83 C3 02                        	ADD	EBX,2
   363 00000309 53                              	PUSH	EBX
   364 0000030A FF 75 E8                        	PUSH	DWORD [-24+EBP]
   365 0000030D 53                              	PUSH	EBX
   366 0000030E 57                              	PUSH	EDI
   367 0000030F 6A 07                           	PUSH	7
   368 00000311 FF 70 04                        	PUSH	DWORD [4+EAX]
   369 00000314 FF 30                           	PUSH	DWORD [EAX]
   370 00000316 E8 [00000000]                   	CALL	_boxfill8
   371 0000031B 8B 45 F0                        	MOV	EAX,DWORD [-16+EBP]
   372 0000031E 53                              	PUSH	EBX
   373 0000031F 83 C0 02                        	ADD	EAX,2
   374 00000322 50                              	PUSH	EAX
   375 00000323 56                              	PUSH	ESI
   376 00000324 50                              	PUSH	EAX
   377 00000325 8B 45 08                        	MOV	EAX,DWORD [8+EBP]
   378 00000328 6A 07                           	PUSH	7
   379 0000032A FF 70 04                        	PUSH	DWORD [4+EAX]
   380 0000032D FF 30                           	PUSH	DWORD [EAX]
   381 0000032F E8 [00000000]                   	CALL	_boxfill8
   382 00000334 8B 45 08                        	MOV	EAX,DWORD [8+EBP]
   383 00000337 83 C4 38                        	ADD	ESP,56
   384 0000033A 8B 5D 10                        	MOV	EBX,DWORD [16+EBP]
   385 0000033D 83 EB 02                        	SUB	EBX,2
   386 00000340 8B 7D 0C                        	MOV	EDI,DWORD [12+EBP]
   387 00000343 53                              	PUSH	EBX
   388 00000344 4F                              	DEC	EDI
   389 00000345 FF 75 F0                        	PUSH	DWORD [-16+EBP]
   390 00000348 53                              	PUSH	EBX
   391 00000349 57                              	PUSH	EDI
   392 0000034A 6A 00                           	PUSH	0
   393 0000034C FF 70 04                        	PUSH	DWORD [4+EAX]
   394 0000034F FF 30                           	PUSH	DWORD [EAX]
   395 00000351 E8 [00000000]                   	CALL	_boxfill8
   396 00000356 8B 45 08                        	MOV	EAX,DWORD [8+EBP]
   397 00000359 FF 75 EC                        	PUSH	DWORD [-20+EBP]
   398 0000035C FF 75 E4                        	PUSH	DWORD [-28+EBP]
   399 0000035F 53                              	PUSH	EBX
   400 00000360 FF 75 E4                        	PUSH	DWORD [-28+EBP]
   401 00000363 6A 00                           	PUSH	0
   402 00000365 FF 70 04                        	PUSH	DWORD [4+EAX]
   403 00000368 FF 30                           	PUSH	DWORD [EAX]
   404 0000036A E8 [00000000]                   	CALL	_boxfill8
   405 0000036F 8B 45 08                        	MOV	EAX,DWORD [8+EBP]
   406 00000372 83 C4 38                        	ADD	ESP,56
   407 00000375 FF 75 E0                        	PUSH	DWORD [-32+EBP]
   408 00000378 FF 75 F0                        	PUSH	DWORD [-16+EBP]
   409 0000037B FF 75 E0                        	PUSH	DWORD [-32+EBP]
   410 0000037E FF 75 E4                        	PUSH	DWORD [-28+EBP]
   411 00000381 6A 08                           	PUSH	8
   412 00000383 FF 70 04                        	PUSH	DWORD [4+EAX]
   413 00000386 FF 30                           	PUSH	DWORD [EAX]
   414 00000388 E8 [00000000]                   	CALL	_boxfill8
   415 0000038D 8B 45 08                        	MOV	EAX,DWORD [8+EBP]
   416 00000390 FF 75 E0                        	PUSH	DWORD [-32+EBP]
   417 00000393 FF 75 E8                        	PUSH	DWORD [-24+EBP]
   418 00000396 53                              	PUSH	EBX
   419 00000397 FF 75 E8                        	PUSH	DWORD [-24+EBP]
   420 0000039A 6A 08                           	PUSH	8
   421 0000039C FF 70 04                        	PUSH	DWORD [4+EAX]
   422 0000039F FF 30                           	PUSH	DWORD [EAX]
   423 000003A1 E8 [00000000]                   	CALL	_boxfill8
   424 000003A6 8B 45 10                        	MOV	EAX,DWORD [16+EBP]
   425 000003A9 83 C4 38                        	ADD	ESP,56
   426 000003AC 48                              	DEC	EAX
   427 000003AD FF 75 EC                        	PUSH	DWORD [-20+EBP]
   428 000003B0 FF 75 F0                        	PUSH	DWORD [-16+EBP]
   429 000003B3 50                              	PUSH	EAX
   430 000003B4 57                              	PUSH	EDI
   431 000003B5 0F B6 45 1C                     	MOVZX	EAX,BYTE [28+EBP]
   432 000003B9 50                              	PUSH	EAX
   433 000003BA 8B 45 08                        	MOV	EAX,DWORD [8+EBP]
   434 000003BD FF 70 04                        	PUSH	DWORD [4+EAX]
   435 000003C0 FF 30                           	PUSH	DWORD [EAX]
   436 000003C2 E8 [00000000]                   	CALL	_boxfill8
   437 000003C7 8D 65 F4                        	LEA	ESP,DWORD [-12+EBP]
   438 000003CA 5B                              	POP	EBX
   439 000003CB 5E                              	POP	ESI
   440 000003CC 5F                              	POP	EDI
   441 000003CD 5D                              	POP	EBP
   442 000003CE C3                              	RET
   443                                          [SECTION .data]
   444 000000E0                                 _btna.1:
   445 000000E0 4F 4F 4F 4F 4F 4F 4F 4F 4F 4F   	DB	"OOOOOOOOOOOOOOOO"
       000000EA 4F 4F 4F 4F 4F 4F 
   446 000000F0 4F 51 51 51 51 51 51 51 51 51   	DB	"OQQQQQQQQQQQQQQQ"
       000000FA 51 51 51 51 51 51 
   447 00000100 4F 51 51 51 51 51 51 51 51 51   	DB	"OQQQQQQQQQQQQQQQ"
       0000010A 51 51 51 51 51 51 
   448 00000110 4F 51 51 51 51 51 51 51 51 51   	DB	"OQQQQQQQQQQQQQQQ"
       0000011A 51 51 51 51 51 51 
   449 00000120 4F 51 51 51 51 51 51 51 51 51   	DB	"OQQQQQQQQQQQQQQQ"
       0000012A 51 51 51 51 51 51 
   450 00000130 4F 51 51 51 51 51 51 51 51 51   	DB	"OQQQQQQQQQQQQQQQ"
       0000013A 51 51 51 51 51 51 
   451 00000140 4F 51 51 51 51 51 51 51 51 51   	DB	"OQQQQQQQQQQQQQQQ"
       0000014A 51 51 51 51 51 51 
   452 00000150 4F 51 51 51 51 51 51 51 51 51   	DB	"OQQQQQQQQQQQQQQQ"
       0000015A 51 51 51 51 51 51 
   453 00000160 4F 51 51 51 51 51 51 51 51 51   	DB	"OQQQQQQQQQQQQQQQ"
       0000016A 51 51 51 51 51 51 
   454 00000170 4F 51 51 51 51 51 51 51 51 51   	DB	"OQQQQQQQQQQQQQQQ"
       0000017A 51 51 51 51 51 51 
   455 00000180 4F 51 51 51 51 51 51 51 51 51   	DB	"OQQQQQQQQQQQQQQQ"
       0000018A 51 51 51 51 51 51 
   456 00000190 4F 51 51 51 51 51 51 51 51 51   	DB	"OQQQQQQQQQQQQQQQ"
       0000019A 51 51 51 51 51 51 
   457 000001A0 4F 51 51 51 51 51 51 51 51 51   	DB	"OQQQQQQQQQQQQQQQ"
       000001AA 51 51 51 51 51 51 
   458 000001B0 4F 51 51 51 51 51 51 51 51 51   	DB	"OQQQQQQQQQQQQQQQ"
       000001BA 51 51 51 51 51 51 
   459 000001C0 4F 24 24 24 24 24 24 24 24 24   	DB	"O$$$$$$$$$$$$$$$"
       000001CA 24 24 24 24 24 24 
   460 000001D0 40 40 40 40 40 40 40 40 40 40   	DB	"@@@@@@@@@@@@@@@@"
       000001DA 40 40 40 40 40 40 
   461 000001E0                                 LC0:
   462 000001E0 4F 4F 4F 4F 4F 4F 4F 4F 4F 4F   	DB	"OOOOOOOOOOOOOOOO"
       000001EA 4F 4F 4F 4F 4F 4F 
   463 000001F0 51 51 51 51 51 51 51 51 51 51   	DB	"QQQQQQQQQQQQQQQQ"
       000001FA 51 51 51 51 51 51 
   464 00000200 51 51 51 51 51 51 51 51 51 51   	DB	"QQQQQQQQQQQQQQQQ"
       0000020A 51 51 51 51 51 51 
   465 00000210 51 51 51 51 51 51 51 51 51 51   	DB	"QQQQQQQQQQQQQQQQ"
       0000021A 51 51 51 51 51 51 
   466 00000220 51 51 51 51 51 51 51 51 51 51   	DB	"QQQQQQQQQQQQQQQQ"
       0000022A 51 51 51 51 51 51 
   467 00000230 51 51 51 51 51 51 51 51 51 51   	DB	"QQQQQQQQQQQQQQQQ"
       0000023A 51 51 51 51 51 51 
   468 00000240 51 51 51 51 51 51 51 51 51 51   	DB	"QQQQQQQQQQQQQQQQ"
       0000024A 51 51 51 51 51 51 
   469 00000250 51 51 51 51 51 51 51 51 51 51   	DB	"QQQQQQQQQQQQQQQQ"
       0000025A 51 51 51 51 51 51 
   470 00000260 51 51 51 51 51 51 51 51 51 51   	DB	"QQQQQQQQQQQQQQQQ"
       0000026A 51 51 51 51 51 51 
   471 00000270 51 51 51 51 51 51 51 51 51 51   	DB	"QQQQQQQQQQQQQQQQ"
       0000027A 51 51 51 51 51 51 
   472 00000280 51 51 51 51 51 51 51 51 51 51   	DB	"QQQQQQQQQQQQQQQQ"
       0000028A 51 51 51 51 51 51 
   473 00000290 51 51 51 51 51 51 51 51 51 51   	DB	"QQQQQQQQQQQQQQQQ"
       0000029A 51 51 51 51 51 51 
   474 000002A0 51 51 51 51 51 51 51 51 51 51   	DB	"QQQQQQQQQQQQQQQQ"
       000002AA 51 51 51 51 51 51 
   475 000002B0 51 51 51 51 51 51 51 51 51 51   	DB	"QQQQQQQQQQQQQQQQ"
       000002BA 51 51 51 51 51 51 
   476 000002C0 24 24 24 24 24 24 24 24 24 24   	DB	"$$$$$$$$$$$$$$$$"
       000002CA 24 24 24 24 24 24 
   477 000002D0 40 40 40 40 40 40 40 40 40 40   	DB	"@@@@@@@@@@@@@@@@"
       000002DA 40 40 40 40 40 40 
   478 000002E0                                 _btnc.2:
   479 000002E0 4F 4F 4F 4F 4F 4F 4F 4F 4F 4F   	DB	"OOOOOOOOOOOOOOO@"
       000002EA 4F 4F 4F 4F 4F 40 
   480 000002F0 51 51 51 51 51 51 51 51 51 51   	DB	"QQQQQQQQQQQQQQ$@"
       000002FA 51 51 51 51 24 40 
   481 00000300 51 51 51 51 51 51 51 51 51 51   	DB	"QQQQQQQQQQQQQQ$@"
       0000030A 51 51 51 51 24 40 
   482 00000310 51 51 51 51 51 51 51 51 51 51   	DB	"QQQQQQQQQQQQQQ$@"
       0000031A 51 51 51 51 24 40 
   483 00000320 51 51 51 51 51 51 51 51 51 51   	DB	"QQQQQQQQQQQQQQ$@"
       0000032A 51 51 51 51 24 40 
   484 00000330 51 51 51 51 51 51 51 51 51 51   	DB	"QQQQQQQQQQQQQQ$@"
       0000033A 51 51 51 51 24 40 
   485 00000340 51 51 51 51 51 51 51 51 51 51   	DB	"QQQQQQQQQQQQQQ$@"
       0000034A 51 51 51 51 24 40 
   486 00000350 51 51 51 51 51 51 51 51 51 51   	DB	"QQQQQQQQQQQQQQ$@"
       0000035A 51 51 51 51 24 40 
   487 00000360 51 51 51 51 51 51 51 51 51 51   	DB	"QQQQQQQQQQQQQQ$@"
       0000036A 51 51 51 51 24 40 
   488 00000370 51 51 51 51 51 51 51 51 51 51   	DB	"QQQQQQQQQQQQQQ$@"
       0000037A 51 51 51 51 24 40 
   489 00000380 51 51 51 51 51 51 51 51 51 51   	DB	"QQQQQQQQQQQQQQ$@"
       0000038A 51 51 51 51 24 40 
   490 00000390 51 51 51 51 51 51 51 51 51 51   	DB	"QQQQQQQQQQQQQQ$@"
       0000039A 51 51 51 51 24 40 
   491 000003A0 51 51 51 51 51 51 51 51 51 51   	DB	"QQQQQQQQQQQQQQ$@"
       000003AA 51 51 51 51 24 40 
   492 000003B0 51 51 51 51 51 51 51 51 51 51   	DB	"QQQQQQQQQQQQQQ$@"
       000003BA 51 51 51 51 24 40 
   493 000003C0 24 24 24 24 24 24 24 24 24 24   	DB	"$$$$$$$$$$$$$$$@"
       000003CA 24 24 24 24 24 40 
   494 000003D0 40 40 40 40 40 40 40 40 40 40   	DB	"@@@@@@@@@@@@@@@@"
       000003DA 40 40 40 40 40 40 
   495                                          [SECTION .text]
   496 000003CF                                 	GLOBAL	_make_button8
   497 000003CF                                 _make_button8:
   498 000003CF 55                              	PUSH	EBP
   499 000003D0 89 E5                           	MOV	EBP,ESP
   500 000003D2 57                              	PUSH	EDI
   501 000003D3 56                              	PUSH	ESI
   502 000003D4 53                              	PUSH	EBX
   503 000003D5 81 EC 0000011C                  	SUB	ESP,284
   504 000003DB 8B 45 08                        	MOV	EAX,DWORD [8+EBP]
   505 000003DE C7 85 FFFFFEEC 00000000         	MOV	DWORD [-276+EBP],0
   506 000003E8 8B 00                           	MOV	EAX,DWORD [EAX]
   507 000003EA 89 85 FFFFFEF0                  	MOV	DWORD [-272+EBP],EAX
   508 000003F0                                 L34:
   509 000003F0 8B 55 18                        	MOV	EDX,DWORD [24+EBP]
   510 000003F3 8B 8D FFFFFEEC                  	MOV	ECX,DWORD [-276+EBP]
   511 000003F9 80 3C 11 00                     	CMP	BYTE [ECX+EDX*1],0
   512 000003FD 74 09                           	JE	L35
   513 000003FF 41                              	INC	ECX
   514 00000400 89 8D FFFFFEEC                  	MOV	DWORD [-276+EBP],ECX
   515 00000406 EB E8                           	JMP	L34
   516 00000408                                 L35:
   517 00000408 FC                              	CLD
   518 00000409 8D BD FFFFFEF4                  	LEA	EDI,DWORD [-268+EBP]
   519 0000040F BE [000001E0]                   	MOV	ESI,LC0
   520 00000414 B9 00000040                     	MOV	ECX,64
   521 00000419 31 DB                           	XOR	EBX,EBX
   522 0000041B F3                              	REP
   523 0000041C A5                              	MOVSD
   524 0000041D 31 FF                           	XOR	EDI,EDI
   525 0000041F                                 L53:
   526 0000041F 31 F6                           	XOR	ESI,ESI
   527 00000421                                 L52:
   528 00000421 0F BE 8C 1E [000000E0]          	MOVSX	ECX,BYTE [_btna.1+ESI+EBX*1]
   529 00000429 83 F9 40                        	CMP	ECX,64
   530 0000042C 0F 84 0000022A                  	JE	L119
   531 00000432 83 F9 24                        	CMP	ECX,36
   532 00000435 0F 84 00000217                  	JE	L120
   533 0000043B 83 F9 51                        	CMP	ECX,81
   534 0000043E 0F 94 C0                        	SETE	AL
   535 00000441 0F B6 C8                        	MOVZX	ECX,AL
   536 00000444 83 C1 07                        	ADD	ECX,7
   537 00000447                                 L47:
   538 00000447 8B 45 08                        	MOV	EAX,DWORD [8+EBP]
   539 0000044A 8B 55 10                        	MOV	EDX,DWORD [16+EBP]
   540 0000044D 01 FA                           	ADD	EDX,EDI
   541 0000044F 0F AF 50 04                     	IMUL	EDX,DWORD [4+EAX]
   542 00000453 8B 45 0C                        	MOV	EAX,DWORD [12+EBP]
   543 00000456 01 F0                           	ADD	EAX,ESI
   544 00000458 46                              	INC	ESI
   545 00000459 01 D0                           	ADD	EAX,EDX
   546 0000045B 83 FE 0F                        	CMP	ESI,15
   547 0000045E 8B 95 FFFFFEF0                  	MOV	EDX,DWORD [-272+EBP]
   548 00000464 88 0C 10                        	MOV	BYTE [EAX+EDX*1],CL
   549 00000467 7E B8                           	JLE	L52
   550 00000469 47                              	INC	EDI
   551 0000046A 83 C3 10                        	ADD	EBX,16
   552 0000046D 83 FF 0F                        	CMP	EDI,15
   553 00000470 7E AD                           	JLE	L53
   554 00000472 8D 5D F4                        	LEA	EBX,DWORD [-12+EBP]
   555 00000475 31 FF                           	XOR	EDI,EDI
   556 00000477 89 DA                           	MOV	EDX,EBX
   557 00000479                                 L69:
   558 00000479 31 F6                           	XOR	ESI,ESI
   559 0000047B                                 L68:
   560 0000047B 0F BE 8C 16 FFFFFF00            	MOVSX	ECX,BYTE [-256+ESI+EDX*1]
   561 00000483 83 F9 40                        	CMP	ECX,64
   562 00000486 0F 84 000001BF                  	JE	L121
   563 0000048C 83 F9 24                        	CMP	ECX,36
   564 0000048F 0F 84 000001AC                  	JE	L122
   565 00000495 83 F9 51                        	CMP	ECX,81
   566 00000498 0F 94 C0                        	SETE	AL
   567 0000049B 0F B6 C8                        	MOVZX	ECX,AL
   568 0000049E 83 C1 07                        	ADD	ECX,7
   569 000004A1                                 L63:
   570 000004A1 88 8C 1E FFFFFF00               	MOV	BYTE [-256+ESI+EBX*1],CL
   571 000004A8 46                              	INC	ESI
   572 000004A9 83 FE 0F                        	CMP	ESI,15
   573 000004AC 7E CD                           	JLE	L68
   574 000004AE 47                              	INC	EDI
   575 000004AF 83 C3 10                        	ADD	EBX,16
   576 000004B2 83 C2 10                        	ADD	EDX,16
   577 000004B5 83 FF 0F                        	CMP	EDI,15
   578 000004B8 7E BF                           	JLE	L69
   579 000004BA BA 00000002                     	MOV	EDX,2
   580 000004BF 8B 85 FFFFFEEC                  	MOV	EAX,DWORD [-276+EBP]
   581 000004C5 89 D3                           	MOV	EBX,EDX
   582 000004C7 99                              	CDQ
   583 000004C8 F7 FB                           	IDIV	EBX
   584 000004CA C7 85 FFFFFEE8 00000000         	MOV	DWORD [-280+EBP],0
   585 000004D4 8D 40 FE                        	LEA	EAX,DWORD [-2+EAX]
   586 000004D7 39 85 FFFFFEE8                  	CMP	DWORD [-280+EBP],EAX
   587 000004DD 0F 8D 00000080                  	JGE	L110
   588 000004E3 C7 85 FFFFFEE4 00000000         	MOV	DWORD [-284+EBP],0
   589 000004ED                                 L84:
   590 000004ED 31 FF                           	XOR	EDI,EDI
   591 000004EF 8D 5D F4                        	LEA	EBX,DWORD [-12+EBP]
   592 000004F2                                 L83:
   593 000004F2 8B 45 0C                        	MOV	EAX,DWORD [12+EBP]
   594 000004F5 31 F6                           	XOR	ESI,ESI
   595 000004F7 03 85 FFFFFEE4                  	ADD	EAX,DWORD [-284+EBP]
   596 000004FD 89 85 FFFFFED8                  	MOV	DWORD [-296+EBP],EAX
   597 00000503                                 L82:
   598 00000503 8B 55 08                        	MOV	EDX,DWORD [8+EBP]
   599 00000506 8B 45 10                        	MOV	EAX,DWORD [16+EBP]
   600 00000509 01 F8                           	ADD	EAX,EDI
   601 0000050B 8A 8C 1E FFFFFF00               	MOV	CL,BYTE [-256+ESI+EBX*1]
   602 00000512 0F AF 42 04                     	IMUL	EAX,DWORD [4+EDX]
   603 00000516 03 85 FFFFFED8                  	ADD	EAX,DWORD [-296+EBP]
   604 0000051C 8B 95 FFFFFEF0                  	MOV	EDX,DWORD [-272+EBP]
   605 00000522 46                              	INC	ESI
   606 00000523 88 4C 10 10                     	MOV	BYTE [16+EAX+EDX*1],CL
   607 00000527 FF 85 FFFFFED8                  	INC	DWORD [-296+EBP]
   608 0000052D 83 FE 0F                        	CMP	ESI,15
   609 00000530 7E D1                           	JLE	L82
   610 00000532 47                              	INC	EDI
   611 00000533 83 C3 10                        	ADD	EBX,16
   612 00000536 83 FF 0F                        	CMP	EDI,15
   613 00000539 7E B7                           	JLE	L83
   614 0000053B BA 00000002                     	MOV	EDX,2
   615 00000540 8B 85 FFFFFEEC                  	MOV	EAX,DWORD [-276+EBP]
   616 00000546 89 D3                           	MOV	EBX,EDX
   617 00000548 FF 85 FFFFFEE8                  	INC	DWORD [-280+EBP]
   618 0000054E 99                              	CDQ
   619 0000054F F7 FB                           	IDIV	EBX
   620 00000551 83 85 FFFFFEE4 10               	ADD	DWORD [-284+EBP],16
   621 00000558 8D 40 FE                        	LEA	EAX,DWORD [-2+EAX]
   622 0000055B 39 85 FFFFFEE8                  	CMP	DWORD [-280+EBP],EAX
   623 00000561 7C 8A                           	JL	L84
   624 00000563                                 L110:
   625 00000563 31 FF                           	XOR	EDI,EDI
   626 00000565 31 DB                           	XOR	EBX,EBX
   627 00000567                                 L100:
   628 00000567 31 F6                           	XOR	ESI,ESI
   629 00000569                                 L99:
   630 00000569 0F BE 8C 1E [000002E0]          	MOVSX	ECX,BYTE [_btnc.2+ESI+EBX*1]
   631 00000571 83 F9 40                        	CMP	ECX,64
   632 00000574 0F 84 000000C0                  	JE	L123
   633 0000057A 83 F9 24                        	CMP	ECX,36
   634 0000057D 0F 84 000000AD                  	JE	L124
   635 00000583 83 F9 51                        	CMP	ECX,81
   636 00000586 0F 94 C0                        	SETE	AL
   637 00000589 0F B6 C8                        	MOVZX	ECX,AL
   638 0000058C 83 C1 07                        	ADD	ECX,7
   639 0000058F                                 L94:
   640 0000058F 8B 55 08                        	MOV	EDX,DWORD [8+EBP]
   641 00000592 8B 45 10                        	MOV	EAX,DWORD [16+EBP]
   642 00000595 01 F8                           	ADD	EAX,EDI
   643 00000597 0F AF 42 04                     	IMUL	EAX,DWORD [4+EDX]
   644 0000059B 8B 55 0C                        	MOV	EDX,DWORD [12+EBP]
   645 0000059E 89 85 FFFFFEDC                  	MOV	DWORD [-292+EBP],EAX
   646 000005A4 8B 85 FFFFFEEC                  	MOV	EAX,DWORD [-276+EBP]
   647 000005AA 8D 04 C2                        	LEA	EAX,DWORD [EDX+EAX*8]
   648 000005AD 8B 95 FFFFFEF0                  	MOV	EDX,DWORD [-272+EBP]
   649 000005B3 89 85 FFFFFEE0                  	MOV	DWORD [-288+EBP],EAX
   650 000005B9 01 F0                           	ADD	EAX,ESI
   651 000005BB 03 85 FFFFFEDC                  	ADD	EAX,DWORD [-292+EBP]
   652 000005C1 46                              	INC	ESI
   653 000005C2 83 FE 0F                        	CMP	ESI,15
   654 000005C5 88 4C 10 F0                     	MOV	BYTE [-16+EAX+EDX*1],CL
   655 000005C9 7E 9E                           	JLE	L99
   656 000005CB 47                              	INC	EDI
   657 000005CC 83 C3 10                        	ADD	EBX,16
   658 000005CF 83 FF 0F                        	CMP	EDI,15
   659 000005D2 7E 93                           	JLE	L100
   660 000005D4 FF 75 18                        	PUSH	DWORD [24+EBP]
   661 000005D7 6A 07                           	PUSH	7
   662 000005D9 8B 4D 08                        	MOV	ECX,DWORD [8+EBP]
   663 000005DC FF 75 10                        	PUSH	DWORD [16+EBP]
   664 000005DF FF 75 0C                        	PUSH	DWORD [12+EBP]
   665 000005E2 FF 71 04                        	PUSH	DWORD [4+ECX]
   666 000005E5 52                              	PUSH	EDX
   667 000005E6 E8 [00000000]                   	CALL	_putfonts8_asc
   668 000005EB 8B 5D 08                        	MOV	EBX,DWORD [8+EBP]
   669 000005EE FF 73 08                        	PUSH	DWORD [8+EBX]
   670 000005F1 FF 73 04                        	PUSH	DWORD [4+EBX]
   671 000005F4 6A 00                           	PUSH	0
   672 000005F6 6A 00                           	PUSH	0
   673 000005F8 53                              	PUSH	EBX
   674 000005F9 E8 [00000000]                   	CALL	_sheet_refresh
   675 000005FE 8B 45 10                        	MOV	EAX,DWORD [16+EBP]
   676 00000601 83 C4 2C                        	ADD	ESP,44
   677 00000604 83 C0 10                        	ADD	EAX,16
   678 00000607 C1 A5 FFFFFEEC 04               	SAL	DWORD [-276+EBP],4
   679 0000060E FF 75 1C                        	PUSH	DWORD [28+EBP]
   680 00000611 50                              	PUSH	EAX
   681 00000612 8B 45 0C                        	MOV	EAX,DWORD [12+EBP]
   682 00000615 03 85 FFFFFEEC                  	ADD	EAX,DWORD [-276+EBP]
   683 0000061B 50                              	PUSH	EAX
   684 0000061C FF 75 10                        	PUSH	DWORD [16+EBP]
   685 0000061F FF 75 0C                        	PUSH	DWORD [12+EBP]
   686 00000622 53                              	PUSH	EBX
   687 00000623 E8 [00000000]                   	CALL	_mouse_click_register
   688 00000628 8D 65 F4                        	LEA	ESP,DWORD [-12+EBP]
   689 0000062B 5B                              	POP	EBX
   690 0000062C 5E                              	POP	ESI
   691 0000062D 5F                              	POP	EDI
   692 0000062E 5D                              	POP	EBP
   693 0000062F C3                              	RET
   694 00000630                                 L124:
   695 00000630 B9 0000000F                     	MOV	ECX,15
   696 00000635 E9 FFFFFF55                     	JMP	L94
   697 0000063A                                 L123:
   698 0000063A 31 C9                           	XOR	ECX,ECX
   699 0000063C E9 FFFFFF4E                     	JMP	L94
   700 00000641                                 L122:
   701 00000641 B9 0000000F                     	MOV	ECX,15
   702 00000646 E9 FFFFFE56                     	JMP	L63
   703 0000064B                                 L121:
   704 0000064B 31 C9                           	XOR	ECX,ECX
   705 0000064D E9 FFFFFE4F                     	JMP	L63
   706 00000652                                 L120:
   707 00000652 B9 0000000F                     	MOV	ECX,15
   708 00000657 E9 FFFFFDEB                     	JMP	L47
   709 0000065C                                 L119:
   710 0000065C 31 C9                           	XOR	ECX,ECX
   711 0000065E E9 FFFFFDE4                     	JMP	L47
   712 00000663                                 	GLOBAL	_change_wtitle8
   713 00000663                                 _change_wtitle8:
   714 00000663 55                              	PUSH	EBP
   715 00000664 89 E5                           	MOV	EBP,ESP
   716 00000666 57                              	PUSH	EDI
   717 00000667 56                              	PUSH	ESI
   718 00000668 53                              	PUSH	EBX
   719 00000669 83 EC 14                        	SUB	ESP,20
   720 0000066C 8B 45 08                        	MOV	EAX,DWORD [8+EBP]
   721 0000066F 80 7D 0C 00                     	CMP	BYTE [12+EBP],0
   722 00000673 8B 10                           	MOV	EDX,DWORD [EAX]
   723 00000675 8B 48 04                        	MOV	ECX,DWORD [4+EAX]
   724 00000678 89 55 E4                        	MOV	DWORD [-28+EBP],EDX
   725 0000067B 0F 84 00000088                  	JE	L126
   726 00000681 C6 45 EB 07                     	MOV	BYTE [-21+EBP],7
   727 00000685 C6 45 EA 0C                     	MOV	BYTE [-22+EBP],12
   728 00000689 C6 45 E9 08                     	MOV	BYTE [-23+EBP],8
   729 0000068D C6 45 E8 0F                     	MOV	BYTE [-24+EBP],15
   730 00000691                                 L127:
   731 00000691 6B F9 03                        	IMUL	EDI,ECX,3
   732 00000694 C7 45 EC 00000011               	MOV	DWORD [-20+EBP],17
   733 0000069B 89 7D E0                        	MOV	DWORD [-32+EBP],EDI
   734 0000069E                                 L140:
   735 0000069E C7 45 F0 00000003               	MOV	DWORD [-16+EBP],3
   736 000006A5 8D 41 FC                        	LEA	EAX,DWORD [-4+ECX]
   737 000006A8 39 45 F0                        	CMP	DWORD [-16+EBP],EAX
   738 000006AB 7F 29                           	JG	L144
   739 000006AD 8B 45 E4                        	MOV	EAX,DWORD [-28+EBP]
   740 000006B0 8B 55 E0                        	MOV	EDX,DWORD [-32+EBP]
   741 000006B3 8D 74 38 03                     	LEA	ESI,DWORD [3+EAX+EDI*1]
   742 000006B7 8D 5C 10 03                     	LEA	EBX,DWORD [3+EAX+EDX*1]
   743 000006BB                                 L139:
   744 000006BB 8A 13                           	MOV	DL,BYTE [EBX]
   745 000006BD 3A 55 E9                        	CMP	DL,BYTE [-23+EBP]
   746 000006C0 74 3A                           	JE	L145
   747 000006C2                                 L136:
   748 000006C2 3A 55 E8                        	CMP	DL,BYTE [-24+EBP]
   749 000006C5 74 30                           	JE	L146
   750 000006C7                                 L137:
   751 000006C7 88 16                           	MOV	BYTE [ESI],DL
   752 000006C9 8D 41 FC                        	LEA	EAX,DWORD [-4+ECX]
   753 000006CC FF 45 F0                        	INC	DWORD [-16+EBP]
   754 000006CF 46                              	INC	ESI
   755 000006D0 43                              	INC	EBX
   756 000006D1 39 45 F0                        	CMP	DWORD [-16+EBP],EAX
   757 000006D4 7E E5                           	JLE	L139
   758 000006D6                                 L144:
   759 000006D6 01 CF                           	ADD	EDI,ECX
   760 000006D8 01 4D E0                        	ADD	DWORD [-32+EBP],ECX
   761 000006DB FF 4D EC                        	DEC	DWORD [-20+EBP]
   762 000006DE 79 BE                           	JNS	L140
   763 000006E0 6A 15                           	PUSH	21
   764 000006E2 51                              	PUSH	ECX
   765 000006E3 6A 03                           	PUSH	3
   766 000006E5 6A 03                           	PUSH	3
   767 000006E7 FF 75 08                        	PUSH	DWORD [8+EBP]
   768 000006EA E8 [00000000]                   	CALL	_sheet_refresh
   769 000006EF 8D 65 F4                        	LEA	ESP,DWORD [-12+EBP]
   770 000006F2 5B                              	POP	EBX
   771 000006F3 5E                              	POP	ESI
   772 000006F4 5F                              	POP	EDI
   773 000006F5 5D                              	POP	EBP
   774 000006F6 C3                              	RET
   775 000006F7                                 L146:
   776 000006F7 8A 55 EA                        	MOV	DL,BYTE [-22+EBP]
   777 000006FA EB CB                           	JMP	L137
   778 000006FC                                 L145:
   779 000006FC 8D 41 EA                        	LEA	EAX,DWORD [-22+ECX]
   780 000006FF 39 45 F0                        	CMP	DWORD [-16+EBP],EAX
   781 00000702 7F BE                           	JG	L136
   782 00000704 8A 55 EB                        	MOV	DL,BYTE [-21+EBP]
   783 00000707 EB BE                           	JMP	L137
   784 00000709                                 L126:
   785 00000709 C6 45 EB 08                     	MOV	BYTE [-21+EBP],8
   786 0000070D C6 45 EA 0F                     	MOV	BYTE [-22+EBP],15
   787 00000711 C6 45 E9 07                     	MOV	BYTE [-23+EBP],7
   788 00000715 C6 45 E8 0C                     	MOV	BYTE [-24+EBP],12
   789 00000719 E9 FFFFFF73                     	JMP	L127
