     1 00000000                                 [FORMAT "WCOFF"]
     2 00000000                                 [INSTRSET "i486p"]
     3 00000000                                 [OPTIMIZE 1]
     4 00000000                                 [OPTION 1]
     5 00000000                                 [BITS 32]
     6 00000000                                 	EXTERN	_init_gdtidt
     7 00000000                                 	EXTERN	_init_pic
     8 00000000                                 	EXTERN	_io_sti
     9 00000000                                 	EXTERN	_fifo32_init
    10 00000000                                 	EXTERN	_init_pit
    11 00000000                                 	EXTERN	_init_keyboard
    12 00000000                                 	EXTERN	_enable_mouse
    13 00000000                                 	EXTERN	_io_out8
    14 00000000                                 	EXTERN	_memtest
    15 00000000                                 	EXTERN	_memman_init
    16 00000000                                 	EXTERN	_memman_free
    17 00000000                                 	EXTERN	_init_palette
    18 00000000                                 	EXTERN	_shtctl_init
    19 00000000                                 	EXTERN	_task_init
    20 00000000                                 	EXTERN	_task_run
    21 00000000                                 	EXTERN	_sheet_alloc
    22 00000000                                 	EXTERN	_memman_alloc_4k
    23 00000000                                 	EXTERN	_sheet_setbuf
    24 00000000                                 	EXTERN	_init_screen8
    25 00000000                                 	EXTERN	_init_mouse_cursor8
    26 00000000                                 	EXTERN	_sheet_slide
    27 00000000                                 	EXTERN	_sheet_updown
    28 00000000                                 	EXTERN	_io_cli
    29 00000000                                 	EXTERN	_init_all_device
    30 00000000                                 	EXTERN	_LDevs
    31 00000000                                 	EXTERN	_timer_alloc
    32 00000000                                 	EXTERN	_timer_init
    33 00000000                                 	EXTERN	_timer_settime
    34 00000000                                 	EXTERN	_fifo32_put
    35 00000000                                 	EXTERN	_file_readfat
    36 00000000                                 	EXTERN	_code_init
    37 00000000                                 	EXTERN	_make_button8
    38 00000000                                 	EXTERN	_file_search
    39 00000000                                 	EXTERN	_file_loadfile2
    40 00000000                                 	EXTERN	_fifo32_status
    41 00000000                                 	EXTERN	_fifo32_get
    42 00000000                                 	EXTERN	_writehddisk
    43 00000000                                 	EXTERN	_printk
    44 00000000                                 	EXTERN	_memman_free_4k
    45 00000000                                 	EXTERN	_sheet_free
    46 00000000                                 	EXTERN	_taskctl
    47 00000000                                 	EXTERN	_mouse_decode
    48 00000000                                 	EXTERN	_do_mouse_click
    49 00000000                                 	EXTERN	_cons_putstr0
    50 00000000                                 	EXTERN	_asm_end_app
    51 00000000                                 	EXTERN	_keytable0.0
    52 00000000                                 	EXTERN	_wait_KBC_sendready
    53 00000000                                 	EXTERN	_keytable1.1
    54 00000000                                 	EXTERN	_task_sleep
    55 00000000                                 	EXTERN	_hankaku
    56 00000000                                 	EXTERN	_change_wtitle8
    57 00000000                                 	EXTERN	_task_alloc
    58 00000000                                 	EXTERN	_console_task
    59 00000000                                 	EXTERN	_make_window8
    60 00000000                                 	EXTERN	_make_textbox8
    61 00000000                                 	EXTERN	_task_now
    62 00000000                                 	EXTERN	_readrtc
    63 00000000                                 	EXTERN	_sprintf
    64 00000000                                 	EXTERN	_boxfill8
    65 00000000                                 	EXTERN	_putfonts8_asc
    66 00000000                                 	EXTERN	_sheet_refresh
    67 00000000                                 [FILE "bootpack.c"]
    68                                          [SECTION .data]
    69 00000000                                 _keytable0.0:
    70 00000000 00                              	DB	0
    71 00000001 00                              	DB	0
    72 00000002 31                              	DB	49
    73 00000003 32                              	DB	50
    74 00000004 33                              	DB	51
    75 00000005 34                              	DB	52
    76 00000006 35                              	DB	53
    77 00000007 36                              	DB	54
    78 00000008 37                              	DB	55
    79 00000009 38                              	DB	56
    80 0000000A 39                              	DB	57
    81 0000000B 30                              	DB	48
    82 0000000C 2D                              	DB	45
    83 0000000D 3D                              	DB	61
    84 0000000E 08                              	DB	8
    85 0000000F 00                              	DB	0
    86 00000010 51                              	DB	81
    87 00000011 57                              	DB	87
    88 00000012 45                              	DB	69
    89 00000013 52                              	DB	82
    90 00000014 54                              	DB	84
    91 00000015 59                              	DB	89
    92 00000016 55                              	DB	85
    93 00000017 49                              	DB	73
    94 00000018 4F                              	DB	79
    95 00000019 50                              	DB	80
    96 0000001A 5B                              	DB	91
    97 0000001B 5D                              	DB	93
    98 0000001C 0A                              	DB	10
    99 0000001D 00                              	DB	0
   100 0000001E 41                              	DB	65
   101 0000001F 53                              	DB	83
   102 00000020 44                              	DB	68
   103 00000021 46                              	DB	70
   104 00000022 47                              	DB	71
   105 00000023 48                              	DB	72
   106 00000024 4A                              	DB	74
   107 00000025 4B                              	DB	75
   108 00000026 4C                              	DB	76
   109 00000027 3B                              	DB	59
   110 00000028 27                              	DB	39
   111 00000029 60                              	DB	96
   112 0000002A 00                              	DB	0
   113 0000002B 5C                              	DB	92
   114 0000002C 5A                              	DB	90
   115 0000002D 58                              	DB	88
   116 0000002E 43                              	DB	67
   117 0000002F 56                              	DB	86
   118 00000030 42                              	DB	66
   119 00000031 4E                              	DB	78
   120 00000032 4D                              	DB	77
   121 00000033 2C                              	DB	44
   122 00000034 2E                              	DB	46
   123 00000035 2F                              	DB	47
   124 00000036 00                              	DB	0
   125 00000037 2A                              	DB	42
   126 00000038 00                              	DB	0
   127 00000039 20                              	DB	32
   128 0000003A 00                              	DB	0
   129 0000003B 00                              	DB	0
   130 0000003C 00                              	DB	0
   131 0000003D 00                              	DB	0
   132 0000003E 00                              	DB	0
   133 0000003F 00                              	DB	0
   134 00000040 00                              	DB	0
   135 00000041 00                              	DB	0
   136 00000042 00                              	DB	0
   137 00000043 00                              	DB	0
   138 00000044 00                              	DB	0
   139 00000045 00                              	DB	0
   140 00000046 00                              	DB	0
   141 00000047 37                              	DB	55
   142 00000048 38                              	DB	56
   143 00000049 39                              	DB	57
   144 0000004A 2D                              	DB	45
   145 0000004B 34                              	DB	52
   146 0000004C 35                              	DB	53
   147 0000004D 36                              	DB	54
   148 0000004E 2B                              	DB	43
   149 0000004F 31                              	DB	49
   150 00000050 32                              	DB	50
   151 00000051 33                              	DB	51
   152 00000052 30                              	DB	48
   153 00000053 2E                              	DB	46
   154 00000054 00                              	DB	0
   155 00000055 00                              	DB	0
   156 00000056 00                              	DB	0
   157 00000057 00                              	DB	0
   158 00000058 00                              	DB	0
   159 00000059 00                              	DB	0
   160 0000005A 00                              	DB	0
   161 0000005B 00                              	DB	0
   162 0000005C 00                              	DB	0
   163 0000005D 00                              	DB	0
   164 0000005E 00                              	DB	0
   165 0000005F 00                              	DB	0
   166 00000060 00                              	DB	0
   167 00000061 00                              	DB	0
   168 00000062 00                              	DB	0
   169 00000063 00                              	DB	0
   170 00000064 00                              	DB	0
   171 00000065 00                              	DB	0
   172 00000066 00                              	DB	0
   173 00000067 00                              	DB	0
   174 00000068 00                              	DB	0
   175 00000069 00                              	DB	0
   176 0000006A 00                              	DB	0
   177 0000006B 00                              	DB	0
   178 0000006C 00                              	DB	0
   179 0000006D 00                              	DB	0
   180 0000006E 00                              	DB	0
   181 0000006F 00                              	DB	0
   182 00000070 00                              	DB	0
   183 00000071 00                              	DB	0
   184 00000072 00                              	DB	0
   185 00000073 5C                              	DB	92
   186 00000074 00                              	DB	0
   187 00000075 00                              	DB	0
   188 00000076 00                              	DB	0
   189 00000077 00                              	DB	0
   190 00000078 00                              	DB	0
   191 00000079 00                              	DB	0
   192 0000007A 00                              	DB	0
   193 0000007B 00                              	DB	0
   194 0000007C 00                              	DB	0
   195 0000007D 5C                              	DB	92
   196 0000007E 00                              	DB	0
   197 0000007F 00                              	DB	0
   198 00000080                                 _keytable1.1:
   199 00000080 00                              	DB	0
   200 00000081 00                              	DB	0
   201 00000082 21                              	DB	33
   202 00000083 40                              	DB	64
   203 00000084 23                              	DB	35
   204 00000085 24                              	DB	36
   205 00000086 25                              	DB	37
   206 00000087 5E                              	DB	94
   207 00000088 26                              	DB	38
   208 00000089 2A                              	DB	42
   209 0000008A 28                              	DB	40
   210 0000008B 29                              	DB	41
   211 0000008C 5F                              	DB	95
   212 0000008D 2B                              	DB	43
   213 0000008E 08                              	DB	8
   214 0000008F 00                              	DB	0
   215 00000090 51                              	DB	81
   216 00000091 57                              	DB	87
   217 00000092 45                              	DB	69
   218 00000093 52                              	DB	82
   219 00000094 54                              	DB	84
   220 00000095 59                              	DB	89
   221 00000096 55                              	DB	85
   222 00000097 49                              	DB	73
   223 00000098 4F                              	DB	79
   224 00000099 50                              	DB	80
   225 0000009A 60                              	DB	96
   226 0000009B 7B                              	DB	123
   227 0000009C 0A                              	DB	10
   228 0000009D 00                              	DB	0
   229 0000009E 41                              	DB	65
   230 0000009F 53                              	DB	83
   231 000000A0 44                              	DB	68
   232 000000A1 46                              	DB	70
   233 000000A2 47                              	DB	71
   234 000000A3 48                              	DB	72
   235 000000A4 4A                              	DB	74
   236 000000A5 4B                              	DB	75
   237 000000A6 4C                              	DB	76
   238 000000A7 3A                              	DB	58
   239 000000A8 22                              	DB	34
   240 000000A9 7E                              	DB	126
   241 000000AA 00                              	DB	0
   242 000000AB 7D                              	DB	125
   243 000000AC 5A                              	DB	90
   244 000000AD 58                              	DB	88
   245 000000AE 43                              	DB	67
   246 000000AF 56                              	DB	86
   247 000000B0 42                              	DB	66
   248 000000B1 4E                              	DB	78
   249 000000B2 4D                              	DB	77
   250 000000B3 3C                              	DB	60
   251 000000B4 3E                              	DB	62
   252 000000B5 3F                              	DB	63
   253 000000B6 00                              	DB	0
   254 000000B7 2A                              	DB	42
   255 000000B8 00                              	DB	0
   256 000000B9 20                              	DB	32
   257 000000BA 00                              	DB	0
   258 000000BB 00                              	DB	0
   259 000000BC 00                              	DB	0
   260 000000BD 00                              	DB	0
   261 000000BE 00                              	DB	0
   262 000000BF 00                              	DB	0
   263 000000C0 00                              	DB	0
   264 000000C1 00                              	DB	0
   265 000000C2 00                              	DB	0
   266 000000C3 00                              	DB	0
   267 000000C4 00                              	DB	0
   268 000000C5 00                              	DB	0
   269 000000C6 00                              	DB	0
   270 000000C7 37                              	DB	55
   271 000000C8 38                              	DB	56
   272 000000C9 39                              	DB	57
   273 000000CA 2D                              	DB	45
   274 000000CB 34                              	DB	52
   275 000000CC 35                              	DB	53
   276 000000CD 36                              	DB	54
   277 000000CE 2B                              	DB	43
   278 000000CF 31                              	DB	49
   279 000000D0 32                              	DB	50
   280 000000D1 33                              	DB	51
   281 000000D2 30                              	DB	48
   282 000000D3 2E                              	DB	46
   283 000000D4 00                              	DB	0
   284 000000D5 00                              	DB	0
   285 000000D6 00                              	DB	0
   286 000000D7 00                              	DB	0
   287 000000D8 00                              	DB	0
   288 000000D9 00                              	DB	0
   289 000000DA 00                              	DB	0
   290 000000DB 00                              	DB	0
   291 000000DC 00                              	DB	0
   292 000000DD 00                              	DB	0
   293 000000DE 00                              	DB	0
   294 000000DF 00                              	DB	0
   295 000000E0 00                              	DB	0
   296 000000E1 00                              	DB	0
   297 000000E2 00                              	DB	0
   298 000000E3 00                              	DB	0
   299 000000E4 00                              	DB	0
   300 000000E5 00                              	DB	0
   301 000000E6 00                              	DB	0
   302 000000E7 00                              	DB	0
   303 000000E8 00                              	DB	0
   304 000000E9 00                              	DB	0
   305 000000EA 00                              	DB	0
   306 000000EB 00                              	DB	0
   307 000000EC 00                              	DB	0
   308 000000ED 00                              	DB	0
   309 000000EE 00                              	DB	0
   310 000000EF 00                              	DB	0
   311 000000F0 00                              	DB	0
   312 000000F1 00                              	DB	0
   313 000000F2 00                              	DB	0
   314 000000F3 5F                              	DB	95
   315 000000F4 00                              	DB	0
   316 000000F5 00                              	DB	0
   317 000000F6 00                              	DB	0
   318 000000F7 00                              	DB	0
   319 000000F8 00                              	DB	0
   320 000000F9 00                              	DB	0
   321 000000FA 00                              	DB	0
   322 000000FB 00                              	DB	0
   323 000000FC 00                              	DB	0
   324 000000FD 7C                              	DB	124
   325 000000FE 00                              	DB	0
   326 000000FF 00                              	DB	0
   327 00000100                                 LC0:
   328 00000100 69 6E 73 74 61 6C 6C 20 68 61   	DB	"install haribote ",0x00
       0000010A 72 69 62 6F 74 65 20 00 
   329 00000112                                 LC1:
   330 00000112 6E 69 68 6F 6E 67 6F 2E 66 6E   	DB	"nihongo.fnt",0x00
       0000011C 74 00 
   331 0000011E                                 LC4:
   332 0000011E 69 6E 73 74 61 6C 6C 2E 69 6D   	DB	"install.img",0x00
       00000128 67 00 
   333 0000012A                                 LC5:
   334 0000012A 4F 6B 21 49 6E 73 74 61 6C 6C   	DB	"Ok!Installed.",0x00
       00000134 65 64 2E 00 
   335 00000138                                 LC3:
   336 00000138 0A 42 72 65 61 6B 28 6D 6F 75   	DB	0x0A,"Break(mouse) :",0x0A,0x00
       00000142 73 65 29 20 3A 0A 00 
   337 00000149                                 LC2:
   338 00000149 0A 42 72 65 61 6B 28 6B 65 79   	DB	0x0A,"Break(key) :",0x0A,0x00
       00000153 29 20 3A 0A 00 
   339                                          [SECTION .text]
   340 00000000                                 	GLOBAL	_HariMain
   341 00000000                                 _HariMain:
   342 00000000 55                              	PUSH	EBP
   343 00000001 89 E5                           	MOV	EBP,ESP
   344 00000003 57                              	PUSH	EDI
   345 00000004 56                              	PUSH	ESI
   346 00000005 53                              	PUSH	EBX
   347 00000006 8D 75 A4                        	LEA	ESI,DWORD [-92+EBP]
   348 00000009 81 EC 00000460                  	SUB	ESP,1120
   349 0000000F C7 85 FFFFFBE0 FFFFFFFF         	MOV	DWORD [-1056+EBP],-1
   350 00000019 C7 85 FFFFFBDC 00000000         	MOV	DWORD [-1060+EBP],0
   351 00000023 C7 85 FFFFFBD8 7FFFFFFF         	MOV	DWORD [-1064+EBP],2147483647
   352 0000002D C7 85 FFFFFBD4 00000000         	MOV	DWORD [-1068+EBP],0
   353 00000037 C7 85 FFFFFBC8 00000000         	MOV	DWORD [-1080+EBP],0
   354 00000041 A0 00000FF1                     	MOV	AL,BYTE [4081]
   355 00000046 C0 F8 04                        	SAR	AL,4
   356 00000049 89 C2                           	MOV	EDX,EAX
   357 0000004B 83 E2 07                        	AND	EDX,7
   358 0000004E 89 95 FFFFFBC4                  	MOV	DWORD [-1084+EBP],EDX
   359 00000054 C7 85 FFFFFBC0 FFFFFFFF         	MOV	DWORD [-1088+EBP],-1
   360 0000005E C7 85 FFFFFBBC 00000000         	MOV	DWORD [-1092+EBP],0
   361 00000068 C7 85 FFFFFBB0 FFFFFFFF         	MOV	DWORD [-1104+EBP],-1
   362 00000072 C7 85 FFFFFBAC FFFFFFFF         	MOV	DWORD [-1108+EBP],-1
   363 0000007C C7 85 FFFFFBA8 00000000         	MOV	DWORD [-1112+EBP],0
   364 00000086 C7 85 FFFFFBA4 00000000         	MOV	DWORD [-1116+EBP],0
   365 00000090 E8 [00000000]                   	CALL	_init_gdtidt
   366 00000095 E8 [00000000]                   	CALL	_init_pic
   367 0000009A E8 [00000000]                   	CALL	_io_sti
   368 0000009F 8D 85 FFFFFD84                  	LEA	EAX,DWORD [-636+EBP]
   369 000000A5 6A 00                           	PUSH	0
   370 000000A7 50                              	PUSH	EAX
   371 000000A8 68 00000080                     	PUSH	128
   372 000000AD 56                              	PUSH	ESI
   373 000000AE E8 [00000000]                   	CALL	_fifo32_init
   374 000000B3 89 35 00000FEC                  	MOV	DWORD [4076],ESI
   375 000000B9 E8 [00000000]                   	CALL	_init_pit
   376 000000BE 68 00000100                     	PUSH	256
   377 000000C3 56                              	PUSH	ESI
   378 000000C4 E8 [00000000]                   	CALL	_init_keyboard
   379 000000C9 8D 85 FFFFFCF4                  	LEA	EAX,DWORD [-780+EBP]
   380 000000CF 50                              	PUSH	EAX
   381 000000D0 68 00000200                     	PUSH	512
   382 000000D5 56                              	PUSH	ESI
   383 000000D6 E8 [00000000]                   	CALL	_enable_mouse
   384 000000DB 83 C4 24                        	ADD	ESP,36
   385 000000DE 68 000000F8                     	PUSH	248
   386 000000E3 6A 21                           	PUSH	33
   387 000000E5 E8 [00000000]                   	CALL	_io_out8
   388 000000EA 68 000000AF                     	PUSH	175
   389 000000EF 68 000000A1                     	PUSH	161
   390 000000F4 E8 [00000000]                   	CALL	_io_out8
   391 000000F9 8D 85 FFFFFD04                  	LEA	EAX,DWORD [-764+EBP]
   392 000000FF 6A 00                           	PUSH	0
   393 00000101 50                              	PUSH	EAX
   394 00000102 8D 45 84                        	LEA	EAX,DWORD [-124+EBP]
   395 00000105 6A 20                           	PUSH	32
   396 00000107 50                              	PUSH	EAX
   397 00000108 E8 [00000000]                   	CALL	_fifo32_init
   398 0000010D 83 C4 20                        	ADD	ESP,32
   399 00000110 68 BFFFFFFF                     	PUSH	-1073741825
   400 00000115 68 00400000                     	PUSH	4194304
   401 0000011A E8 [00000000]                   	CALL	_memtest
   402 0000011F 68 003C0000                     	PUSH	3932160
   403 00000124 89 C3                           	MOV	EBX,EAX
   404 00000126 E8 [00000000]                   	CALL	_memman_init
   405 0000012B 68 0009E000                     	PUSH	647168
   406 00000130 68 00001000                     	PUSH	4096
   407 00000135 68 003C0000                     	PUSH	3932160
   408 0000013A E8 [00000000]                   	CALL	_memman_free
   409 0000013F 8D 83 FFC00000                  	LEA	EAX,DWORD [-4194304+EBX]
   410 00000145 50                              	PUSH	EAX
   411 00000146 68 00400000                     	PUSH	4194304
   412 0000014B 68 003C0000                     	PUSH	3932160
   413 00000150 E8 [00000000]                   	CALL	_memman_free
   414 00000155 83 C4 24                        	ADD	ESP,36
   415 00000158 C7 05 00000EF0 003C0000         	MOV	DWORD [3824],3932160
   416 00000162 E8 [00000000]                   	CALL	_init_palette
   417 00000167 0F BF 05 00000FF6               	MOVSX	EAX,WORD [4086]
   418 0000016E 50                              	PUSH	EAX
   419 0000016F 0F BF 05 00000FF4               	MOVSX	EAX,WORD [4084]
   420 00000176 50                              	PUSH	EAX
   421 00000177 FF 35 00000FF8                  	PUSH	DWORD [4088]
   422 0000017D 68 003C0000                     	PUSH	3932160
   423 00000182 E8 [00000000]                   	CALL	_shtctl_init
   424 00000187 68 003C0000                     	PUSH	3932160
   425 0000018C 89 C7                           	MOV	EDI,EAX
   426 0000018E E8 [00000000]                   	CALL	_task_init
   427 00000193 6A 03                           	PUSH	3
   428 00000195 6A 01                           	PUSH	1
   429 00000197 89 85 FFFFFBCC                  	MOV	DWORD [-1076+EBP],EAX
   430 0000019D 50                              	PUSH	EAX
   431 0000019E 89 45 BC                        	MOV	DWORD [-68+EBP],EAX
   432 000001A1 E8 [00000000]                   	CALL	_task_run
   433 000001A6 83 C4 20                        	ADD	ESP,32
   434 000001A9 8B 95 FFFFFBCC                  	MOV	EDX,DWORD [-1076+EBP]
   435 000001AF 89 3D 00000FE4                  	MOV	DWORD [4068],EDI
   436 000001B5 C6 82 0000012C 00               	MOV	BYTE [300+EDX],0
   437 000001BC 57                              	PUSH	EDI
   438 000001BD E8 [00000000]                   	CALL	_sheet_alloc
   439 000001C2 89 C6                           	MOV	ESI,EAX
   440 000001C4 0F BF 15 00000FF6               	MOVSX	EDX,WORD [4086]
   441 000001CB 0F BF 05 00000FF4               	MOVSX	EAX,WORD [4084]
   442 000001D2 0F AF C2                        	IMUL	EAX,EDX
   443 000001D5 50                              	PUSH	EAX
   444 000001D6 68 003C0000                     	PUSH	3932160
   445 000001DB E8 [00000000]                   	CALL	_memman_alloc_4k
   446 000001E0 6A FF                           	PUSH	-1
   447 000001E2 89 C3                           	MOV	EBX,EAX
   448 000001E4 0F BF 05 00000FF6               	MOVSX	EAX,WORD [4086]
   449 000001EB 50                              	PUSH	EAX
   450 000001EC 0F BF 05 00000FF4               	MOVSX	EAX,WORD [4084]
   451 000001F3 50                              	PUSH	EAX
   452 000001F4 53                              	PUSH	EBX
   453 000001F5 56                              	PUSH	ESI
   454 000001F6 E8 [00000000]                   	CALL	_sheet_setbuf
   455 000001FB 83 C4 20                        	ADD	ESP,32
   456 000001FE 68 003C0000                     	PUSH	3932160
   457 00000203 FF B5 FFFFFB9C                  	PUSH	DWORD [-1124+EBP]
   458 00000209 0F BF 05 00000FF6               	MOVSX	EAX,WORD [4086]
   459 00000210 50                              	PUSH	EAX
   460 00000211 0F BF 05 00000FF4               	MOVSX	EAX,WORD [4084]
   461 00000218 50                              	PUSH	EAX
   462 00000219 53                              	PUSH	EBX
   463 0000021A 8D 9D FFFFFBF4                  	LEA	EBX,DWORD [-1036+EBP]
   464 00000220 E8 [00000000]                   	CALL	_init_screen8
   465 00000225 89 35 00000EF8                  	MOV	DWORD [3832],ESI
   466 0000022B 57                              	PUSH	EDI
   467 0000022C E8 [00000000]                   	CALL	_sheet_alloc
   468 00000231 6A 63                           	PUSH	99
   469 00000233 6A 10                           	PUSH	16
   470 00000235 6A 10                           	PUSH	16
   471 00000237 89 85 FFFFFBD0                  	MOV	DWORD [-1072+EBP],EAX
   472 0000023D 53                              	PUSH	EBX
   473 0000023E 50                              	PUSH	EAX
   474 0000023F E8 [00000000]                   	CALL	_sheet_setbuf
   475 00000244 83 C4 2C                        	ADD	ESP,44
   476 00000247 6A 63                           	PUSH	99
   477 00000249 53                              	PUSH	EBX
   478 0000024A BB 00000002                     	MOV	EBX,2
   479 0000024F E8 [00000000]                   	CALL	_init_mouse_cursor8
   480 00000254 0F BF 05 00000FF4               	MOVSX	EAX,WORD [4084]
   481 0000025B 8D 48 F0                        	LEA	ECX,DWORD [-16+EAX]
   482 0000025E 89 C8                           	MOV	EAX,ECX
   483 00000260 99                              	CDQ
   484 00000261 F7 FB                           	IDIV	EBX
   485 00000263 89 85 FFFFFBE8                  	MOV	DWORD [-1048+EBP],EAX
   486 00000269 0F BF 05 00000FF6               	MOVSX	EAX,WORD [4086]
   487 00000270 6A 00                           	PUSH	0
   488 00000272 8D 48 D4                        	LEA	ECX,DWORD [-44+EAX]
   489 00000275 6A 00                           	PUSH	0
   490 00000277 89 C8                           	MOV	EAX,ECX
   491 00000279 56                              	PUSH	ESI
   492 0000027A 99                              	CDQ
   493 0000027B F7 FB                           	IDIV	EBX
   494 0000027D 89 85 FFFFFBE4                  	MOV	DWORD [-1052+EBP],EAX
   495 00000283 E8 [00000000]                   	CALL	_sheet_slide
   496 00000288 FF B5 FFFFFBE4                  	PUSH	DWORD [-1052+EBP]
   497 0000028E FF B5 FFFFFBE8                  	PUSH	DWORD [-1048+EBP]
   498 00000294 FF B5 FFFFFBD0                  	PUSH	DWORD [-1072+EBP]
   499 0000029A E8 [00000000]                   	CALL	_sheet_slide
   500 0000029F 83 C4 20                        	ADD	ESP,32
   501 000002A2 6A 00                           	PUSH	0
   502 000002A4 56                              	PUSH	ESI
   503 000002A5 E8 [00000000]                   	CALL	_sheet_updown
   504 000002AA 6A 01                           	PUSH	1
   505 000002AC FF B5 FFFFFBD0                  	PUSH	DWORD [-1072+EBP]
   506 000002B2 E8 [00000000]                   	CALL	_sheet_updown
   507 000002B7 E8 [00000000]                   	CALL	_io_cli
   508 000002BC E8 [00000000]                   	CALL	_init_all_device
   509 000002C1 68 003C0000                     	PUSH	3932160
   510 000002C6 E8 [00000000]                   	CALL	_LDevs
   511 000002CB E8 [00000000]                   	CALL	_io_sti
   512 000002D0 E8 [00000000]                   	CALL	_timer_alloc
   513 000002D5 8D 55 A4                        	LEA	EDX,DWORD [-92+EBP]
   514 000002D8 68 000008E8                     	PUSH	2280
   515 000002DD 52                              	PUSH	EDX
   516 000002DE 89 85 FFFFFB98                  	MOV	DWORD [-1128+EBP],EAX
   517 000002E4 50                              	PUSH	EAX
   518 000002E5 E8 [00000000]                   	CALL	_timer_init
   519 000002EA 83 C4 20                        	ADD	ESP,32
   520 000002ED 6A 64                           	PUSH	100
   521 000002EF FF B5 FFFFFB98                  	PUSH	DWORD [-1128+EBP]
   522 000002F5 E8 [00000000]                   	CALL	_timer_settime
   523 000002FA 8D 45 84                        	LEA	EAX,DWORD [-124+EBP]
   524 000002FD 68 000000ED                     	PUSH	237
   525 00000302 50                              	PUSH	EAX
   526 00000303 E8 [00000000]                   	CALL	_fifo32_put
   527 00000308 8D 55 84                        	LEA	EDX,DWORD [-124+EBP]
   528 0000030B FF B5 FFFFFBC4                  	PUSH	DWORD [-1084+EBP]
   529 00000311 52                              	PUSH	EDX
   530 00000312 E8 [00000000]                   	CALL	_fifo32_put
   531 00000317 68 00002D00                     	PUSH	11520
   532 0000031C 68 003C0000                     	PUSH	3932160
   533 00000321 E8 [00000000]                   	CALL	_memman_alloc_4k
   534 00000326 83 C4 20                        	ADD	ESP,32
   535 00000329 68 00100200                     	PUSH	1049088
   536 0000032E 89 85 FFFFFB9C                  	MOV	DWORD [-1124+EBP],EAX
   537 00000334 50                              	PUSH	EAX
   538 00000335 E8 [00000000]                   	CALL	_file_readfat
   539 0000033A E8 [00000000]                   	CALL	_io_cli
   540 0000033F E8 [00000000]                   	CALL	_code_init
   541 00000344 E8 [00000000]                   	CALL	_io_sti
   542 00000349 8D 45 A4                        	LEA	EAX,DWORD [-92+EBP]
   543 0000034C 50                              	PUSH	EAX
   544 0000034D 68 [00000100]                   	PUSH	LC0
   545 00000352 6A 00                           	PUSH	0
   546 00000354 6A 00                           	PUSH	0
   547 00000356 6A 00                           	PUSH	0
   548 00000358 56                              	PUSH	ESI
   549 00000359 E8 [00000000]                   	CALL	_make_button8
   550 0000035E 83 C4 20                        	ADD	ESP,32
   551 00000361 68 000000E0                     	PUSH	224
   552 00000366 68 00102600                     	PUSH	1058304
   553 0000036B 68 [00000112]                   	PUSH	LC1
   554 00000370 E8 [00000000]                   	CALL	_file_search
   555 00000375 83 C4 0C                        	ADD	ESP,12
   556 00000378 89 C3                           	MOV	EBX,EAX
   557 0000037A 85 C0                           	TEST	EAX,EAX
   558 0000037C 0F 84 00000940                  	JE	L2
   559 00000382 8B 40 1C                        	MOV	EAX,DWORD [28+EAX]
   560 00000385 89 85 FFFFFBF0                  	MOV	DWORD [-1040+EBP],EAX
   561 0000038B 8D 85 FFFFFBF0                  	LEA	EAX,DWORD [-1040+EBP]
   562 00000391 FF B5 FFFFFB9C                  	PUSH	DWORD [-1124+EBP]
   563 00000397 50                              	PUSH	EAX
   564 00000398 0F B7 43 1A                     	MOVZX	EAX,WORD [26+EBX]
   565 0000039C 50                              	PUSH	EAX
   566 0000039D E8 [00000000]                   	CALL	_file_loadfile2
   567 000003A2 83 C4 0C                        	ADD	ESP,12
   568 000003A5 89 C1                           	MOV	ECX,EAX
   569 000003A7                                 L3:
   570 000003A7 89 0D 00000FE8                  	MOV	DWORD [4072],ECX
   571 000003AD                                 L14:
   572 000003AD 8D 5D 84                        	LEA	EBX,DWORD [-124+EBP]
   573 000003B0 53                              	PUSH	EBX
   574 000003B1 E8 [00000000]                   	CALL	_fifo32_status
   575 000003B6 5A                              	POP	EDX
   576 000003B7 85 C0                           	TEST	EAX,EAX
   577 000003B9 7E 0D                           	JLE	L17
   578 000003BB 83 BD FFFFFBC0 00               	CMP	DWORD [-1088+EBP],0
   579 000003C2 0F 88 000008D4                  	JS	L103
   580 000003C8                                 L17:
   581 000003C8 8D 5D A4                        	LEA	EBX,DWORD [-92+EBP]
   582 000003CB E8 [00000000]                   	CALL	_io_cli
   583 000003D0 53                              	PUSH	EBX
   584 000003D1 E8 [00000000]                   	CALL	_fifo32_status
   585 000003D6 5E                              	POP	ESI
   586 000003D7 85 C0                           	TEST	EAX,EAX
   587 000003D9 0F 84 0000085E                  	JE	L104
   588 000003DF 53                              	PUSH	EBX
   589 000003E0 E8 [00000000]                   	CALL	_fifo32_get
   590 000003E5 89 85 FFFFFBF0                  	MOV	DWORD [-1040+EBP],EAX
   591 000003EB E8 [00000000]                   	CALL	_io_sti
   592 000003F0 5B                              	POP	EBX
   593 000003F1 83 BD FFFFFBA0 00               	CMP	DWORD [-1120+EBP],0
   594 000003F8 74 2F                           	JE	L24
   595 000003FA 8B B5 FFFFFBA0                  	MOV	ESI,DWORD [-1120+EBP]
   596 00000400 83 7E 1C 00                     	CMP	DWORD [28+ESI],0
   597 00000404 75 23                           	JNE	L24
   598 00000406 8B 47 10                        	MOV	EAX,DWORD [16+EDI]
   599 00000409 C7 85 FFFFFBA0 00000000         	MOV	DWORD [-1120+EBP],0
   600 00000413 83 F8 01                        	CMP	EAX,1
   601 00000416 74 11                           	JE	L24
   602 00000418 8B 44 87 10                     	MOV	EAX,DWORD [16+EDI+EAX*4]
   603 0000041C 50                              	PUSH	EAX
   604 0000041D 89 85 FFFFFBA0                  	MOV	DWORD [-1120+EBP],EAX
   605 00000423 E8 00000932                     	CALL	_keywin_on
   606 00000428 59                              	POP	ECX
   607 00000429                                 L24:
   608 00000429 8B 95 FFFFFBF0                  	MOV	EDX,DWORD [-1040+EBP]
   609 0000042F 8D 82 FFFFFF00                  	LEA	EAX,DWORD [-256+EDX]
   610 00000435 3D 000000FF                     	CMP	EAX,255
   611 0000043A 0F 86 0000048A                  	JBE	L105
   612 00000440 8D 82 FFFFFE00                  	LEA	EAX,DWORD [-512+EDX]
   613 00000446 3D 000000FF                     	CMP	EAX,255
   614 0000044B 0F 86 0000014D                  	JBE	L106
   615 00000451 8D 82 FFFFFD00                  	LEA	EAX,DWORD [-768+EDX]
   616 00000457 3D 000000FF                     	CMP	EAX,255
   617 0000045C 0F 86 0000012A                  	JBE	L107
   618 00000462 8D 82 FFFFFC00                  	LEA	EAX,DWORD [-1024+EDX]
   619 00000468 3D 000003E7                     	CMP	EAX,999
   620 0000046D 0F 86 000000FF                  	JBE	L108
   621 00000473 8D 82 FFFFF818                  	LEA	EAX,DWORD [-2024+EDX]
   622 00000479 3D 000000FF                     	CMP	EAX,255
   623 0000047E 0F 86 000000BF                  	JBE	L109
   624 00000484 81 FA 000008E8                  	CMP	EDX,2280
   625 0000048A 0F 84 0000009A                  	JE	L110
   626 00000490 81 FA 00000BB8                  	CMP	EDX,3000
   627 00000496 0F 85 FFFFFF11                  	JNE	L14
   628 0000049C 68 000000E0                     	PUSH	224
   629 000004A1 68 00102600                     	PUSH	1058304
   630 000004A6 68 [0000011E]                   	PUSH	LC4
   631 000004AB E8 [00000000]                   	CALL	_file_search
   632 000004B0 83 C4 0C                        	ADD	ESP,12
   633 000004B3 89 C3                           	MOV	EBX,EAX
   634 000004B5 85 C0                           	TEST	EAX,EAX
   635 000004B7 0F 84 FFFFFEF0                  	JE	L14
   636 000004BD 8B 40 1C                        	MOV	EAX,DWORD [28+EAX]
   637 000004C0 68 06400000                     	PUSH	104857600
   638 000004C5 68 003C0000                     	PUSH	3932160
   639 000004CA 89 85 FFFFFBEC                  	MOV	DWORD [-1044+EBP],EAX
   640 000004D0 E8 [00000000]                   	CALL	_memman_alloc_4k
   641 000004D5 A3 [00000178]                   	MOV	DWORD [_img],EAX
   642 000004DA 8D 85 FFFFFBEC                  	LEA	EAX,DWORD [-1044+EBP]
   643 000004E0 FF B5 FFFFFB9C                  	PUSH	DWORD [-1124+EBP]
   644 000004E6 50                              	PUSH	EAX
   645 000004E7 0F B7 43 1A                     	MOVZX	EAX,WORD [26+EBX]
   646 000004EB 50                              	PUSH	EAX
   647 000004EC E8 [00000000]                   	CALL	_file_loadfile2
   648 000004F1 8B 15 [00000178]                	MOV	EDX,DWORD [_img]
   649 000004F7 C7 02 00000000                  	MOV	DWORD [EDX],0
   650 000004FD 8B 10                           	MOV	EDX,DWORD [EAX]
   651 000004FF A1 [00000178]                   	MOV	EAX,DWORD [_img]
   652 00000504 89 10                           	MOV	DWORD [EAX],EDX
   653 00000506 FF 35 [00000178]                	PUSH	DWORD [_img]
   654 0000050C 6A 00                           	PUSH	0
   655 0000050E 6A 00                           	PUSH	0
   656 00000510 6A 00                           	PUSH	0
   657 00000512 E8 [00000000]                   	CALL	_writehddisk
   658 00000517 83 C4 24                        	ADD	ESP,36
   659 0000051A 68 [0000012A]                   	PUSH	LC5
   660 0000051F E8 [00000000]                   	CALL	_printk
   661 00000524                                 L97:
   662 00000524 58                              	POP	EAX
   663 00000525 E9 FFFFFE83                     	JMP	L14
   664 0000052A                                 L110:
   665 0000052A E8 00000A1D                     	CALL	_printtime2
   666 0000052F 6A 64                           	PUSH	100
   667 00000531 FF B5 FFFFFB98                  	PUSH	DWORD [-1128+EBP]
   668 00000537 E8 [00000000]                   	CALL	_timer_settime
   669 0000053C                                 L98:
   670 0000053C 5A                              	POP	EDX
   671 0000053D 59                              	POP	ECX
   672 0000053E E9 FFFFFE6A                     	JMP	L14
   673 00000543                                 L109:
   674 00000543 6B C2 28                        	IMUL	EAX,EDX,40
   675 00000546 68 0000A500                     	PUSH	42240
   676 0000054B 8D 04 38                        	LEA	EAX,DWORD [EAX+EDI*1]
   677 0000054E FF B0 FFFEC7D4                  	PUSH	DWORD [-79916+EAX]
   678 00000554 68 003C0000                     	PUSH	3932160
   679 00000559 8D 98 FFFEC7D4                  	LEA	EBX,DWORD [-79916+EAX]
   680 0000055F E8 [00000000]                   	CALL	_memman_free_4k
   681 00000564 53                              	PUSH	EBX
   682 00000565 E8 [00000000]                   	CALL	_sheet_free
   683 0000056A 83 C4 10                        	ADD	ESP,16
   684 0000056D E9 FFFFFE3B                     	JMP	L14
   685 00000572                                 L108:
   686 00000572 69 D2 0000014C                  	IMUL	EDX,EDX,332
   687 00000578 03 15 [00000000]                	ADD	EDX,DWORD [_taskctl]
   688 0000057E 8D 82 FFFADFFC                  	LEA	EAX,DWORD [-335876+EDX]
   689 00000584 50                              	PUSH	EAX
   690 00000585 E8 0000092D                     	CALL	_close_constask
   691 0000058A EB 98                           	JMP	L97
   692 0000058C                                 L107:
   693 0000058C 6B C2 28                        	IMUL	EAX,EDX,40
   694 0000058F 8D 84 38 FFFF8C14               	LEA	EAX,DWORD [-29676+EAX+EDI*1]
   695 00000596 50                              	PUSH	EAX
   696 00000597 E8 0000095B                     	CALL	_close_console
   697 0000059C EB 86                           	JMP	L97
   698 0000059E                                 L106:
   699 0000059E 0F B6 85 FFFFFBF0               	MOVZX	EAX,BYTE [-1040+EBP]
   700 000005A5 50                              	PUSH	EAX
   701 000005A6 8D 85 FFFFFCF4                  	LEA	EAX,DWORD [-780+EBP]
   702 000005AC 50                              	PUSH	EAX
   703 000005AD E8 [00000000]                   	CALL	_mouse_decode
   704 000005B2 5A                              	POP	EDX
   705 000005B3 59                              	POP	ECX
   706 000005B4 85 C0                           	TEST	EAX,EAX
   707 000005B6 0F 84 FFFFFDF1                  	JE	L14
   708 000005BC 8B B5 FFFFFCFC                  	MOV	ESI,DWORD [-772+EBP]
   709 000005C2 8B 85 FFFFFCF8                  	MOV	EAX,DWORD [-776+EBP]
   710 000005C8 01 B5 FFFFFBE4                  	ADD	DWORD [-1052+EBP],ESI
   711 000005CE 01 85 FFFFFBE8                  	ADD	DWORD [-1048+EBP],EAX
   712 000005D4 0F 88 000002E1                  	JS	L111
   713 000005DA                                 L59:
   714 000005DA 83 BD FFFFFBE4 00               	CMP	DWORD [-1052+EBP],0
   715 000005E1 0F 88 000002C5                  	JS	L112
   716 000005E7                                 L60:
   717 000005E7 0F BF 05 00000FF4               	MOVSX	EAX,WORD [4084]
   718 000005EE 48                              	DEC	EAX
   719 000005EF 39 85 FFFFFBE8                  	CMP	DWORD [-1048+EBP],EAX
   720 000005F5 7E 06                           	JLE	L61
   721 000005F7 89 85 FFFFFBE8                  	MOV	DWORD [-1048+EBP],EAX
   722 000005FD                                 L61:
   723 000005FD 0F BF 05 00000FF6               	MOVSX	EAX,WORD [4086]
   724 00000604 48                              	DEC	EAX
   725 00000605 39 85 FFFFFBE4                  	CMP	DWORD [-1052+EBP],EAX
   726 0000060B 7E 06                           	JLE	L62
   727 0000060D 89 85 FFFFFBE4                  	MOV	DWORD [-1052+EBP],EAX
   728 00000613                                 L62:
   729 00000613 8B 95 FFFFFBE8                  	MOV	EDX,DWORD [-1048+EBP]
   730 00000619 8B B5 FFFFFBE4                  	MOV	ESI,DWORD [-1052+EBP]
   731 0000061F 89 95 FFFFFBE0                  	MOV	DWORD [-1056+EBP],EDX
   732 00000625 89 B5 FFFFFBDC                  	MOV	DWORD [-1060+EBP],ESI
   733 0000062B F7 85 FFFFFD00 00000001         	TEST	DWORD [-768+EBP],1
   734 00000635 75 43                           	JNE	L113
   735 00000637 C7 85 FFFFFBB0 FFFFFFFF         	MOV	DWORD [-1104+EBP],-1
   736 00000641 81 BD FFFFFBD8 7FFFFFFF         	CMP	DWORD [-1064+EBP],2147483647
   737 0000064B 0F 84 FFFFFD5C                  	JE	L14
   738 00000651                                 L99:
   739 00000651 FF B5 FFFFFBD4                  	PUSH	DWORD [-1068+EBP]
   740 00000657 FF B5 FFFFFBD8                  	PUSH	DWORD [-1064+EBP]
   741 0000065D FF B5 FFFFFBA4                  	PUSH	DWORD [-1116+EBP]
   742 00000663 E8 [00000000]                   	CALL	_sheet_slide
   743 00000668 C7 85 FFFFFBD8 7FFFFFFF         	MOV	DWORD [-1064+EBP],2147483647
   744 00000672                                 L100:
   745 00000672 83 C4 0C                        	ADD	ESP,12
   746 00000675 E9 FFFFFD33                     	JMP	L14
   747 0000067A                                 L113:
   748 0000067A 83 BD FFFFFBB0 00               	CMP	DWORD [-1104+EBP],0
   749 00000681 78 4E                           	JS	L114
   750 00000683 8B B5 FFFFFBE8                  	MOV	ESI,DWORD [-1048+EBP]
   751 00000689 8B 85 FFFFFBE4                  	MOV	EAX,DWORD [-1052+EBP]
   752 0000068F 2B B5 FFFFFBB0                  	SUB	ESI,DWORD [-1104+EBP]
   753 00000695 2B 85 FFFFFBAC                  	SUB	EAX,DWORD [-1108+EBP]
   754 0000069B 8B 95 FFFFFBA8                  	MOV	EDX,DWORD [-1112+EBP]
   755 000006A1 89 B5 FFFFFBB8                  	MOV	DWORD [-1096+EBP],ESI
   756 000006A7 01 85 FFFFFBD4                  	ADD	DWORD [-1068+EBP],EAX
   757 000006AD 89 85 FFFFFBB4                  	MOV	DWORD [-1100+EBP],EAX
   758 000006B3 8D 54 16 02                     	LEA	EDX,DWORD [2+ESI+EDX*1]
   759 000006B7 83 E2 FC                        	AND	EDX,-4
   760 000006BA 8B B5 FFFFFBE4                  	MOV	ESI,DWORD [-1052+EBP]
   761 000006C0 89 95 FFFFFBD8                  	MOV	DWORD [-1064+EBP],EDX
   762 000006C6 89 B5 FFFFFBAC                  	MOV	DWORD [-1108+EBP],ESI
   763 000006CC E9 FFFFFCDC                     	JMP	L14
   764 000006D1                                 L114:
   765 000006D1 FF B5 FFFFFBB4                  	PUSH	DWORD [-1100+EBP]
   766 000006D7 FF B5 FFFFFBB8                  	PUSH	DWORD [-1096+EBP]
   767 000006DD E8 [00000000]                   	CALL	_do_mouse_click
   768 000006E2 5E                              	POP	ESI
   769 000006E3 8B 5F 10                        	MOV	EBX,DWORD [16+EDI]
   770 000006E6 58                              	POP	EAX
   771 000006E7 8D 4B FF                        	LEA	ECX,DWORD [-1+EBX]
   772 000006EA                                 L102:
   773 000006EA 85 C9                           	TEST	ECX,ECX
   774 000006EC 0F 8E FFFFFCBB                  	JLE	L14
   775 000006F2 8B 44 8F 14                     	MOV	EAX,DWORD [20+EDI+ECX*4]
   776 000006F6 8B 95 FFFFFBE4                  	MOV	EDX,DWORD [-1052+EBP]
   777 000006FC 8B B5 FFFFFBE8                  	MOV	ESI,DWORD [-1048+EBP]
   778 00000702 89 85 FFFFFBA4                  	MOV	DWORD [-1116+EBP],EAX
   779 00000708 2B 50 10                        	SUB	EDX,DWORD [16+EAX]
   780 0000070B 2B 70 0C                        	SUB	ESI,DWORD [12+EAX]
   781 0000070E 89 95 FFFFFBB4                  	MOV	DWORD [-1100+EBP],EDX
   782 00000714 89 B5 FFFFFBB8                  	MOV	DWORD [-1096+EBP],ESI
   783 0000071A 78 2A                           	JS	L67
   784 0000071C 8B 40 04                        	MOV	EAX,DWORD [4+EAX]
   785 0000071F 39 C6                           	CMP	ESI,EAX
   786 00000721 7D 23                           	JGE	L67
   787 00000723 85 D2                           	TEST	EDX,EDX
   788 00000725 78 1F                           	JS	L67
   789 00000727 8B B5 FFFFFBA4                  	MOV	ESI,DWORD [-1116+EBP]
   790 0000072D 3B 56 08                        	CMP	EDX,DWORD [8+ESI]
   791 00000730 7D 14                           	JGE	L67
   792 00000732 0F AF C2                        	IMUL	EAX,EDX
   793 00000735 03 85 FFFFFBB8                  	ADD	EAX,DWORD [-1096+EBP]
   794 0000073B 8B 16                           	MOV	EDX,DWORD [ESI]
   795 0000073D 0F B6 04 10                     	MOVZX	EAX,BYTE [EAX+EDX*1]
   796 00000741 3B 46 14                        	CMP	EAX,DWORD [20+ESI]
   797 00000744 75 03                           	JNE	L115
   798 00000746                                 L67:
   799 00000746 49                              	DEC	ECX
   800 00000747 EB A1                           	JMP	L102
   801 00000749                                 L115:
   802 00000749 8D 43 FF                        	LEA	EAX,DWORD [-1+EBX]
   803 0000074C 50                              	PUSH	EAX
   804 0000074D 56                              	PUSH	ESI
   805 0000074E E8 [00000000]                   	CALL	_sheet_updown
   806 00000753 58                              	POP	EAX
   807 00000754 8B 85 FFFFFBA0                  	MOV	EAX,DWORD [-1120+EBP]
   808 0000075A 5A                              	POP	EDX
   809 0000075B 39 C6                           	CMP	ESI,EAX
   810 0000075D 74 19                           	JE	L71
   811 0000075F 50                              	PUSH	EAX
   812 00000760 E8 000005C7                     	CALL	_keywin_off
   813 00000765 89 B5 FFFFFBA0                  	MOV	DWORD [-1120+EBP],ESI
   814 0000076B FF B5 FFFFFBA4                  	PUSH	DWORD [-1116+EBP]
   815 00000771 E8 000005E4                     	CALL	_keywin_on
   816 00000776 5B                              	POP	EBX
   817 00000777 5E                              	POP	ESI
   818 00000778                                 L71:
   819 00000778 83 BD FFFFFBB8 02               	CMP	DWORD [-1096+EBP],2
   820 0000077F 7E 56                           	JLE	L72
   821 00000781 8B 95 FFFFFBA4                  	MOV	EDX,DWORD [-1116+EBP]
   822 00000787 8B 42 04                        	MOV	EAX,DWORD [4+EDX]
   823 0000078A 83 E8 03                        	SUB	EAX,3
   824 0000078D 39 85 FFFFFBB8                  	CMP	DWORD [-1096+EBP],EAX
   825 00000793 7D 42                           	JGE	L72
   826 00000795 83 BD FFFFFBB4 02               	CMP	DWORD [-1100+EBP],2
   827 0000079C 7E 39                           	JLE	L72
   828 0000079E 83 BD FFFFFBB4 14               	CMP	DWORD [-1100+EBP],20
   829 000007A5 7F 30                           	JG	L72
   830 000007A7 8B B5 FFFFFBE8                  	MOV	ESI,DWORD [-1048+EBP]
   831 000007AD 8B 85 FFFFFBE4                  	MOV	EAX,DWORD [-1052+EBP]
   832 000007B3 89 B5 FFFFFBB0                  	MOV	DWORD [-1104+EBP],ESI
   833 000007B9 8B 52 0C                        	MOV	EDX,DWORD [12+EDX]
   834 000007BC 8B B5 FFFFFBA4                  	MOV	ESI,DWORD [-1116+EBP]
   835 000007C2 89 85 FFFFFBAC                  	MOV	DWORD [-1108+EBP],EAX
   836 000007C8 89 95 FFFFFBA8                  	MOV	DWORD [-1112+EBP],EDX
   837 000007CE 8B 76 10                        	MOV	ESI,DWORD [16+ESI]
   838 000007D1 89 B5 FFFFFBD4                  	MOV	DWORD [-1068+EBP],ESI
   839 000007D7                                 L72:
   840 000007D7 8B 85 FFFFFBA4                  	MOV	EAX,DWORD [-1116+EBP]
   841 000007DD 8B 50 04                        	MOV	EDX,DWORD [4+EAX]
   842 000007E0 8D 42 EB                        	LEA	EAX,DWORD [-21+EDX]
   843 000007E3 3B 85 FFFFFBB8                  	CMP	EAX,DWORD [-1096+EBP]
   844 000007E9 0F 8F FFFFFBBE                  	JG	L14
   845 000007EF 8D 42 FB                        	LEA	EAX,DWORD [-5+EDX]
   846 000007F2 39 85 FFFFFBB8                  	CMP	DWORD [-1096+EBP],EAX
   847 000007F8 0F 8D FFFFFBAF                  	JGE	L14
   848 000007FE 83 BD FFFFFBB4 04               	CMP	DWORD [-1100+EBP],4
   849 00000805 0F 8E FFFFFBA2                  	JLE	L14
   850 0000080B 83 BD FFFFFBB4 12               	CMP	DWORD [-1100+EBP],18
   851 00000812 0F 8F FFFFFB95                  	JG	L14
   852 00000818 8B 95 FFFFFBA4                  	MOV	EDX,DWORD [-1116+EBP]
   853 0000081E F6 42 1C 10                     	TEST	BYTE [28+EDX],16
   854 00000822 74 42                           	JE	L116
   855 00000824 8B 95 FFFFFBA4                  	MOV	EDX,DWORD [-1116+EBP]
   856 0000082A 8B 5A 24                        	MOV	EBX,DWORD [36+EDX]
   857 0000082D 68 [00000138]                   	PUSH	LC3
   858 00000832 FF B3 00000114                  	PUSH	DWORD [276+EBX]
   859 00000838 E8 [00000000]                   	CALL	_cons_putstr0
   860 0000083D E8 [00000000]                   	CALL	_io_cli
   861 00000842 8D 43 30                        	LEA	EAX,DWORD [48+EBX]
   862 00000845 89 43 54                        	MOV	DWORD [84+EBX],EAX
   863 00000848 C7 43 4C [00000000]             	MOV	DWORD [76+EBX],_asm_end_app
   864 0000084F E8 [00000000]                   	CALL	_io_sti
   865 00000854 6A 00                           	PUSH	0
   866 00000856 6A FF                           	PUSH	-1
   867 00000858 53                              	PUSH	EBX
   868 00000859 E8 [00000000]                   	CALL	_task_run
   869 0000085E 83 C4 14                        	ADD	ESP,20
   870 00000861 E9 FFFFFB47                     	JMP	L14
   871 00000866                                 L116:
   872 00000866 8B 5A 24                        	MOV	EBX,DWORD [36+EDX]
   873 00000869 6A FF                           	PUSH	-1
   874 0000086B 52                              	PUSH	EDX
   875 0000086C E8 [00000000]                   	CALL	_sheet_updown
   876 00000871 FF B5 FFFFFBA0                  	PUSH	DWORD [-1120+EBP]
   877 00000877 E8 000004B0                     	CALL	_keywin_off
   878 0000087C 8B 47 10                        	MOV	EAX,DWORD [16+EDI]
   879 0000087F 8B 44 87 10                     	MOV	EAX,DWORD [16+EDI+EAX*4]
   880 00000883 50                              	PUSH	EAX
   881 00000884 89 85 FFFFFBA0                  	MOV	DWORD [-1120+EBP],EAX
   882 0000088A E8 000004CB                     	CALL	_keywin_on
   883 0000088F E8 [00000000]                   	CALL	_io_cli
   884 00000894 8D 43 10                        	LEA	EAX,DWORD [16+EBX]
   885 00000897 6A 04                           	PUSH	4
   886 00000899 50                              	PUSH	EAX
   887 0000089A E8 [00000000]                   	CALL	_fifo32_put
   888 0000089F E8 [00000000]                   	CALL	_io_sti
   889 000008A4 83 C4 18                        	ADD	ESP,24
   890 000008A7 E9 FFFFFB01                     	JMP	L14
   891 000008AC                                 L112:
   892 000008AC C7 85 FFFFFBE4 00000000         	MOV	DWORD [-1052+EBP],0
   893 000008B6 E9 FFFFFD2C                     	JMP	L60
   894 000008BB                                 L111:
   895 000008BB C7 85 FFFFFBE8 00000000         	MOV	DWORD [-1048+EBP],0
   896 000008C5 E9 FFFFFD10                     	JMP	L59
   897 000008CA                                 L105:
   898 000008CA 81 FA 0000017F                  	CMP	EDX,383
   899 000008D0 0F 8F 0000035E                  	JG	L28
   900 000008D6 83 BD FFFFFBC8 00               	CMP	DWORD [-1080+EBP],0
   901 000008DD 0F 85 00000346                  	JNE	L29
   902 000008E3 8A 82 [FFFFFF00]                	MOV	AL,BYTE [_keytable0.0-256+EDX]
   903 000008E9                                 L101:
   904 000008E9 88 45 C4                        	MOV	BYTE [-60+EBP],AL
   905 000008EC                                 L31:
   906 000008EC 8A 55 C4                        	MOV	DL,BYTE [-60+EBP]
   907 000008EF 8D 42 BF                        	LEA	EAX,DWORD [-65+EDX]
   908 000008F2 3C 19                           	CMP	AL,25
   909 000008F4 77 1D                           	JA	L32
   910 000008F6 F7 85 FFFFFBC4 00000004         	TEST	DWORD [-1084+EBP],4
   911 00000900 0F 85 00000314                  	JNE	L95
   912 00000906 83 BD FFFFFBC8 00               	CMP	DWORD [-1080+EBP],0
   913 0000090D 0F 84 000002FC                  	JE	L34
   914 00000913                                 L32:
   915 00000913 8A 45 C4                        	MOV	AL,BYTE [-60+EBP]
   916 00000916 84 C0                           	TEST	AL,AL
   917 00000918 74 26                           	JE	L36
   918 0000091A 83 BD FFFFFBA0 00               	CMP	DWORD [-1120+EBP],0
   919 00000921 74 1D                           	JE	L36
   920 00000923 0F BE C0                        	MOVSX	EAX,AL
   921 00000926 8B 95 FFFFFBA0                  	MOV	EDX,DWORD [-1120+EBP]
   922 0000092C 05 00000100                     	ADD	EAX,256
   923 00000931 50                              	PUSH	EAX
   924 00000932 8B 42 24                        	MOV	EAX,DWORD [36+EDX]
   925 00000935 83 C0 10                        	ADD	EAX,16
   926 00000938 50                              	PUSH	EAX
   927 00000939 E8 [00000000]                   	CALL	_fifo32_put
   928 0000093E 58                              	POP	EAX
   929 0000093F 5A                              	POP	EDX
   930 00000940                                 L36:
   931 00000940 81 BD FFFFFBF0 0000010F         	CMP	DWORD [-1040+EBP],271
   932 0000094A 0F 84 00000280                  	JE	L117
   933 00000950                                 L37:
   934 00000950 8B 85 FFFFFBF0                  	MOV	EAX,DWORD [-1040+EBP]
   935 00000956 3D 0000012A                     	CMP	EAX,298
   936 0000095B 0F 84 00000263                  	JE	L118
   937 00000961                                 L39:
   938 00000961 3D 00000136                     	CMP	EAX,310
   939 00000966 0F 84 0000024C                  	JE	L119
   940 0000096C                                 L40:
   941 0000096C 3D 0000011D                     	CMP	EAX,285
   942 00000971 0F 84 00000232                  	JE	L120
   943 00000977                                 L41:
   944 00000977 3D 0000019D                     	CMP	EAX,413
   945 0000097C 0F 84 00000218                  	JE	L121
   946 00000982                                 L42:
   947 00000982 3D 000001AA                     	CMP	EAX,426
   948 00000987 0F 84 00000201                  	JE	L122
   949 0000098D                                 L43:
   950 0000098D 3D 000001B6                     	CMP	EAX,438
   951 00000992 0F 84 000001EA                  	JE	L123
   952 00000998                                 L44:
   953 00000998 3D 0000013A                     	CMP	EAX,314
   954 0000099D 0F 84 000001B6                  	JE	L124
   955 000009A3                                 L45:
   956 000009A3 81 BD FFFFFBF0 00000145         	CMP	DWORD [-1040+EBP],325
   957 000009AD 0F 84 0000017D                  	JE	L125
   958 000009B3                                 L46:
   959 000009B3 81 BD FFFFFBF0 00000146         	CMP	DWORD [-1040+EBP],326
   960 000009BD 0F 84 00000144                  	JE	L126
   961 000009C3                                 L47:
   962 000009C3 81 BD FFFFFBF0 0000013B         	CMP	DWORD [-1040+EBP],315
   963 000009CD 0F 84 000000C6                  	JE	L127
   964 000009D3                                 L48:
   965 000009D3 81 BD FFFFFBF0 0000012E         	CMP	DWORD [-1040+EBP],302
   966 000009DD 74 58                           	JE	L128
   967 000009DF                                 L50:
   968 000009DF 81 BD FFFFFBF0 00000157         	CMP	DWORD [-1040+EBP],343
   969 000009E9 74 3B                           	JE	L129
   970 000009EB                                 L53:
   971 000009EB 8B 85 FFFFFBF0                  	MOV	EAX,DWORD [-1040+EBP]
   972 000009F1 3D 000001FA                     	CMP	EAX,506
   973 000009F6 74 22                           	JE	L130
   974 000009F8                                 L54:
   975 000009F8 3D 000001FE                     	CMP	EAX,510
   976 000009FD 0F 85 FFFFF9AA                  	JNE	L14
   977 00000A03 E8 [00000000]                   	CALL	_wait_KBC_sendready
   978 00000A08 FF B5 FFFFFBC0                  	PUSH	DWORD [-1088+EBP]
   979 00000A0E 6A 60                           	PUSH	96
   980 00000A10 E8 [00000000]                   	CALL	_io_out8
   981 00000A15 E9 FFFFFB22                     	JMP	L98
   982 00000A1A                                 L130:
   983 00000A1A C7 85 FFFFFBC0 FFFFFFFF         	MOV	DWORD [-1088+EBP],-1
   984 00000A24 EB D2                           	JMP	L54
   985 00000A26                                 L129:
   986 00000A26 8B 47 10                        	MOV	EAX,DWORD [16+EDI]
   987 00000A29 48                              	DEC	EAX
   988 00000A2A 50                              	PUSH	EAX
   989 00000A2B FF 77 18                        	PUSH	DWORD [24+EDI]
   990 00000A2E E8 [00000000]                   	CALL	_sheet_updown
   991 00000A33 5B                              	POP	EBX
   992 00000A34 5E                              	POP	ESI
   993 00000A35 EB B4                           	JMP	L53
   994 00000A37                                 L128:
   995 00000A37 83 BD FFFFFBBC 00               	CMP	DWORD [-1092+EBP],0
   996 00000A3E 74 9F                           	JE	L50
   997 00000A40 83 BD FFFFFBA0 00               	CMP	DWORD [-1120+EBP],0
   998 00000A47 74 96                           	JE	L50
   999 00000A49 8B 95 FFFFFBA0                  	MOV	EDX,DWORD [-1120+EBP]
  1000 00000A4F 8B 5A 24                        	MOV	EBX,DWORD [36+EDX]
  1001 00000A52 85 DB                           	TEST	EBX,EBX
  1002 00000A54 74 89                           	JE	L50
  1003 00000A56 83 7B 34 00                     	CMP	DWORD [52+EBX],0
  1004 00000A5A 0F 84 FFFFFF7F                  	JE	L50
  1005 00000A60 68 [00000149]                   	PUSH	LC2
  1006 00000A65 FF B3 00000114                  	PUSH	DWORD [276+EBX]
  1007 00000A6B E8 [00000000]                   	CALL	_cons_putstr0
  1008 00000A70 E8 [00000000]                   	CALL	_io_cli
  1009 00000A75 8D 43 30                        	LEA	EAX,DWORD [48+EBX]
  1010 00000A78 89 43 54                        	MOV	DWORD [84+EBX],EAX
  1011 00000A7B C7 43 4C [00000000]             	MOV	DWORD [76+EBX],_asm_end_app
  1012 00000A82 E8 [00000000]                   	CALL	_io_sti
  1013 00000A87 6A 00                           	PUSH	0
  1014 00000A89 6A FF                           	PUSH	-1
  1015 00000A8B 53                              	PUSH	EBX
  1016 00000A8C E8 [00000000]                   	CALL	_task_run
  1017 00000A91 83 C4 14                        	ADD	ESP,20
  1018 00000A94 E9 FFFFFF46                     	JMP	L50
  1019 00000A99                                 L127:
  1020 00000A99 83 BD FFFFFBC8 00               	CMP	DWORD [-1080+EBP],0
  1021 00000AA0 0F 84 FFFFFF2D                  	JE	L48
  1022 00000AA6 83 BD FFFFFBA0 00               	CMP	DWORD [-1120+EBP],0
  1023 00000AAD 0F 84 FFFFFF20                  	JE	L48
  1024 00000AB3 8B 85 FFFFFBA0                  	MOV	EAX,DWORD [-1120+EBP]
  1025 00000AB9 8B 58 24                        	MOV	EBX,DWORD [36+EAX]
  1026 00000ABC 85 DB                           	TEST	EBX,EBX
  1027 00000ABE 0F 84 FFFFFF0F                  	JE	L48
  1028 00000AC4 83 7B 34 00                     	CMP	DWORD [52+EBX],0
  1029 00000AC8 0F 84 FFFFFF05                  	JE	L48
  1030 00000ACE 68 [00000149]                   	PUSH	LC2
  1031 00000AD3 FF B3 00000114                  	PUSH	DWORD [276+EBX]
  1032 00000AD9 E8 [00000000]                   	CALL	_cons_putstr0
  1033 00000ADE E8 [00000000]                   	CALL	_io_cli
  1034 00000AE3 8D 43 30                        	LEA	EAX,DWORD [48+EBX]
  1035 00000AE6 89 43 54                        	MOV	DWORD [84+EBX],EAX
  1036 00000AE9 C7 43 4C [00000000]             	MOV	DWORD [76+EBX],_asm_end_app
  1037 00000AF0 E8 [00000000]                   	CALL	_io_sti
  1038 00000AF5 6A 00                           	PUSH	0
  1039 00000AF7 6A FF                           	PUSH	-1
  1040 00000AF9 53                              	PUSH	EBX
  1041 00000AFA E8 [00000000]                   	CALL	_task_run
  1042 00000AFF 83 C4 14                        	ADD	ESP,20
  1043 00000B02 E9 FFFFFECC                     	JMP	L48
  1044 00000B07                                 L126:
  1045 00000B07 68 000000ED                     	PUSH	237
  1046 00000B0C 8D 5D 84                        	LEA	EBX,DWORD [-124+EBP]
  1047 00000B0F 53                              	PUSH	EBX
  1048 00000B10 83 B5 FFFFFBC4 01               	XOR	DWORD [-1084+EBP],1
  1049 00000B17 E8 [00000000]                   	CALL	_fifo32_put
  1050 00000B1C FF B5 FFFFFBC4                  	PUSH	DWORD [-1084+EBP]
  1051 00000B22 53                              	PUSH	EBX
  1052 00000B23 E8 [00000000]                   	CALL	_fifo32_put
  1053 00000B28 83 C4 10                        	ADD	ESP,16
  1054 00000B2B E9 FFFFFE93                     	JMP	L47
  1055 00000B30                                 L125:
  1056 00000B30 68 000000ED                     	PUSH	237
  1057 00000B35 8D 5D 84                        	LEA	EBX,DWORD [-124+EBP]
  1058 00000B38 53                              	PUSH	EBX
  1059 00000B39 83 B5 FFFFFBC4 02               	XOR	DWORD [-1084+EBP],2
  1060 00000B40 E8 [00000000]                   	CALL	_fifo32_put
  1061 00000B45 FF B5 FFFFFBC4                  	PUSH	DWORD [-1084+EBP]
  1062 00000B4B 53                              	PUSH	EBX
  1063 00000B4C E8 [00000000]                   	CALL	_fifo32_put
  1064 00000B51 83 C4 10                        	ADD	ESP,16
  1065 00000B54 E9 FFFFFE5A                     	JMP	L46
  1066 00000B59                                 L124:
  1067 00000B59 68 000000ED                     	PUSH	237
  1068 00000B5E 8D 5D 84                        	LEA	EBX,DWORD [-124+EBP]
  1069 00000B61 53                              	PUSH	EBX
  1070 00000B62 83 B5 FFFFFBC4 04               	XOR	DWORD [-1084+EBP],4
  1071 00000B69 E8 [00000000]                   	CALL	_fifo32_put
  1072 00000B6E FF B5 FFFFFBC4                  	PUSH	DWORD [-1084+EBP]
  1073 00000B74 53                              	PUSH	EBX
  1074 00000B75 E8 [00000000]                   	CALL	_fifo32_put
  1075 00000B7A 83 C4 10                        	ADD	ESP,16
  1076 00000B7D E9 FFFFFE21                     	JMP	L45
  1077 00000B82                                 L123:
  1078 00000B82 83 A5 FFFFFBC8 FD               	AND	DWORD [-1080+EBP],-3
  1079 00000B89 E9 FFFFFE0A                     	JMP	L44
  1080 00000B8E                                 L122:
  1081 00000B8E 83 A5 FFFFFBC8 FE               	AND	DWORD [-1080+EBP],-2
  1082 00000B95 E9 FFFFFDF3                     	JMP	L43
  1083 00000B9A                                 L121:
  1084 00000B9A C7 85 FFFFFBBC 00000000         	MOV	DWORD [-1092+EBP],0
  1085 00000BA4 E9 FFFFFDD9                     	JMP	L42
  1086 00000BA9                                 L120:
  1087 00000BA9 C7 85 FFFFFBBC 00000001         	MOV	DWORD [-1092+EBP],1
  1088 00000BB3 E9 FFFFFDBF                     	JMP	L41
  1089 00000BB8                                 L119:
  1090 00000BB8 83 8D FFFFFBC8 02               	OR	DWORD [-1080+EBP],2
  1091 00000BBF E9 FFFFFDA8                     	JMP	L40
  1092 00000BC4                                 L118:
  1093 00000BC4 83 8D FFFFFBC8 01               	OR	DWORD [-1080+EBP],1
  1094 00000BCB E9 FFFFFD91                     	JMP	L39
  1095 00000BD0                                 L117:
  1096 00000BD0 83 BD FFFFFBA0 00               	CMP	DWORD [-1120+EBP],0
  1097 00000BD7 0F 84 FFFFFD73                  	JE	L37
  1098 00000BDD FF B5 FFFFFBA0                  	PUSH	DWORD [-1120+EBP]
  1099 00000BE3 E8 00000144                     	CALL	_keywin_off
  1100 00000BE8 8B B5 FFFFFBA0                  	MOV	ESI,DWORD [-1120+EBP]
  1101 00000BEE 58                              	POP	EAX
  1102 00000BEF 8B 4E 18                        	MOV	ECX,DWORD [24+ESI]
  1103 00000BF2 49                              	DEC	ECX
  1104 00000BF3 75 04                           	JNE	L38
  1105 00000BF5 8B 4F 10                        	MOV	ECX,DWORD [16+EDI]
  1106 00000BF8 49                              	DEC	ECX
  1107 00000BF9                                 L38:
  1108 00000BF9 8B 4C 8F 14                     	MOV	ECX,DWORD [20+EDI+ECX*4]
  1109 00000BFD 51                              	PUSH	ECX
  1110 00000BFE 89 8D FFFFFBA0                  	MOV	DWORD [-1120+EBP],ECX
  1111 00000C04 E8 00000151                     	CALL	_keywin_on
  1112 00000C09 58                              	POP	EAX
  1113 00000C0A E9 FFFFFD41                     	JMP	L37
  1114 00000C0F                                 L34:
  1115 00000C0F 8D 42 20                        	LEA	EAX,DWORD [32+EDX]
  1116 00000C12 88 45 C4                        	MOV	BYTE [-60+EBP],AL
  1117 00000C15 E9 FFFFFCF9                     	JMP	L32
  1118 00000C1A                                 L95:
  1119 00000C1A 83 BD FFFFFBC8 00               	CMP	DWORD [-1080+EBP],0
  1120 00000C21 0F 84 FFFFFCEC                  	JE	L32
  1121 00000C27 EB E6                           	JMP	L34
  1122 00000C29                                 L29:
  1123 00000C29 8A 82 [FFFFFF80]                	MOV	AL,BYTE [_keytable1.1-256+EDX]
  1124 00000C2F E9 FFFFFCB5                     	JMP	L101
  1125 00000C34                                 L28:
  1126 00000C34 C6 45 C4 00                     	MOV	BYTE [-60+EBP],0
  1127 00000C38 E9 FFFFFCAF                     	JMP	L31
  1128 00000C3D                                 L104:
  1129 00000C3D 83 BD FFFFFBE0 00               	CMP	DWORD [-1056+EBP],0
  1130 00000C44 79 2B                           	JNS	L131
  1131 00000C46 81 BD FFFFFBD8 7FFFFFFF         	CMP	DWORD [-1064+EBP],2147483647
  1132 00000C50 75 15                           	JNE	L132
  1133 00000C52 E8 [00000000]                   	CALL	_io_sti
  1134 00000C57 FF B5 FFFFFBCC                  	PUSH	DWORD [-1076+EBP]
  1135 00000C5D E8 [00000000]                   	CALL	_task_sleep
  1136 00000C62 E9 FFFFF8BD                     	JMP	L97
  1137 00000C67                                 L132:
  1138 00000C67 E8 [00000000]                   	CALL	_io_sti
  1139 00000C6C E9 FFFFF9E0                     	JMP	L99
  1140 00000C71                                 L131:
  1141 00000C71 E8 [00000000]                   	CALL	_io_sti
  1142 00000C76 FF B5 FFFFFBDC                  	PUSH	DWORD [-1060+EBP]
  1143 00000C7C FF B5 FFFFFBE0                  	PUSH	DWORD [-1056+EBP]
  1144 00000C82 FF B5 FFFFFBD0                  	PUSH	DWORD [-1072+EBP]
  1145 00000C88 E8 [00000000]                   	CALL	_sheet_slide
  1146 00000C8D C7 85 FFFFFBE0 FFFFFFFF         	MOV	DWORD [-1056+EBP],-1
  1147 00000C97 E9 FFFFF9D6                     	JMP	L100
  1148 00000C9C                                 L103:
  1149 00000C9C 53                              	PUSH	EBX
  1150 00000C9D E8 [00000000]                   	CALL	_fifo32_get
  1151 00000CA2 89 85 FFFFFBC0                  	MOV	DWORD [-1088+EBP],EAX
  1152 00000CA8 E8 [00000000]                   	CALL	_wait_KBC_sendready
  1153 00000CAD FF B5 FFFFFBC0                  	PUSH	DWORD [-1088+EBP]
  1154 00000CB3 6A 60                           	PUSH	96
  1155 00000CB5 E8 [00000000]                   	CALL	_io_out8
  1156 00000CBA 83 C4 0C                        	ADD	ESP,12
  1157 00000CBD E9 FFFFF706                     	JMP	L17
  1158 00000CC2                                 L2:
  1159 00000CC2 68 00023840                     	PUSH	145472
  1160 00000CC7 68 003C0000                     	PUSH	3932160
  1161 00000CCC E8 [00000000]                   	CALL	_memman_alloc_4k
  1162 00000CD1 31 D2                           	XOR	EDX,EDX
  1163 00000CD3 5B                              	POP	EBX
  1164 00000CD4 89 C1                           	MOV	ECX,EAX
  1165 00000CD6 C7 85 FFFFFBF0 00000000         	MOV	DWORD [-1040+EBP],0
  1166 00000CE0 5E                              	POP	ESI
  1167 00000CE1                                 L8:
  1168 00000CE1 8A 82 [00000000]                	MOV	AL,BYTE [_hankaku+EDX]
  1169 00000CE7 88 04 0A                        	MOV	BYTE [EDX+ECX*1],AL
  1170 00000CEA 8B 85 FFFFFBF0                  	MOV	EAX,DWORD [-1040+EBP]
  1171 00000CF0 40                              	INC	EAX
  1172 00000CF1 89 85 FFFFFBF0                  	MOV	DWORD [-1040+EBP],EAX
  1173 00000CF7 89 C2                           	MOV	EDX,EAX
  1174 00000CF9 3D 00000FFF                     	CMP	EAX,4095
  1175 00000CFE 7E E1                           	JLE	L8
  1176 00000D00 C7 85 FFFFFBF0 00001000         	MOV	DWORD [-1040+EBP],4096
  1177 00000D0A B8 00001000                     	MOV	EAX,4096
  1178 00000D0F                                 L13:
  1179 00000D0F C6 04 08 FF                     	MOV	BYTE [EAX+ECX*1],-1
  1180 00000D13 8B 85 FFFFFBF0                  	MOV	EAX,DWORD [-1040+EBP]
  1181 00000D19 40                              	INC	EAX
  1182 00000D1A 89 85 FFFFFBF0                  	MOV	DWORD [-1040+EBP],EAX
  1183 00000D20 3D 0002383F                     	CMP	EAX,145471
  1184 00000D25 7E E8                           	JLE	L13
  1185 00000D27 E9 FFFFF67B                     	JMP	L3
  1186 00000D2C                                 	GLOBAL	_keywin_off
  1187 00000D2C                                 _keywin_off:
  1188 00000D2C 55                              	PUSH	EBP
  1189 00000D2D 89 E5                           	MOV	EBP,ESP
  1190 00000D2F 53                              	PUSH	EBX
  1191 00000D30 6A 00                           	PUSH	0
  1192 00000D32 8B 5D 08                        	MOV	EBX,DWORD [8+EBP]
  1193 00000D35 53                              	PUSH	EBX
  1194 00000D36 E8 [00000000]                   	CALL	_change_wtitle8
  1195 00000D3B F6 43 1C 20                     	TEST	BYTE [28+EBX],32
  1196 00000D3F 59                              	POP	ECX
  1197 00000D40 58                              	POP	EAX
  1198 00000D41 75 05                           	JNE	L135
  1199 00000D43                                 L133:
  1200 00000D43 8B 5D FC                        	MOV	EBX,DWORD [-4+EBP]
  1201 00000D46 C9                              	LEAVE
  1202 00000D47 C3                              	RET
  1203 00000D48                                 L135:
  1204 00000D48 6A 03                           	PUSH	3
  1205 00000D4A 8B 43 24                        	MOV	EAX,DWORD [36+EBX]
  1206 00000D4D 83 C0 10                        	ADD	EAX,16
  1207 00000D50 50                              	PUSH	EAX
  1208 00000D51 E8 [00000000]                   	CALL	_fifo32_put
  1209 00000D56 58                              	POP	EAX
  1210 00000D57 5A                              	POP	EDX
  1211 00000D58 EB E9                           	JMP	L133
  1212 00000D5A                                 	GLOBAL	_keywin_on
  1213 00000D5A                                 _keywin_on:
  1214 00000D5A 55                              	PUSH	EBP
  1215 00000D5B 89 E5                           	MOV	EBP,ESP
  1216 00000D5D 53                              	PUSH	EBX
  1217 00000D5E 6A 01                           	PUSH	1
  1218 00000D60 8B 5D 08                        	MOV	EBX,DWORD [8+EBP]
  1219 00000D63 53                              	PUSH	EBX
  1220 00000D64 E8 [00000000]                   	CALL	_change_wtitle8
  1221 00000D69 F6 43 1C 20                     	TEST	BYTE [28+EBX],32
  1222 00000D6D 59                              	POP	ECX
  1223 00000D6E 58                              	POP	EAX
  1224 00000D6F 75 05                           	JNE	L138
  1225 00000D71                                 L136:
  1226 00000D71 8B 5D FC                        	MOV	EBX,DWORD [-4+EBP]
  1227 00000D74 C9                              	LEAVE
  1228 00000D75 C3                              	RET
  1229 00000D76                                 L138:
  1230 00000D76 6A 02                           	PUSH	2
  1231 00000D78 8B 43 24                        	MOV	EAX,DWORD [36+EBX]
  1232 00000D7B 83 C0 10                        	ADD	EAX,16
  1233 00000D7E 50                              	PUSH	EAX
  1234 00000D7F E8 [00000000]                   	CALL	_fifo32_put
  1235 00000D84 58                              	POP	EAX
  1236 00000D85 5A                              	POP	EDX
  1237 00000D86 EB E9                           	JMP	L136
  1238                                          [SECTION .data]
  1239 00000158                                 LC6:
  1240 00000158 63 6F 6D 6D 61 6E 64 20 6C 69   	DB	"command line",0x00
       00000162 6E 65 00 
  1241                                          [SECTION .text]
  1242 00000D88                                 	GLOBAL	_open_constask
  1243 00000D88                                 _open_constask:
  1244 00000D88 55                              	PUSH	EBP
  1245 00000D89 89 E5                           	MOV	EBP,ESP
  1246 00000D8B 56                              	PUSH	ESI
  1247 00000D8C 53                              	PUSH	EBX
  1248 00000D8D E8 [00000000]                   	CALL	_task_alloc
  1249 00000D92 68 00000200                     	PUSH	512
  1250 00000D97 68 003C0000                     	PUSH	3932160
  1251 00000D9C 89 C3                           	MOV	EBX,EAX
  1252 00000D9E E8 [00000000]                   	CALL	_memman_alloc_4k
  1253 00000DA3 68 00010000                     	PUSH	65536
  1254 00000DA8 68 003C0000                     	PUSH	3932160
  1255 00000DAD 89 C6                           	MOV	ESI,EAX
  1256 00000DAF E8 [00000000]                   	CALL	_memman_alloc_4k
  1257 00000DB4 8B 55 08                        	MOV	EDX,DWORD [8+EBP]
  1258 00000DB7 C7 43 4C [00000000]             	MOV	DWORD [76+EBX],_console_task
  1259 00000DBE 89 83 0000011C                  	MOV	DWORD [284+EBX],EAX
  1260 00000DC4 05 0000FFF4                     	ADD	EAX,65524
  1261 00000DC9 89 43 64                        	MOV	DWORD [100+EBX],EAX
  1262 00000DCC C7 43 74 00000008               	MOV	DWORD [116+EBX],8
  1263 00000DD3 C7 43 78 00000010               	MOV	DWORD [120+EBX],16
  1264 00000DDA C7 43 7C 00000008               	MOV	DWORD [124+EBX],8
  1265 00000DE1 C7 83 00000080 00000008         	MOV	DWORD [128+EBX],8
  1266 00000DEB C7 83 00000084 00000008         	MOV	DWORD [132+EBX],8
  1267 00000DF5 C7 83 00000088 00000008         	MOV	DWORD [136+EBX],8
  1268 00000DFF 89 50 04                        	MOV	DWORD [4+EAX],EDX
  1269 00000E02 8B 53 64                        	MOV	EDX,DWORD [100+EBX]
  1270 00000E05 8B 45 0C                        	MOV	EAX,DWORD [12+EBP]
  1271 00000E08 C7 83 00000110 [00000158]       	MOV	DWORD [272+EBX],LC6
  1272 00000E12 89 42 08                        	MOV	DWORD [8+EDX],EAX
  1273 00000E15 6A 02                           	PUSH	2
  1274 00000E17 6A 02                           	PUSH	2
  1275 00000E19 53                              	PUSH	EBX
  1276 00000E1A E8 [00000000]                   	CALL	_task_run
  1277 00000E1F 8D 43 10                        	LEA	EAX,DWORD [16+EBX]
  1278 00000E22 53                              	PUSH	EBX
  1279 00000E23 56                              	PUSH	ESI
  1280 00000E24 68 00000080                     	PUSH	128
  1281 00000E29 50                              	PUSH	EAX
  1282 00000E2A E8 [00000000]                   	CALL	_fifo32_init
  1283 00000E2F 8D 65 F8                        	LEA	ESP,DWORD [-8+EBP]
  1284 00000E32 89 D8                           	MOV	EAX,EBX
  1285 00000E34 5B                              	POP	EBX
  1286 00000E35 5E                              	POP	ESI
  1287 00000E36 5D                              	POP	EBP
  1288 00000E37 C3                              	RET
  1289                                          [SECTION .data]
  1290 00000165                                 LC7:
  1291 00000165 63 6F 6E 73 6F 6C 65 00         	DB	"console",0x00
  1292                                          [SECTION .text]
  1293 00000E38                                 	GLOBAL	_open_console
  1294 00000E38                                 _open_console:
  1295 00000E38 55                              	PUSH	EBP
  1296 00000E39 89 E5                           	MOV	EBP,ESP
  1297 00000E3B 56                              	PUSH	ESI
  1298 00000E3C 53                              	PUSH	EBX
  1299 00000E3D FF 75 08                        	PUSH	DWORD [8+EBP]
  1300 00000E40 E8 [00000000]                   	CALL	_sheet_alloc
  1301 00000E45 68 0000A500                     	PUSH	42240
  1302 00000E4A 68 003C0000                     	PUSH	3932160
  1303 00000E4F 89 C3                           	MOV	EBX,EAX
  1304 00000E51 E8 [00000000]                   	CALL	_memman_alloc_4k
  1305 00000E56 6A FF                           	PUSH	-1
  1306 00000E58 68 000000A5                     	PUSH	165
  1307 00000E5D 89 C6                           	MOV	ESI,EAX
  1308 00000E5F 68 00000100                     	PUSH	256
  1309 00000E64 50                              	PUSH	EAX
  1310 00000E65 53                              	PUSH	EBX
  1311 00000E66 E8 [00000000]                   	CALL	_sheet_setbuf
  1312 00000E6B 83 C4 20                        	ADD	ESP,32
  1313 00000E6E 6A 00                           	PUSH	0
  1314 00000E70 68 [00000165]                   	PUSH	LC7
  1315 00000E75 68 000000A5                     	PUSH	165
  1316 00000E7A 68 00000100                     	PUSH	256
  1317 00000E7F 56                              	PUSH	ESI
  1318 00000E80 E8 [00000000]                   	CALL	_make_window8
  1319 00000E85 6A 00                           	PUSH	0
  1320 00000E87 68 00000080                     	PUSH	128
  1321 00000E8C 68 000000F0                     	PUSH	240
  1322 00000E91 6A 1C                           	PUSH	28
  1323 00000E93 6A 08                           	PUSH	8
  1324 00000E95 53                              	PUSH	EBX
  1325 00000E96 E8 [00000000]                   	CALL	_make_textbox8
  1326 00000E9B 83 C4 2C                        	ADD	ESP,44
  1327 00000E9E FF 75 0C                        	PUSH	DWORD [12+EBP]
  1328 00000EA1 53                              	PUSH	EBX
  1329 00000EA2 E8 FFFFFEE1                     	CALL	_open_constask
  1330 00000EA7 83 4B 1C 20                     	OR	DWORD [28+EBX],32
  1331 00000EAB 89 43 24                        	MOV	DWORD [36+EBX],EAX
  1332 00000EAE 8D 65 F8                        	LEA	ESP,DWORD [-8+EBP]
  1333 00000EB1 89 D8                           	MOV	EAX,EBX
  1334 00000EB3 5B                              	POP	EBX
  1335 00000EB4 5E                              	POP	ESI
  1336 00000EB5 5D                              	POP	EBP
  1337 00000EB6 C3                              	RET
  1338 00000EB7                                 	GLOBAL	_close_constask
  1339 00000EB7                                 _close_constask:
  1340 00000EB7 55                              	PUSH	EBP
  1341 00000EB8 89 E5                           	MOV	EBP,ESP
  1342 00000EBA 53                              	PUSH	EBX
  1343 00000EBB 8B 5D 08                        	MOV	EBX,DWORD [8+EBP]
  1344 00000EBE 53                              	PUSH	EBX
  1345 00000EBF E8 [00000000]                   	CALL	_task_sleep
  1346 00000EC4 68 00010000                     	PUSH	65536
  1347 00000EC9 FF B3 0000011C                  	PUSH	DWORD [284+EBX]
  1348 00000ECF 68 003C0000                     	PUSH	3932160
  1349 00000ED4 E8 [00000000]                   	CALL	_memman_free_4k
  1350 00000ED9 68 00000200                     	PUSH	512
  1351 00000EDE FF 73 10                        	PUSH	DWORD [16+EBX]
  1352 00000EE1 68 003C0000                     	PUSH	3932160
  1353 00000EE6 E8 [00000000]                   	CALL	_memman_free_4k
  1354 00000EEB C7 43 04 00000000               	MOV	DWORD [4+EBX],0
  1355 00000EF2 8B 5D FC                        	MOV	EBX,DWORD [-4+EBP]
  1356 00000EF5 C9                              	LEAVE
  1357 00000EF6 C3                              	RET
  1358 00000EF7                                 	GLOBAL	_close_console
  1359 00000EF7                                 _close_console:
  1360 00000EF7 55                              	PUSH	EBP
  1361 00000EF8 89 E5                           	MOV	EBP,ESP
  1362 00000EFA 56                              	PUSH	ESI
  1363 00000EFB 53                              	PUSH	EBX
  1364 00000EFC 8B 5D 08                        	MOV	EBX,DWORD [8+EBP]
  1365 00000EFF 8B 73 24                        	MOV	ESI,DWORD [36+EBX]
  1366 00000F02 68 0000A500                     	PUSH	42240
  1367 00000F07 FF 33                           	PUSH	DWORD [EBX]
  1368 00000F09 68 003C0000                     	PUSH	3932160
  1369 00000F0E E8 [00000000]                   	CALL	_memman_free_4k
  1370 00000F13 53                              	PUSH	EBX
  1371 00000F14 E8 [00000000]                   	CALL	_sheet_free
  1372 00000F19 56                              	PUSH	ESI
  1373 00000F1A E8 FFFFFF98                     	CALL	_close_constask
  1374 00000F1F E8 [00000000]                   	CALL	_io_cli
  1375 00000F24 83 C4 14                        	ADD	ESP,20
  1376 00000F27 A1 [00000000]                   	MOV	EAX,DWORD [_taskctl]
  1377 00000F2C C7 46 04 00000000               	MOV	DWORD [4+ESI],0
  1378 00000F33 39 70 04                        	CMP	DWORD [4+EAX],ESI
  1379 00000F36 74 0B                           	JE	L144
  1380 00000F38                                 L143:
  1381 00000F38 8D 65 F8                        	LEA	ESP,DWORD [-8+EBP]
  1382 00000F3B 5B                              	POP	EBX
  1383 00000F3C 5E                              	POP	ESI
  1384 00000F3D 5D                              	POP	EBP
  1385 00000F3E E9 [00000000]                   	JMP	_io_sti
  1386 00000F43                                 L144:
  1387 00000F43 C7 40 04 00000000               	MOV	DWORD [4+EAX],0
  1388 00000F4A EB EC                           	JMP	L143
  1389                                          [SECTION .data]
  1390 0000016D                                 LC8:
  1391 0000016D 25 30 32 58 3A 25 30 32 58 00   	DB	"%02X:%02X",0x00
  1392                                          [SECTION .text]
  1393 00000F4C                                 	GLOBAL	_printtime2
  1394 00000F4C                                 _printtime2:
  1395 00000F4C 55                              	PUSH	EBP
  1396 00000F4D 89 E5                           	MOV	EBP,ESP
  1397 00000F4F 57                              	PUSH	EDI
  1398 00000F50 56                              	PUSH	ESI
  1399 00000F51 53                              	PUSH	EBX
  1400 00000F52 83 EC 54                        	SUB	ESP,84
  1401 00000F55 E8 [00000000]                   	CALL	_task_now
  1402 00000F5A 0F BF 05 00000FF4               	MOVSX	EAX,WORD [4084]
  1403 00000F61 89 45 BC                        	MOV	DWORD [-68+EBP],EAX
  1404 00000F64 A1 00000EF8                     	MOV	EAX,DWORD [3832]
  1405 00000F69 89 45 C0                        	MOV	DWORD [-64+EBP],EAX
  1406 00000F6C 8D 45 C4                        	LEA	EAX,DWORD [-60+EBP]
  1407 00000F6F 0F BF 15 00000FF6               	MOVSX	EDX,WORD [4086]
  1408 00000F76 50                              	PUSH	EAX
  1409 00000F77 89 55 B8                        	MOV	DWORD [-72+EBP],EDX
  1410 00000F7A E8 [00000000]                   	CALL	_readrtc
  1411 00000F7F 8D 55 D4                        	LEA	EDX,DWORD [-44+EBP]
  1412 00000F82 0F B6 45 C5                     	MOVZX	EAX,BYTE [-59+EBP]
  1413 00000F86 50                              	PUSH	EAX
  1414 00000F87 0F B6 45 C6                     	MOVZX	EAX,BYTE [-58+EBP]
  1415 00000F8B 50                              	PUSH	EAX
  1416 00000F8C 68 [0000016D]                   	PUSH	LC8
  1417 00000F91 52                              	PUSH	EDX
  1418 00000F92 E8 [00000000]                   	CALL	_sprintf
  1419 00000F97 8B 55 BC                        	MOV	EDX,DWORD [-68+EBP]
  1420 00000F9A 8B 45 B8                        	MOV	EAX,DWORD [-72+EBP]
  1421 00000F9D 4A                              	DEC	EDX
  1422 00000F9E 83 E8 1C                        	SUB	EAX,28
  1423 00000FA1 89 55 B4                        	MOV	DWORD [-76+EBP],EDX
  1424 00000FA4 50                              	PUSH	EAX
  1425 00000FA5 52                              	PUSH	EDX
  1426 00000FA6 50                              	PUSH	EAX
  1427 00000FA7 6A 00                           	PUSH	0
  1428 00000FA9 6A 08                           	PUSH	8
  1429 00000FAB FF 75 BC                        	PUSH	DWORD [-68+EBP]
  1430 00000FAE FF 75 C0                        	PUSH	DWORD [-64+EBP]
  1431 00000FB1 E8 [00000000]                   	CALL	_boxfill8
  1432 00000FB6 8B 45 B8                        	MOV	EAX,DWORD [-72+EBP]
  1433 00000FB9 83 C4 30                        	ADD	ESP,48
  1434 00000FBC 83 E8 1B                        	SUB	EAX,27
  1435 00000FBF 50                              	PUSH	EAX
  1436 00000FC0 FF 75 B4                        	PUSH	DWORD [-76+EBP]
  1437 00000FC3 50                              	PUSH	EAX
  1438 00000FC4 6A 00                           	PUSH	0
  1439 00000FC6 6A 07                           	PUSH	7
  1440 00000FC8 FF 75 BC                        	PUSH	DWORD [-68+EBP]
  1441 00000FCB FF 75 C0                        	PUSH	DWORD [-64+EBP]
  1442 00000FCE E8 [00000000]                   	CALL	_boxfill8
  1443 00000FD3 8B 45 B8                        	MOV	EAX,DWORD [-72+EBP]
  1444 00000FD6 48                              	DEC	EAX
  1445 00000FD7 50                              	PUSH	EAX
  1446 00000FD8 89 45 B0                        	MOV	DWORD [-80+EBP],EAX
  1447 00000FDB 8B 45 B8                        	MOV	EAX,DWORD [-72+EBP]
  1448 00000FDE FF 75 B4                        	PUSH	DWORD [-76+EBP]
  1449 00000FE1 83 E8 1A                        	SUB	EAX,26
  1450 00000FE4 50                              	PUSH	EAX
  1451 00000FE5 6A 00                           	PUSH	0
  1452 00000FE7 6A 08                           	PUSH	8
  1453 00000FE9 FF 75 BC                        	PUSH	DWORD [-68+EBP]
  1454 00000FEC FF 75 C0                        	PUSH	DWORD [-64+EBP]
  1455 00000FEF E8 [00000000]                   	CALL	_boxfill8
  1456 00000FF4 8B 55 B8                        	MOV	EDX,DWORD [-72+EBP]
  1457 00000FF7 83 C4 38                        	ADD	ESP,56
  1458 00000FFA 83 EA 18                        	SUB	EDX,24
  1459 00000FFD 89 55 AC                        	MOV	DWORD [-84+EBP],EDX
  1460 00001000 52                              	PUSH	EDX
  1461 00001001 6A 3B                           	PUSH	59
  1462 00001003 52                              	PUSH	EDX
  1463 00001004 6A 03                           	PUSH	3
  1464 00001006 6A 07                           	PUSH	7
  1465 00001008 FF 75 BC                        	PUSH	DWORD [-68+EBP]
  1466 0000100B FF 75 C0                        	PUSH	DWORD [-64+EBP]
  1467 0000100E E8 [00000000]                   	CALL	_boxfill8
  1468 00001013 8B 45 B8                        	MOV	EAX,DWORD [-72+EBP]
  1469 00001016 83 E8 04                        	SUB	EAX,4
  1470 00001019 50                              	PUSH	EAX
  1471 0000101A 89 45 A8                        	MOV	DWORD [-88+EBP],EAX
  1472 0000101D 6A 02                           	PUSH	2
  1473 0000101F FF 75 AC                        	PUSH	DWORD [-84+EBP]
  1474 00001022 6A 02                           	PUSH	2
  1475 00001024 6A 07                           	PUSH	7
  1476 00001026 FF 75 BC                        	PUSH	DWORD [-68+EBP]
  1477 00001029 FF 75 C0                        	PUSH	DWORD [-64+EBP]
  1478 0000102C E8 [00000000]                   	CALL	_boxfill8
  1479 00001031 83 C4 38                        	ADD	ESP,56
  1480 00001034 FF 75 A8                        	PUSH	DWORD [-88+EBP]
  1481 00001037 6A 3B                           	PUSH	59
  1482 00001039 FF 75 A8                        	PUSH	DWORD [-88+EBP]
  1483 0000103C 6A 03                           	PUSH	3
  1484 0000103E 6A 0F                           	PUSH	15
  1485 00001040 FF 75 BC                        	PUSH	DWORD [-68+EBP]
  1486 00001043 FF 75 C0                        	PUSH	DWORD [-64+EBP]
  1487 00001046 E8 [00000000]                   	CALL	_boxfill8
  1488 0000104B 8B 55 B8                        	MOV	EDX,DWORD [-72+EBP]
  1489 0000104E 8B 45 B8                        	MOV	EAX,DWORD [-72+EBP]
  1490 00001051 83 EA 17                        	SUB	EDX,23
  1491 00001054 83 E8 05                        	SUB	EAX,5
  1492 00001057 89 55 A4                        	MOV	DWORD [-92+EBP],EDX
  1493 0000105A 50                              	PUSH	EAX
  1494 0000105B 6A 3B                           	PUSH	59
  1495 0000105D 52                              	PUSH	EDX
  1496 0000105E 6A 3B                           	PUSH	59
  1497 00001060 6A 0F                           	PUSH	15
  1498 00001062 FF 75 BC                        	PUSH	DWORD [-68+EBP]
  1499 00001065 FF 75 C0                        	PUSH	DWORD [-64+EBP]
  1500 00001068 E8 [00000000]                   	CALL	_boxfill8
  1501 0000106D 8B 7D B8                        	MOV	EDI,DWORD [-72+EBP]
  1502 00001070 83 C4 38                        	ADD	ESP,56
  1503 00001073 83 EF 03                        	SUB	EDI,3
  1504 00001076 57                              	PUSH	EDI
  1505 00001077 6A 3B                           	PUSH	59
  1506 00001079 57                              	PUSH	EDI
  1507 0000107A 6A 02                           	PUSH	2
  1508 0000107C 6A 00                           	PUSH	0
  1509 0000107E FF 75 BC                        	PUSH	DWORD [-68+EBP]
  1510 00001081 FF 75 C0                        	PUSH	DWORD [-64+EBP]
  1511 00001084 E8 [00000000]                   	CALL	_boxfill8
  1512 00001089 57                              	PUSH	EDI
  1513 0000108A 6A 3C                           	PUSH	60
  1514 0000108C FF 75 AC                        	PUSH	DWORD [-84+EBP]
  1515 0000108F 6A 3C                           	PUSH	60
  1516 00001091 6A 00                           	PUSH	0
  1517 00001093 FF 75 BC                        	PUSH	DWORD [-68+EBP]
  1518 00001096 FF 75 C0                        	PUSH	DWORD [-64+EBP]
  1519 00001099 E8 [00000000]                   	CALL	_boxfill8
  1520 0000109E 8B 75 BC                        	MOV	ESI,DWORD [-68+EBP]
  1521 000010A1 83 C4 38                        	ADD	ESP,56
  1522 000010A4 83 EE 2F                        	SUB	ESI,47
  1523 000010A7 FF 75 AC                        	PUSH	DWORD [-84+EBP]
  1524 000010AA 56                              	PUSH	ESI
  1525 000010AB FF 75 AC                        	PUSH	DWORD [-84+EBP]
  1526 000010AE 56                              	PUSH	ESI
  1527 000010AF 6A 0F                           	PUSH	15
  1528 000010B1 FF 75 BC                        	PUSH	DWORD [-68+EBP]
  1529 000010B4 FF 75 C0                        	PUSH	DWORD [-64+EBP]
  1530 000010B7 E8 [00000000]                   	CALL	_boxfill8
  1531 000010BC 8B 5D BC                        	MOV	EBX,DWORD [-68+EBP]
  1532 000010BF FF 75 AC                        	PUSH	DWORD [-84+EBP]
  1533 000010C2 83 EB 04                        	SUB	EBX,4
  1534 000010C5 53                              	PUSH	EBX
  1535 000010C6 FF 75 AC                        	PUSH	DWORD [-84+EBP]
  1536 000010C9 56                              	PUSH	ESI
  1537 000010CA 6A 0F                           	PUSH	15
  1538 000010CC FF 75 BC                        	PUSH	DWORD [-68+EBP]
  1539 000010CF FF 75 C0                        	PUSH	DWORD [-64+EBP]
  1540 000010D2 E8 [00000000]                   	CALL	_boxfill8
  1541 000010D7 83 C4 38                        	ADD	ESP,56
  1542 000010DA FF 75 A8                        	PUSH	DWORD [-88+EBP]
  1543 000010DD 56                              	PUSH	ESI
  1544 000010DE FF 75 A4                        	PUSH	DWORD [-92+EBP]
  1545 000010E1 56                              	PUSH	ESI
  1546 000010E2 6A 0F                           	PUSH	15
  1547 000010E4 FF 75 BC                        	PUSH	DWORD [-68+EBP]
  1548 000010E7 FF 75 C0                        	PUSH	DWORD [-64+EBP]
  1549 000010EA E8 [00000000]                   	CALL	_boxfill8
  1550 000010EF 57                              	PUSH	EDI
  1551 000010F0 53                              	PUSH	EBX
  1552 000010F1 57                              	PUSH	EDI
  1553 000010F2 56                              	PUSH	ESI
  1554 000010F3 6A 07                           	PUSH	7
  1555 000010F5 FF 75 BC                        	PUSH	DWORD [-68+EBP]
  1556 000010F8 FF 75 C0                        	PUSH	DWORD [-64+EBP]
  1557 000010FB E8 [00000000]                   	CALL	_boxfill8
  1558 00001100 8B 45 BC                        	MOV	EAX,DWORD [-68+EBP]
  1559 00001103 83 C4 38                        	ADD	ESP,56
  1560 00001106 83 E8 03                        	SUB	EAX,3
  1561 00001109 57                              	PUSH	EDI
  1562 0000110A 50                              	PUSH	EAX
  1563 0000110B FF 75 AC                        	PUSH	DWORD [-84+EBP]
  1564 0000110E 50                              	PUSH	EAX
  1565 0000110F 6A 07                           	PUSH	7
  1566 00001111 FF 75 BC                        	PUSH	DWORD [-68+EBP]
  1567 00001114 FF 75 C0                        	PUSH	DWORD [-64+EBP]
  1568 00001117 E8 [00000000]                   	CALL	_boxfill8
  1569 0000111C 8D 45 D4                        	LEA	EAX,DWORD [-44+EBP]
  1570 0000111F 50                              	PUSH	EAX
  1571 00001120 8B 45 B8                        	MOV	EAX,DWORD [-72+EBP]
  1572 00001123 6A 07                           	PUSH	7
  1573 00001125 83 E8 16                        	SUB	EAX,22
  1574 00001128 50                              	PUSH	EAX
  1575 00001129 8B 45 BC                        	MOV	EAX,DWORD [-68+EBP]
  1576 0000112C 83 E8 2E                        	SUB	EAX,46
  1577 0000112F 50                              	PUSH	EAX
  1578 00001130 FF 75 BC                        	PUSH	DWORD [-68+EBP]
  1579 00001133 FF 75 C0                        	PUSH	DWORD [-64+EBP]
  1580 00001136 E8 [00000000]                   	CALL	_putfonts8_asc
  1581 0000113B 8B 55 BC                        	MOV	EDX,DWORD [-68+EBP]
  1582 0000113E 83 C4 34                        	ADD	ESP,52
  1583 00001141 8B 45 B8                        	MOV	EAX,DWORD [-72+EBP]
  1584 00001144 FF 75 B0                        	PUSH	DWORD [-80+EBP]
  1585 00001147 FF 75 B4                        	PUSH	DWORD [-76+EBP]
  1586 0000114A 83 E8 19                        	SUB	EAX,25
  1587 0000114D 83 EA 30                        	SUB	EDX,48
  1588 00001150 50                              	PUSH	EAX
  1589 00001151 52                              	PUSH	EDX
  1590 00001152 68 00000EF8                     	PUSH	3832
  1591 00001157 E8 [00000000]                   	CALL	_sheet_refresh
  1592 0000115C 8D 65 F4                        	LEA	ESP,DWORD [-12+EBP]
  1593 0000115F 5B                              	POP	EBX
  1594 00001160 5E                              	POP	ESI
  1595 00001161 5F                              	POP	EDI
  1596 00001162 5D                              	POP	EBP
  1597 00001163 C3                              	RET
  1598 00001164                                 	GLOBAL	_img
  1599                                          [SECTION .data]
  1600 00000177 00                              	ALIGNB	4
  1601 00000178                                 _img:
  1602 00000178 00 00 00 00                     	RESB	4
